
build/uart_spi.elf:     file format elf32-littleriscv


Disassembly of section .text.init:

00020000 <_start>:
   20000:	00000093          	li	ra,0
   20004:	00000113          	li	sp,0
   20008:	00000193          	li	gp,0
   2000c:	00000213          	li	tp,0
   20010:	00000293          	li	t0,0
   20014:	00000313          	li	t1,0
   20018:	00000393          	li	t2,0
   2001c:	00000413          	li	s0,0
   20020:	00000493          	li	s1,0
   20024:	00000513          	li	a0,0
   20028:	00000593          	li	a1,0
   2002c:	00000613          	li	a2,0
   20030:	00000693          	li	a3,0
   20034:	00000713          	li	a4,0
   20038:	00000793          	li	a5,0
   2003c:	00000813          	li	a6,0
   20040:	00000893          	li	a7,0
   20044:	00000913          	li	s2,0
   20048:	00000993          	li	s3,0
   2004c:	00000a13          	li	s4,0
   20050:	00000a93          	li	s5,0
   20054:	00000b13          	li	s6,0
   20058:	00000b93          	li	s7,0
   2005c:	00000c13          	li	s8,0
   20060:	00000c93          	li	s9,0
   20064:	00000d13          	li	s10,0
   20068:	00000d93          	li	s11,0
   2006c:	00000e13          	li	t3,0
   20070:	00000e93          	li	t4,0
   20074:	00000f13          	li	t5,0
   20078:	00000f93          	li	t6,0
   2007c:	00100293          	li	t0,1
   20080:	01f29293          	slli	t0,t0,0x1f
   20084:	0002c463          	bltz	t0,2008c <_start+0x8c>
   20088:	0000006f          	j	20088 <_start+0x88>
   2008c:	00000297          	auipc	t0,0x0
   20090:	04028293          	addi	t0,t0,64 # 200cc <trap_entry>
   20094:	30529073          	csrw	mtvec,t0
   20098:	00008197          	auipc	gp,0x8
   2009c:	9d418193          	addi	gp,gp,-1580 # 27a6c <__global_pointer$>
   200a0:	89b18213          	addi	tp,gp,-1893 # 27307 <_end+0x3f>
   200a4:	fc027213          	andi	tp,tp,-64
   200a8:	f1402573          	csrr	a0,mhartid
   200ac:	00100593          	li	a1,1
   200b0:	00b57063          	bgeu	a0,a1,200b0 <_start+0xb0>
   200b4:	00f51613          	slli	a2,a0,0xf
   200b8:	00c20233          	add	tp,tp,a2
   200bc:	00150113          	addi	sp,a0,1
   200c0:	00f11113          	slli	sp,sp,0xf
   200c4:	00410133          	add	sp,sp,tp
   200c8:	43d0006f          	j	20d04 <_init>

000200cc <trap_entry>:
   200cc:	ef010113          	addi	sp,sp,-272
   200d0:	00112223          	sw	ra,4(sp)
   200d4:	00212423          	sw	sp,8(sp)
   200d8:	00312623          	sw	gp,12(sp)
   200dc:	00412823          	sw	tp,16(sp)
   200e0:	00512a23          	sw	t0,20(sp)
   200e4:	00612c23          	sw	t1,24(sp)
   200e8:	00712e23          	sw	t2,28(sp)
   200ec:	02812023          	sw	s0,32(sp)
   200f0:	02912223          	sw	s1,36(sp)
   200f4:	02a12423          	sw	a0,40(sp)
   200f8:	02b12623          	sw	a1,44(sp)
   200fc:	02c12823          	sw	a2,48(sp)
   20100:	02d12a23          	sw	a3,52(sp)
   20104:	02e12c23          	sw	a4,56(sp)
   20108:	02f12e23          	sw	a5,60(sp)
   2010c:	05012023          	sw	a6,64(sp)
   20110:	05112223          	sw	a7,68(sp)
   20114:	05212423          	sw	s2,72(sp)
   20118:	05312623          	sw	s3,76(sp)
   2011c:	05412823          	sw	s4,80(sp)
   20120:	05512a23          	sw	s5,84(sp)
   20124:	05612c23          	sw	s6,88(sp)
   20128:	05712e23          	sw	s7,92(sp)
   2012c:	07812023          	sw	s8,96(sp)
   20130:	07912223          	sw	s9,100(sp)
   20134:	07a12423          	sw	s10,104(sp)
   20138:	07b12623          	sw	s11,108(sp)
   2013c:	07c12823          	sw	t3,112(sp)
   20140:	07d12a23          	sw	t4,116(sp)
   20144:	07e12c23          	sw	t5,120(sp)
   20148:	07f12e23          	sw	t6,124(sp)
   2014c:	34202573          	csrr	a0,mcause
   20150:	341025f3          	csrr	a1,mepc
   20154:	00010613          	mv	a2,sp
   20158:	16d000ef          	jal	ra,20ac4 <handle_trap>
   2015c:	34151073          	csrw	mepc,a0
   20160:	000022b7          	lui	t0,0x2
   20164:	80028293          	addi	t0,t0,-2048 # 1800 <_tbss_end+0x1800>
   20168:	3002a073          	csrs	mstatus,t0
   2016c:	00412083          	lw	ra,4(sp)
   20170:	00812103          	lw	sp,8(sp)
   20174:	00c12183          	lw	gp,12(sp)
   20178:	01012203          	lw	tp,16(sp)
   2017c:	01412283          	lw	t0,20(sp)
   20180:	01812303          	lw	t1,24(sp)
   20184:	01c12383          	lw	t2,28(sp)
   20188:	02012403          	lw	s0,32(sp)
   2018c:	02412483          	lw	s1,36(sp)
   20190:	02812503          	lw	a0,40(sp)
   20194:	02c12583          	lw	a1,44(sp)
   20198:	03012603          	lw	a2,48(sp)
   2019c:	03412683          	lw	a3,52(sp)
   201a0:	03812703          	lw	a4,56(sp)
   201a4:	03c12783          	lw	a5,60(sp)
   201a8:	04012803          	lw	a6,64(sp)
   201ac:	04412883          	lw	a7,68(sp)
   201b0:	04812903          	lw	s2,72(sp)
   201b4:	04c12983          	lw	s3,76(sp)
   201b8:	05012a03          	lw	s4,80(sp)
   201bc:	05412a83          	lw	s5,84(sp)
   201c0:	05812b03          	lw	s6,88(sp)
   201c4:	05c12b83          	lw	s7,92(sp)
   201c8:	06012c03          	lw	s8,96(sp)
   201cc:	06412c83          	lw	s9,100(sp)
   201d0:	06812d03          	lw	s10,104(sp)
   201d4:	06c12d83          	lw	s11,108(sp)
   201d8:	07012e03          	lw	t3,112(sp)
   201dc:	07412e83          	lw	t4,116(sp)
   201e0:	07812f03          	lw	t5,120(sp)
   201e4:	07c12f83          	lw	t6,124(sp)
   201e8:	11010113          	addi	sp,sp,272
   201ec:	30200073          	mret

Disassembly of section .text:

000201f0 <uart_init>:
   201f0:	fe010113          	addi	sp,sp,-32
   201f4:	00812e23          	sw	s0,28(sp)
   201f8:	02010413          	addi	s0,sp,32
   201fc:	00050793          	mv	a5,a0
   20200:	fef407a3          	sb	a5,-17(s0)
   20204:	fef44783          	lbu	a5,-17(s0)
   20208:	00879793          	slli	a5,a5,0x8
   2020c:	00078713          	mv	a4,a5
   20210:	100007b7          	lui	a5,0x10000
   20214:	10078793          	addi	a5,a5,256 # 10000100 <__global_pointer$+0xffd8694>
   20218:	00f707b3          	add	a5,a4,a5
   2021c:	00078713          	mv	a4,a5
   20220:	08300793          	li	a5,131
   20224:	00f72623          	sw	a5,12(a4)
   20228:	fef44783          	lbu	a5,-17(s0)
   2022c:	00879793          	slli	a5,a5,0x8
   20230:	00078713          	mv	a4,a5
   20234:	100007b7          	lui	a5,0x10000
   20238:	10078793          	addi	a5,a5,256 # 10000100 <__global_pointer$+0xffd8694>
   2023c:	00f707b3          	add	a5,a4,a5
   20240:	00078713          	mv	a4,a5
   20244:	00e00793          	li	a5,14
   20248:	00f72023          	sw	a5,0(a4)
   2024c:	fef44783          	lbu	a5,-17(s0)
   20250:	00879793          	slli	a5,a5,0x8
   20254:	00078713          	mv	a4,a5
   20258:	100007b7          	lui	a5,0x10000
   2025c:	10078793          	addi	a5,a5,256 # 10000100 <__global_pointer$+0xffd8694>
   20260:	00f707b3          	add	a5,a4,a5
   20264:	0007a223          	sw	zero,4(a5)
   20268:	fef44783          	lbu	a5,-17(s0)
   2026c:	00879793          	slli	a5,a5,0x8
   20270:	00078713          	mv	a4,a5
   20274:	100007b7          	lui	a5,0x10000
   20278:	10078793          	addi	a5,a5,256 # 10000100 <__global_pointer$+0xffd8694>
   2027c:	00f707b3          	add	a5,a4,a5
   20280:	00078713          	mv	a4,a5
   20284:	00300793          	li	a5,3
   20288:	00f72623          	sw	a5,12(a4)
   2028c:	fef44783          	lbu	a5,-17(s0)
   20290:	00879793          	slli	a5,a5,0x8
   20294:	00078713          	mv	a4,a5
   20298:	100007b7          	lui	a5,0x10000
   2029c:	10078793          	addi	a5,a5,256 # 10000100 <__global_pointer$+0xffd8694>
   202a0:	00f707b3          	add	a5,a4,a5
   202a4:	0007a223          	sw	zero,4(a5)
   202a8:	00000013          	nop
   202ac:	01c12403          	lw	s0,28(sp)
   202b0:	02010113          	addi	sp,sp,32
   202b4:	00008067          	ret

000202b8 <uart_set_baud_rate>:
   202b8:	fd010113          	addi	sp,sp,-48
   202bc:	02812623          	sw	s0,44(sp)
   202c0:	03010413          	addi	s0,sp,48
   202c4:	00050793          	mv	a5,a0
   202c8:	fcb42c23          	sw	a1,-40(s0)
   202cc:	fcc42a23          	sw	a2,-44(s0)
   202d0:	fcf40fa3          	sb	a5,-33(s0)
   202d4:	fd842783          	lw	a5,-40(s0)
   202d8:	00479793          	slli	a5,a5,0x4
   202dc:	fd442703          	lw	a4,-44(s0)
   202e0:	02f757b3          	divu	a5,a4,a5
   202e4:	fef42623          	sw	a5,-20(s0)
   202e8:	fdf44783          	lbu	a5,-33(s0)
   202ec:	00879793          	slli	a5,a5,0x8
   202f0:	00078713          	mv	a4,a5
   202f4:	100007b7          	lui	a5,0x10000
   202f8:	10078793          	addi	a5,a5,256 # 10000100 <__global_pointer$+0xffd8694>
   202fc:	00f707b3          	add	a5,a4,a5
   20300:	00078713          	mv	a4,a5
   20304:	08300793          	li	a5,131
   20308:	00f72623          	sw	a5,12(a4)
   2030c:	fdf44783          	lbu	a5,-33(s0)
   20310:	00879793          	slli	a5,a5,0x8
   20314:	00078713          	mv	a4,a5
   20318:	100007b7          	lui	a5,0x10000
   2031c:	10078793          	addi	a5,a5,256 # 10000100 <__global_pointer$+0xffd8694>
   20320:	00f707b3          	add	a5,a4,a5
   20324:	00078713          	mv	a4,a5
   20328:	fec42783          	lw	a5,-20(s0)
   2032c:	0ff7f793          	andi	a5,a5,255
   20330:	00f72023          	sw	a5,0(a4)
   20334:	fec42783          	lw	a5,-20(s0)
   20338:	0087d793          	srli	a5,a5,0x8
   2033c:	fdf44703          	lbu	a4,-33(s0)
   20340:	00871713          	slli	a4,a4,0x8
   20344:	00070693          	mv	a3,a4
   20348:	10000737          	lui	a4,0x10000
   2034c:	10070713          	addi	a4,a4,256 # 10000100 <__global_pointer$+0xffd8694>
   20350:	00e68733          	add	a4,a3,a4
   20354:	0ff7f793          	andi	a5,a5,255
   20358:	00f72223          	sw	a5,4(a4)
   2035c:	fdf44783          	lbu	a5,-33(s0)
   20360:	00879793          	slli	a5,a5,0x8
   20364:	00078713          	mv	a4,a5
   20368:	100007b7          	lui	a5,0x10000
   2036c:	10078793          	addi	a5,a5,256 # 10000100 <__global_pointer$+0xffd8694>
   20370:	00f707b3          	add	a5,a4,a5
   20374:	00078713          	mv	a4,a5
   20378:	00300793          	li	a5,3
   2037c:	00f72623          	sw	a5,12(a4)
   20380:	fdf44783          	lbu	a5,-33(s0)
   20384:	00879793          	slli	a5,a5,0x8
   20388:	00078713          	mv	a4,a5
   2038c:	100007b7          	lui	a5,0x10000
   20390:	10078793          	addi	a5,a5,256 # 10000100 <__global_pointer$+0xffd8694>
   20394:	00f707b3          	add	a5,a4,a5
   20398:	0007a223          	sw	zero,4(a5)
   2039c:	00000013          	nop
   203a0:	02c12403          	lw	s0,44(sp)
   203a4:	03010113          	addi	sp,sp,48
   203a8:	00008067          	ret

000203ac <uart_configure>:
   203ac:	fd010113          	addi	sp,sp,-48
   203b0:	02812623          	sw	s0,44(sp)
   203b4:	03010413          	addi	s0,sp,48
   203b8:	00050793          	mv	a5,a0
   203bc:	fcb42c23          	sw	a1,-40(s0)
   203c0:	fcc42a23          	sw	a2,-44(s0)
   203c4:	fcd42823          	sw	a3,-48(s0)
   203c8:	fcf40fa3          	sb	a5,-33(s0)
   203cc:	fd842783          	lw	a5,-40(s0)
   203d0:	00479793          	slli	a5,a5,0x4
   203d4:	fd042703          	lw	a4,-48(s0)
   203d8:	02f757b3          	divu	a5,a4,a5
   203dc:	fef42623          	sw	a5,-20(s0)
   203e0:	fdf44783          	lbu	a5,-33(s0)
   203e4:	00879793          	slli	a5,a5,0x8
   203e8:	00078713          	mv	a4,a5
   203ec:	100007b7          	lui	a5,0x10000
   203f0:	10078793          	addi	a5,a5,256 # 10000100 <__global_pointer$+0xffd8694>
   203f4:	00f707b3          	add	a5,a4,a5
   203f8:	00078713          	mv	a4,a5
   203fc:	fd442783          	lw	a5,-44(s0)
   20400:	00f72623          	sw	a5,12(a4)
   20404:	fdf44783          	lbu	a5,-33(s0)
   20408:	00879793          	slli	a5,a5,0x8
   2040c:	00078713          	mv	a4,a5
   20410:	100007b7          	lui	a5,0x10000
   20414:	10078793          	addi	a5,a5,256 # 10000100 <__global_pointer$+0xffd8694>
   20418:	00f707b3          	add	a5,a4,a5
   2041c:	00078713          	mv	a4,a5
   20420:	fec42783          	lw	a5,-20(s0)
   20424:	0ff7f793          	andi	a5,a5,255
   20428:	00f72023          	sw	a5,0(a4)
   2042c:	fec42783          	lw	a5,-20(s0)
   20430:	0087d793          	srli	a5,a5,0x8
   20434:	fdf44703          	lbu	a4,-33(s0)
   20438:	00871713          	slli	a4,a4,0x8
   2043c:	00070693          	mv	a3,a4
   20440:	10000737          	lui	a4,0x10000
   20444:	10070713          	addi	a4,a4,256 # 10000100 <__global_pointer$+0xffd8694>
   20448:	00e68733          	add	a4,a3,a4
   2044c:	0ff7f793          	andi	a5,a5,255
   20450:	00f72223          	sw	a5,4(a4)
   20454:	fdf44783          	lbu	a5,-33(s0)
   20458:	00879793          	slli	a5,a5,0x8
   2045c:	00078713          	mv	a4,a5
   20460:	100007b7          	lui	a5,0x10000
   20464:	10078793          	addi	a5,a5,256 # 10000100 <__global_pointer$+0xffd8694>
   20468:	00f707b3          	add	a5,a4,a5
   2046c:	00c7a783          	lw	a5,12(a5)
   20470:	fdf44703          	lbu	a4,-33(s0)
   20474:	00871713          	slli	a4,a4,0x8
   20478:	00070693          	mv	a3,a4
   2047c:	10000737          	lui	a4,0x10000
   20480:	10070713          	addi	a4,a4,256 # 10000100 <__global_pointer$+0xffd8694>
   20484:	00e68733          	add	a4,a3,a4
   20488:	07f7f793          	andi	a5,a5,127
   2048c:	00f72623          	sw	a5,12(a4)
   20490:	fdf44783          	lbu	a5,-33(s0)
   20494:	00879793          	slli	a5,a5,0x8
   20498:	00078713          	mv	a4,a5
   2049c:	100007b7          	lui	a5,0x10000
   204a0:	10078793          	addi	a5,a5,256 # 10000100 <__global_pointer$+0xffd8694>
   204a4:	00f707b3          	add	a5,a4,a5
   204a8:	00078713          	mv	a4,a5
   204ac:	00100793          	li	a5,1
   204b0:	00f72223          	sw	a5,4(a4)
   204b4:	fdf44783          	lbu	a5,-33(s0)
   204b8:	00879793          	slli	a5,a5,0x8
   204bc:	00078713          	mv	a4,a5
   204c0:	100007b7          	lui	a5,0x10000
   204c4:	10078793          	addi	a5,a5,256 # 10000100 <__global_pointer$+0xffd8694>
   204c8:	00f707b3          	add	a5,a4,a5
   204cc:	0007a423          	sw	zero,8(a5)
   204d0:	0ff0000f          	fence
   204d4:	00000013          	nop
   204d8:	02c12403          	lw	s0,44(sp)
   204dc:	03010113          	addi	sp,sp,48
   204e0:	00008067          	ret

000204e4 <uart_putchar>:
   204e4:	fe010113          	addi	sp,sp,-32
   204e8:	00812e23          	sw	s0,28(sp)
   204ec:	02010413          	addi	s0,sp,32
   204f0:	00050793          	mv	a5,a0
   204f4:	00058713          	mv	a4,a1
   204f8:	fec42423          	sw	a2,-24(s0)
   204fc:	fef407a3          	sb	a5,-17(s0)
   20500:	00070793          	mv	a5,a4
   20504:	fef40723          	sb	a5,-18(s0)
   20508:	00000013          	nop
   2050c:	fef44783          	lbu	a5,-17(s0)
   20510:	00879793          	slli	a5,a5,0x8
   20514:	00078713          	mv	a4,a5
   20518:	100007b7          	lui	a5,0x10000
   2051c:	10078793          	addi	a5,a5,256 # 10000100 <__global_pointer$+0xffd8694>
   20520:	00f707b3          	add	a5,a4,a5
   20524:	0147a783          	lw	a5,20(a5)
   20528:	0207f713          	andi	a4,a5,32
   2052c:	02000793          	li	a5,32
   20530:	02f70663          	beq	a4,a5,2055c <uart_putchar+0x78>
   20534:	fef44783          	lbu	a5,-17(s0)
   20538:	00879793          	slli	a5,a5,0x8
   2053c:	00078713          	mv	a4,a5
   20540:	100007b7          	lui	a5,0x10000
   20544:	10078793          	addi	a5,a5,256 # 10000100 <__global_pointer$+0xffd8694>
   20548:	00f707b3          	add	a5,a4,a5
   2054c:	0147a783          	lw	a5,20(a5)
   20550:	0407f713          	andi	a4,a5,64
   20554:	04000793          	li	a5,64
   20558:	faf71ae3          	bne	a4,a5,2050c <uart_putchar+0x28>
   2055c:	fef44783          	lbu	a5,-17(s0)
   20560:	00879793          	slli	a5,a5,0x8
   20564:	00078713          	mv	a4,a5
   20568:	100007b7          	lui	a5,0x10000
   2056c:	10078793          	addi	a5,a5,256 # 10000100 <__global_pointer$+0xffd8694>
   20570:	00f707b3          	add	a5,a4,a5
   20574:	00078713          	mv	a4,a5
   20578:	fee44783          	lbu	a5,-18(s0)
   2057c:	00f72023          	sw	a5,0(a4)
   20580:	0ff0000f          	fence
   20584:	00000013          	nop
   20588:	fef44783          	lbu	a5,-17(s0)
   2058c:	00879793          	slli	a5,a5,0x8
   20590:	00078713          	mv	a4,a5
   20594:	100007b7          	lui	a5,0x10000
   20598:	10078793          	addi	a5,a5,256 # 10000100 <__global_pointer$+0xffd8694>
   2059c:	00f707b3          	add	a5,a4,a5
   205a0:	0147a783          	lw	a5,20(a5)
   205a4:	0207f713          	andi	a4,a5,32
   205a8:	02000793          	li	a5,32
   205ac:	fcf71ee3          	bne	a4,a5,20588 <uart_putchar+0xa4>
   205b0:	fef44783          	lbu	a5,-17(s0)
   205b4:	00879793          	slli	a5,a5,0x8
   205b8:	00078713          	mv	a4,a5
   205bc:	100007b7          	lui	a5,0x10000
   205c0:	10078793          	addi	a5,a5,256 # 10000100 <__global_pointer$+0xffd8694>
   205c4:	00f707b3          	add	a5,a4,a5
   205c8:	0147a783          	lw	a5,20(a5)
   205cc:	0047f713          	andi	a4,a5,4
   205d0:	00400793          	li	a5,4
   205d4:	00f71a63          	bne	a4,a5,205e8 <uart_putchar+0x104>
   205d8:	fe842783          	lw	a5,-24(s0)
   205dc:	fff00713          	li	a4,-1
   205e0:	00e78023          	sb	a4,0(a5)
   205e4:	07c0006f          	j	20660 <uart_putchar+0x17c>
   205e8:	fef44783          	lbu	a5,-17(s0)
   205ec:	00879793          	slli	a5,a5,0x8
   205f0:	00078713          	mv	a4,a5
   205f4:	100007b7          	lui	a5,0x10000
   205f8:	10078793          	addi	a5,a5,256 # 10000100 <__global_pointer$+0xffd8694>
   205fc:	00f707b3          	add	a5,a4,a5
   20600:	0147a783          	lw	a5,20(a5)
   20604:	0027f713          	andi	a4,a5,2
   20608:	00200793          	li	a5,2
   2060c:	00f71a63          	bne	a4,a5,20620 <uart_putchar+0x13c>
   20610:	fe842783          	lw	a5,-24(s0)
   20614:	ffe00713          	li	a4,-2
   20618:	00e78023          	sb	a4,0(a5)
   2061c:	0440006f          	j	20660 <uart_putchar+0x17c>
   20620:	fef44783          	lbu	a5,-17(s0)
   20624:	00879793          	slli	a5,a5,0x8
   20628:	00078713          	mv	a4,a5
   2062c:	100007b7          	lui	a5,0x10000
   20630:	10078793          	addi	a5,a5,256 # 10000100 <__global_pointer$+0xffd8694>
   20634:	00f707b3          	add	a5,a4,a5
   20638:	0147a783          	lw	a5,20(a5)
   2063c:	0087f713          	andi	a4,a5,8
   20640:	00800793          	li	a5,8
   20644:	00f71a63          	bne	a4,a5,20658 <uart_putchar+0x174>
   20648:	fe842783          	lw	a5,-24(s0)
   2064c:	ffd00713          	li	a4,-3
   20650:	00e78023          	sb	a4,0(a5)
   20654:	00c0006f          	j	20660 <uart_putchar+0x17c>
   20658:	fe842783          	lw	a5,-24(s0)
   2065c:	00078023          	sb	zero,0(a5)
   20660:	00000013          	nop
   20664:	01c12403          	lw	s0,28(sp)
   20668:	02010113          	addi	sp,sp,32
   2066c:	00008067          	ret

00020670 <uart_getchar>:
   20670:	fd010113          	addi	sp,sp,-48
   20674:	02812623          	sw	s0,44(sp)
   20678:	03010413          	addi	s0,sp,48
   2067c:	00050793          	mv	a5,a0
   20680:	fcb42c23          	sw	a1,-40(s0)
   20684:	fcf40fa3          	sb	a5,-33(s0)
   20688:	00000013          	nop
   2068c:	fdf44783          	lbu	a5,-33(s0)
   20690:	00879793          	slli	a5,a5,0x8
   20694:	00078713          	mv	a4,a5
   20698:	100007b7          	lui	a5,0x10000
   2069c:	10078793          	addi	a5,a5,256 # 10000100 <__global_pointer$+0xffd8694>
   206a0:	00f707b3          	add	a5,a4,a5
   206a4:	0147a783          	lw	a5,20(a5)
   206a8:	0017f713          	andi	a4,a5,1
   206ac:	00100793          	li	a5,1
   206b0:	fcf71ee3          	bne	a4,a5,2068c <uart_getchar+0x1c>
   206b4:	fdf44783          	lbu	a5,-33(s0)
   206b8:	00879793          	slli	a5,a5,0x8
   206bc:	00078713          	mv	a4,a5
   206c0:	100007b7          	lui	a5,0x10000
   206c4:	10078793          	addi	a5,a5,256 # 10000100 <__global_pointer$+0xffd8694>
   206c8:	00f707b3          	add	a5,a4,a5
   206cc:	0007a783          	lw	a5,0(a5)
   206d0:	fef407a3          	sb	a5,-17(s0)
   206d4:	fdf44783          	lbu	a5,-33(s0)
   206d8:	00879793          	slli	a5,a5,0x8
   206dc:	00078713          	mv	a4,a5
   206e0:	100007b7          	lui	a5,0x10000
   206e4:	10078793          	addi	a5,a5,256 # 10000100 <__global_pointer$+0xffd8694>
   206e8:	00f707b3          	add	a5,a4,a5
   206ec:	0147a783          	lw	a5,20(a5)
   206f0:	0047f713          	andi	a4,a5,4
   206f4:	00400793          	li	a5,4
   206f8:	00f71a63          	bne	a4,a5,2070c <uart_getchar+0x9c>
   206fc:	fd842783          	lw	a5,-40(s0)
   20700:	fff00713          	li	a4,-1
   20704:	00e78023          	sb	a4,0(a5)
   20708:	07c0006f          	j	20784 <uart_getchar+0x114>
   2070c:	fdf44783          	lbu	a5,-33(s0)
   20710:	00879793          	slli	a5,a5,0x8
   20714:	00078713          	mv	a4,a5
   20718:	100007b7          	lui	a5,0x10000
   2071c:	10078793          	addi	a5,a5,256 # 10000100 <__global_pointer$+0xffd8694>
   20720:	00f707b3          	add	a5,a4,a5
   20724:	0147a783          	lw	a5,20(a5)
   20728:	0027f713          	andi	a4,a5,2
   2072c:	00200793          	li	a5,2
   20730:	00f71a63          	bne	a4,a5,20744 <uart_getchar+0xd4>
   20734:	fd842783          	lw	a5,-40(s0)
   20738:	ffe00713          	li	a4,-2
   2073c:	00e78023          	sb	a4,0(a5)
   20740:	0440006f          	j	20784 <uart_getchar+0x114>
   20744:	fdf44783          	lbu	a5,-33(s0)
   20748:	00879793          	slli	a5,a5,0x8
   2074c:	00078713          	mv	a4,a5
   20750:	100007b7          	lui	a5,0x10000
   20754:	10078793          	addi	a5,a5,256 # 10000100 <__global_pointer$+0xffd8694>
   20758:	00f707b3          	add	a5,a4,a5
   2075c:	0147a783          	lw	a5,20(a5)
   20760:	0087f713          	andi	a4,a5,8
   20764:	00800793          	li	a5,8
   20768:	00f71a63          	bne	a4,a5,2077c <uart_getchar+0x10c>
   2076c:	fd842783          	lw	a5,-40(s0)
   20770:	ffd00713          	li	a4,-3
   20774:	00e78023          	sb	a4,0(a5)
   20778:	00c0006f          	j	20784 <uart_getchar+0x114>
   2077c:	fd842783          	lw	a5,-40(s0)
   20780:	00078023          	sb	zero,0(a5)
   20784:	fef44783          	lbu	a5,-17(s0)
   20788:	00078513          	mv	a0,a5
   2078c:	02c12403          	lw	s0,44(sp)
   20790:	03010113          	addi	sp,sp,48
   20794:	00008067          	ret

00020798 <uart_getchar_async>:
   20798:	fd010113          	addi	sp,sp,-48
   2079c:	02112623          	sw	ra,44(sp)
   207a0:	02812423          	sw	s0,40(sp)
   207a4:	03010413          	addi	s0,sp,48
   207a8:	00050793          	mv	a5,a0
   207ac:	fcb42c23          	sw	a1,-40(s0)
   207b0:	fcf40fa3          	sb	a5,-33(s0)
   207b4:	fe042623          	sw	zero,-20(s0)
   207b8:	fe042423          	sw	zero,-24(s0)
   207bc:	359000ef          	jal	ra,21314 <get_time>
   207c0:	fea42623          	sw	a0,-20(s0)
   207c4:	fec42503          	lw	a0,-20(s0)
   207c8:	588050ef          	jal	ra,25d50 <__floatunsidf>
   207cc:	00050713          	mv	a4,a0
   207d0:	00058793          	mv	a5,a1
   207d4:	00006697          	auipc	a3,0x6
   207d8:	64468693          	addi	a3,a3,1604 # 26e18 <main+0x458>
   207dc:	0006a603          	lw	a2,0(a3)
   207e0:	0046a683          	lw	a3,4(a3)
   207e4:	00070513          	mv	a0,a4
   207e8:	00078593          	mv	a1,a5
   207ec:	5a0030ef          	jal	ra,23d8c <__adddf3>
   207f0:	00050713          	mv	a4,a0
   207f4:	00058793          	mv	a5,a1
   207f8:	00070513          	mv	a0,a4
   207fc:	00078593          	mv	a1,a5
   20800:	4d4050ef          	jal	ra,25cd4 <__fixunsdfsi>
   20804:	00050793          	mv	a5,a0
   20808:	fef42423          	sw	a5,-24(s0)
   2080c:	0180006f          	j	20824 <uart_getchar_async+0x8c>
   20810:	305000ef          	jal	ra,21314 <get_time>
   20814:	fea42623          	sw	a0,-20(s0)
   20818:	fec42703          	lw	a4,-20(s0)
   2081c:	fe842783          	lw	a5,-24(s0)
   20820:	02e7e863          	bltu	a5,a4,20850 <uart_getchar_async+0xb8>
   20824:	fdf44783          	lbu	a5,-33(s0)
   20828:	00879793          	slli	a5,a5,0x8
   2082c:	00078713          	mv	a4,a5
   20830:	100007b7          	lui	a5,0x10000
   20834:	10078793          	addi	a5,a5,256 # 10000100 <__global_pointer$+0xffd8694>
   20838:	00f707b3          	add	a5,a4,a5
   2083c:	0147a783          	lw	a5,20(a5)
   20840:	0017f713          	andi	a4,a5,1
   20844:	00100793          	li	a5,1
   20848:	fcf714e3          	bne	a4,a5,20810 <uart_getchar_async+0x78>
   2084c:	0080006f          	j	20854 <uart_getchar_async+0xbc>
   20850:	00000013          	nop
   20854:	fdf44783          	lbu	a5,-33(s0)
   20858:	00879793          	slli	a5,a5,0x8
   2085c:	00078713          	mv	a4,a5
   20860:	100007b7          	lui	a5,0x10000
   20864:	10078793          	addi	a5,a5,256 # 10000100 <__global_pointer$+0xffd8694>
   20868:	00f707b3          	add	a5,a4,a5
   2086c:	0007a783          	lw	a5,0(a5)
   20870:	fef403a3          	sb	a5,-25(s0)
   20874:	fdf44783          	lbu	a5,-33(s0)
   20878:	00879793          	slli	a5,a5,0x8
   2087c:	00078713          	mv	a4,a5
   20880:	100007b7          	lui	a5,0x10000
   20884:	10078793          	addi	a5,a5,256 # 10000100 <__global_pointer$+0xffd8694>
   20888:	00f707b3          	add	a5,a4,a5
   2088c:	0147a783          	lw	a5,20(a5)
   20890:	0047f713          	andi	a4,a5,4
   20894:	00400793          	li	a5,4
   20898:	00f71a63          	bne	a4,a5,208ac <uart_getchar_async+0x114>
   2089c:	fd842783          	lw	a5,-40(s0)
   208a0:	fff00713          	li	a4,-1
   208a4:	00e78023          	sb	a4,0(a5)
   208a8:	07c0006f          	j	20924 <uart_getchar_async+0x18c>
   208ac:	fdf44783          	lbu	a5,-33(s0)
   208b0:	00879793          	slli	a5,a5,0x8
   208b4:	00078713          	mv	a4,a5
   208b8:	100007b7          	lui	a5,0x10000
   208bc:	10078793          	addi	a5,a5,256 # 10000100 <__global_pointer$+0xffd8694>
   208c0:	00f707b3          	add	a5,a4,a5
   208c4:	0147a783          	lw	a5,20(a5)
   208c8:	0027f713          	andi	a4,a5,2
   208cc:	00200793          	li	a5,2
   208d0:	00f71a63          	bne	a4,a5,208e4 <uart_getchar_async+0x14c>
   208d4:	fd842783          	lw	a5,-40(s0)
   208d8:	ffe00713          	li	a4,-2
   208dc:	00e78023          	sb	a4,0(a5)
   208e0:	0440006f          	j	20924 <uart_getchar_async+0x18c>
   208e4:	fdf44783          	lbu	a5,-33(s0)
   208e8:	00879793          	slli	a5,a5,0x8
   208ec:	00078713          	mv	a4,a5
   208f0:	100007b7          	lui	a5,0x10000
   208f4:	10078793          	addi	a5,a5,256 # 10000100 <__global_pointer$+0xffd8694>
   208f8:	00f707b3          	add	a5,a4,a5
   208fc:	0147a783          	lw	a5,20(a5)
   20900:	0087f713          	andi	a4,a5,8
   20904:	00800793          	li	a5,8
   20908:	00f71a63          	bne	a4,a5,2091c <uart_getchar_async+0x184>
   2090c:	fd842783          	lw	a5,-40(s0)
   20910:	ffd00713          	li	a4,-3
   20914:	00e78023          	sb	a4,0(a5)
   20918:	00c0006f          	j	20924 <uart_getchar_async+0x18c>
   2091c:	fd842783          	lw	a5,-40(s0)
   20920:	00078023          	sb	zero,0(a5)
   20924:	fe744783          	lbu	a5,-25(s0)
   20928:	00078513          	mv	a0,a5
   2092c:	02c12083          	lw	ra,44(sp)
   20930:	02812403          	lw	s0,40(sp)
   20934:	03010113          	addi	sp,sp,48
   20938:	00008067          	ret

0002093c <uart_intr_enable>:
   2093c:	fe010113          	addi	sp,sp,-32
   20940:	00812e23          	sw	s0,28(sp)
   20944:	02010413          	addi	s0,sp,32
   20948:	00050793          	mv	a5,a0
   2094c:	00058693          	mv	a3,a1
   20950:	00060713          	mv	a4,a2
   20954:	fef407a3          	sb	a5,-17(s0)
   20958:	00068793          	mv	a5,a3
   2095c:	fef40723          	sb	a5,-18(s0)
   20960:	00070793          	mv	a5,a4
   20964:	fef406a3          	sb	a5,-19(s0)
   20968:	fee44783          	lbu	a5,-18(s0)
   2096c:	00179713          	slli	a4,a5,0x1
   20970:	fed44783          	lbu	a5,-19(s0)
   20974:	00f76733          	or	a4,a4,a5
   20978:	fef44783          	lbu	a5,-17(s0)
   2097c:	00879793          	slli	a5,a5,0x8
   20980:	00078693          	mv	a3,a5
   20984:	100007b7          	lui	a5,0x10000
   20988:	10078793          	addi	a5,a5,256 # 10000100 <__global_pointer$+0xffd8694>
   2098c:	00f687b3          	add	a5,a3,a5
   20990:	00e7a223          	sw	a4,4(a5)
   20994:	0ff0000f          	fence
   20998:	00000013          	nop
   2099c:	01c12403          	lw	s0,28(sp)
   209a0:	02010113          	addi	sp,sp,32
   209a4:	00008067          	ret

000209a8 <spiWrite>:
   209a8:	fe010113          	addi	sp,sp,-32
   209ac:	00812e23          	sw	s0,28(sp)
   209b0:	02010413          	addi	s0,sp,32
   209b4:	00050793          	mv	a5,a0
   209b8:	00060713          	mv	a4,a2
   209bc:	fed42423          	sw	a3,-24(s0)
   209c0:	fef407a3          	sb	a5,-17(s0)
   209c4:	00058793          	mv	a5,a1
   209c8:	fef40723          	sb	a5,-18(s0)
   209cc:	00070793          	mv	a5,a4
   209d0:	fef406a3          	sb	a5,-19(s0)
   209d4:	00000013          	nop
   209d8:	100007b7          	lui	a5,0x10000
   209dc:	60078793          	addi	a5,a5,1536 # 10000600 <__global_pointer$+0xffd8b94>
   209e0:	0087a783          	lw	a5,8(a5)
   209e4:	0207f793          	andi	a5,a5,32
   209e8:	fe0788e3          	beqz	a5,209d8 <spiWrite+0x30>
   209ec:	fed44783          	lbu	a5,-19(s0)
   209f0:	01079713          	slli	a4,a5,0x10
   209f4:	fee44783          	lbu	a5,-18(s0)
   209f8:	00879793          	slli	a5,a5,0x8
   209fc:	00f766b3          	or	a3,a4,a5
   20a00:	fef44703          	lbu	a4,-17(s0)
   20a04:	100007b7          	lui	a5,0x10000
   20a08:	60078793          	addi	a5,a5,1536 # 10000600 <__global_pointer$+0xffd8b94>
   20a0c:	00e6e733          	or	a4,a3,a4
   20a10:	00e7a023          	sw	a4,0(a5)
   20a14:	100007b7          	lui	a5,0x10000
   20a18:	60078793          	addi	a5,a5,1536 # 10000600 <__global_pointer$+0xffd8b94>
   20a1c:	fe842703          	lw	a4,-24(s0)
   20a20:	00e7a223          	sw	a4,4(a5)
   20a24:	00000013          	nop
   20a28:	01c12403          	lw	s0,28(sp)
   20a2c:	02010113          	addi	sp,sp,32
   20a30:	00008067          	ret

00020a34 <spiRead>:
   20a34:	fd010113          	addi	sp,sp,-48
   20a38:	02812623          	sw	s0,44(sp)
   20a3c:	03010413          	addi	s0,sp,48
   20a40:	00050793          	mv	a5,a0
   20a44:	00058693          	mv	a3,a1
   20a48:	00060713          	mv	a4,a2
   20a4c:	fcf40fa3          	sb	a5,-33(s0)
   20a50:	00068793          	mv	a5,a3
   20a54:	fcf40f23          	sb	a5,-34(s0)
   20a58:	00070793          	mv	a5,a4
   20a5c:	fcf40ea3          	sb	a5,-35(s0)
   20a60:	fdd44783          	lbu	a5,-35(s0)
   20a64:	01079713          	slli	a4,a5,0x10
   20a68:	fde44783          	lbu	a5,-34(s0)
   20a6c:	00879793          	slli	a5,a5,0x8
   20a70:	00f766b3          	or	a3,a4,a5
   20a74:	fdf44703          	lbu	a4,-33(s0)
   20a78:	100007b7          	lui	a5,0x10000
   20a7c:	60078793          	addi	a5,a5,1536 # 10000600 <__global_pointer$+0xffd8b94>
   20a80:	00e6e733          	or	a4,a3,a4
   20a84:	00e7a023          	sw	a4,0(a5)
   20a88:	00000013          	nop
   20a8c:	100007b7          	lui	a5,0x10000
   20a90:	60078793          	addi	a5,a5,1536 # 10000600 <__global_pointer$+0xffd8b94>
   20a94:	0087a783          	lw	a5,8(a5)
   20a98:	0407f793          	andi	a5,a5,64
   20a9c:	fe0788e3          	beqz	a5,20a8c <spiRead+0x58>
   20aa0:	100007b7          	lui	a5,0x10000
   20aa4:	60078793          	addi	a5,a5,1536 # 10000600 <__global_pointer$+0xffd8b94>
   20aa8:	00c7a783          	lw	a5,12(a5)
   20aac:	fef42623          	sw	a5,-20(s0)
   20ab0:	fec42783          	lw	a5,-20(s0)
   20ab4:	00078513          	mv	a0,a5
   20ab8:	02c12403          	lw	s0,44(sp)
   20abc:	03010113          	addi	sp,sp,48
   20ac0:	00008067          	ret

00020ac4 <handle_trap>:
   20ac4:	fd010113          	addi	sp,sp,-48
   20ac8:	02112623          	sw	ra,44(sp)
   20acc:	02812423          	sw	s0,40(sp)
   20ad0:	03010413          	addi	s0,sp,48
   20ad4:	fca42e23          	sw	a0,-36(s0)
   20ad8:	fcb42c23          	sw	a1,-40(s0)
   20adc:	fcc42a23          	sw	a2,-44(s0)
   20ae0:	00006517          	auipc	a0,0x6
   20ae4:	34050513          	addi	a0,a0,832 # 26e20 <main+0x460>
   20ae8:	0d8020ef          	jal	ra,22bc0 <printf>
   20aec:	fd842583          	lw	a1,-40(s0)
   20af0:	00006517          	auipc	a0,0x6
   20af4:	33c50513          	addi	a0,a0,828 # 26e2c <main+0x46c>
   20af8:	0c8020ef          	jal	ra,22bc0 <printf>
   20afc:	fdc42583          	lw	a1,-36(s0)
   20b00:	00006517          	auipc	a0,0x6
   20b04:	33850513          	addi	a0,a0,824 # 26e38 <main+0x478>
   20b08:	0b8020ef          	jal	ra,22bc0 <printf>
   20b0c:	343027f3          	csrr	a5,mtval
   20b10:	fef42423          	sw	a5,-24(s0)
   20b14:	fe842783          	lw	a5,-24(s0)
   20b18:	00078593          	mv	a1,a5
   20b1c:	00006517          	auipc	a0,0x6
   20b20:	32c50513          	addi	a0,a0,812 # 26e48 <main+0x488>
   20b24:	09c020ef          	jal	ra,22bc0 <printf>
   20b28:	fe042623          	sw	zero,-20(s0)
   20b2c:	0380006f          	j	20b64 <handle_trap+0xa0>
   20b30:	fec42783          	lw	a5,-20(s0)
   20b34:	00279793          	slli	a5,a5,0x2
   20b38:	fd442703          	lw	a4,-44(s0)
   20b3c:	00f707b3          	add	a5,a4,a5
   20b40:	0007a783          	lw	a5,0(a5)
   20b44:	00078613          	mv	a2,a5
   20b48:	fec42583          	lw	a1,-20(s0)
   20b4c:	00006517          	auipc	a0,0x6
   20b50:	31050513          	addi	a0,a0,784 # 26e5c <main+0x49c>
   20b54:	06c020ef          	jal	ra,22bc0 <printf>
   20b58:	fec42783          	lw	a5,-20(s0)
   20b5c:	00178793          	addi	a5,a5,1
   20b60:	fef42623          	sw	a5,-20(s0)
   20b64:	fec42703          	lw	a4,-20(s0)
   20b68:	01f00793          	li	a5,31
   20b6c:	fce7d2e3          	bge	a5,a4,20b30 <handle_trap+0x6c>
   20b70:	0000006f          	j	20b70 <handle_trap+0xac>

00020b74 <exit>:
   20b74:	fe010113          	addi	sp,sp,-32
   20b78:	00112e23          	sw	ra,28(sp)
   20b7c:	00812c23          	sw	s0,24(sp)
   20b80:	02010413          	addi	s0,sp,32
   20b84:	fea42623          	sw	a0,-20(s0)
   20b88:	00006517          	auipc	a0,0x6
   20b8c:	2e450513          	addi	a0,a0,740 # 26e6c <main+0x4ac>
   20b90:	030020ef          	jal	ra,22bc0 <printf>
   20b94:	0000006f          	j	20b94 <exit+0x20>

00020b98 <abort>:
   20b98:	ff010113          	addi	sp,sp,-16
   20b9c:	00112623          	sw	ra,12(sp)
   20ba0:	00812423          	sw	s0,8(sp)
   20ba4:	01010413          	addi	s0,sp,16
   20ba8:	00006517          	auipc	a0,0x6
   20bac:	2d050513          	addi	a0,a0,720 # 26e78 <main+0x4b8>
   20bb0:	010020ef          	jal	ra,22bc0 <printf>
   20bb4:	00000013          	nop
   20bb8:	00c12083          	lw	ra,12(sp)
   20bbc:	00812403          	lw	s0,8(sp)
   20bc0:	01010113          	addi	sp,sp,16
   20bc4:	00008067          	ret

00020bc8 <printstr>:
   20bc8:	fe010113          	addi	sp,sp,-32
   20bcc:	00112e23          	sw	ra,28(sp)
   20bd0:	00812c23          	sw	s0,24(sp)
   20bd4:	02010413          	addi	s0,sp,32
   20bd8:	fea42623          	sw	a0,-20(s0)
   20bdc:	00006517          	auipc	a0,0x6
   20be0:	29050513          	addi	a0,a0,656 # 26e6c <main+0x4ac>
   20be4:	7dd010ef          	jal	ra,22bc0 <printf>
   20be8:	00000013          	nop
   20bec:	01c12083          	lw	ra,28(sp)
   20bf0:	01812403          	lw	s0,24(sp)
   20bf4:	02010113          	addi	sp,sp,32
   20bf8:	00008067          	ret

00020bfc <thread_entry>:
   20bfc:	fe010113          	addi	sp,sp,-32
   20c00:	00812e23          	sw	s0,28(sp)
   20c04:	02010413          	addi	s0,sp,32
   20c08:	fea42623          	sw	a0,-20(s0)
   20c0c:	feb42423          	sw	a1,-24(s0)
   20c10:	fec42783          	lw	a5,-20(s0)
   20c14:	fe079ee3          	bnez	a5,20c10 <thread_entry+0x14>
   20c18:	00000013          	nop
   20c1c:	00000013          	nop
   20c20:	01c12403          	lw	s0,28(sp)
   20c24:	02010113          	addi	sp,sp,32
   20c28:	00008067          	ret
   20c2c:	fe010113          	addi	sp,sp,-32
   20c30:	00112e23          	sw	ra,28(sp)
   20c34:	00812c23          	sw	s0,24(sp)
   20c38:	02010413          	addi	s0,sp,32
   20c3c:	fea42623          	sw	a0,-20(s0)
   20c40:	feb42423          	sw	a1,-24(s0)
   20c44:	00006517          	auipc	a0,0x6
   20c48:	24050513          	addi	a0,a0,576 # 26e84 <main+0x4c4>
   20c4c:	f7dff0ef          	jal	ra,20bc8 <printstr>
   20c50:	fff00793          	li	a5,-1
   20c54:	00078513          	mv	a0,a5
   20c58:	01c12083          	lw	ra,28(sp)
   20c5c:	01812403          	lw	s0,24(sp)
   20c60:	02010113          	addi	sp,sp,32
   20c64:	00008067          	ret

00020c68 <init_tls>:
   20c68:	fe010113          	addi	sp,sp,-32
   20c6c:	00112e23          	sw	ra,28(sp)
   20c70:	00812c23          	sw	s0,24(sp)
   20c74:	02010413          	addi	s0,sp,32
   20c78:	00006797          	auipc	a5,0x6
   20c7c:	5e07a783          	lw	a5,1504(a5) # 27258 <_GLOBAL_OFFSET_TABLE_+0x4>
   20c80:	004787b3          	add	a5,a5,tp
   20c84:	00078713          	mv	a4,a5
   20c88:	00006797          	auipc	a5,0x6
   20c8c:	5d47a783          	lw	a5,1492(a5) # 2725c <_GLOBAL_OFFSET_TABLE_+0x8>
   20c90:	004787b3          	add	a5,a5,tp
   20c94:	40f707b3          	sub	a5,a4,a5
   20c98:	fef42623          	sw	a5,-20(s0)
   20c9c:	00020793          	mv	a5,tp
   20ca0:	fec42603          	lw	a2,-20(s0)
   20ca4:	85c18593          	addi	a1,gp,-1956 # 272c8 <_end>
   20ca8:	00078513          	mv	a0,a5
   20cac:	529020ef          	jal	ra,239d4 <memcpy>
   20cb0:	00006797          	auipc	a5,0x6
   20cb4:	5b07a783          	lw	a5,1456(a5) # 27260 <_GLOBAL_OFFSET_TABLE_+0xc>
   20cb8:	004787b3          	add	a5,a5,tp
   20cbc:	00078713          	mv	a4,a5
   20cc0:	00006797          	auipc	a5,0x6
   20cc4:	5987a783          	lw	a5,1432(a5) # 27258 <_GLOBAL_OFFSET_TABLE_+0x4>
   20cc8:	004787b3          	add	a5,a5,tp
   20ccc:	40f707b3          	sub	a5,a4,a5
   20cd0:	fef42423          	sw	a5,-24(s0)
   20cd4:	00020713          	mv	a4,tp
   20cd8:	fec42783          	lw	a5,-20(s0)
   20cdc:	00f707b3          	add	a5,a4,a5
   20ce0:	fe842603          	lw	a2,-24(s0)
   20ce4:	00000593          	li	a1,0
   20ce8:	00078513          	mv	a0,a5
   20cec:	605020ef          	jal	ra,23af0 <memset>
   20cf0:	00000013          	nop
   20cf4:	01c12083          	lw	ra,28(sp)
   20cf8:	01812403          	lw	s0,24(sp)
   20cfc:	02010113          	addi	sp,sp,32
   20d00:	00008067          	ret

00020d04 <_init>:
   20d04:	fd010113          	addi	sp,sp,-48
   20d08:	02112623          	sw	ra,44(sp)
   20d0c:	02812423          	sw	s0,40(sp)
   20d10:	03010413          	addi	s0,sp,48
   20d14:	fca42e23          	sw	a0,-36(s0)
   20d18:	fcb42c23          	sw	a1,-40(s0)
   20d1c:	f4dff0ef          	jal	ra,20c68 <init_tls>
   20d20:	fd842583          	lw	a1,-40(s0)
   20d24:	fdc42503          	lw	a0,-36(s0)
   20d28:	ed5ff0ef          	jal	ra,20bfc <thread_entry>
   20d2c:	00000593          	li	a1,0
   20d30:	00000513          	li	a0,0
   20d34:	48d050ef          	jal	ra,269c0 <main>
   20d38:	fea42623          	sw	a0,-20(s0)
   20d3c:	00000513          	li	a0,0
   20d40:	e35ff0ef          	jal	ra,20b74 <exit>

00020d44 <putchar>:
   20d44:	fe010113          	addi	sp,sp,-32
   20d48:	00112e23          	sw	ra,28(sp)
   20d4c:	00812c23          	sw	s0,24(sp)
   20d50:	02010413          	addi	s0,sp,32
   20d54:	fea42623          	sw	a0,-20(s0)
   20d58:	fec42783          	lw	a5,-20(s0)
   20d5c:	0ff7f793          	andi	a5,a5,255
   20d60:	00078513          	mv	a0,a5
   20d64:	66c020ef          	jal	ra,233d0 <tx_uart>
   20d68:	fec42703          	lw	a4,-20(s0)
   20d6c:	00a00793          	li	a5,10
   20d70:	00f71663          	bne	a4,a5,20d7c <putchar+0x38>
   20d74:	00d00513          	li	a0,13
   20d78:	658020ef          	jal	ra,233d0 <tx_uart>
   20d7c:	00000793          	li	a5,0
   20d80:	00078513          	mv	a0,a5
   20d84:	01c12083          	lw	ra,28(sp)
   20d88:	01812403          	lw	s0,24(sp)
   20d8c:	02010113          	addi	sp,sp,32
   20d90:	00008067          	ret

00020d94 <printhex>:
   20d94:	fc010113          	addi	sp,sp,-64
   20d98:	02112e23          	sw	ra,60(sp)
   20d9c:	02812c23          	sw	s0,56(sp)
   20da0:	04010413          	addi	s0,sp,64
   20da4:	fca42623          	sw	a0,-52(s0)
   20da8:	fe042623          	sw	zero,-20(s0)
   20dac:	0680006f          	j	20e14 <printhex+0x80>
   20db0:	fcc42783          	lw	a5,-52(s0)
   20db4:	0ff7f793          	andi	a5,a5,255
   20db8:	00f7f793          	andi	a5,a5,15
   20dbc:	0ff7f713          	andi	a4,a5,255
   20dc0:	fcc42783          	lw	a5,-52(s0)
   20dc4:	00f7f693          	andi	a3,a5,15
   20dc8:	00900793          	li	a5,9
   20dcc:	00d7e663          	bltu	a5,a3,20dd8 <printhex+0x44>
   20dd0:	03000793          	li	a5,48
   20dd4:	0080006f          	j	20ddc <printhex+0x48>
   20dd8:	05700793          	li	a5,87
   20ddc:	00f00613          	li	a2,15
   20de0:	fec42683          	lw	a3,-20(s0)
   20de4:	40d606b3          	sub	a3,a2,a3
   20de8:	00e787b3          	add	a5,a5,a4
   20dec:	0ff7f713          	andi	a4,a5,255
   20df0:	ff040793          	addi	a5,s0,-16
   20df4:	00d787b3          	add	a5,a5,a3
   20df8:	fee78423          	sb	a4,-24(a5)
   20dfc:	fcc42783          	lw	a5,-52(s0)
   20e00:	0047d793          	srli	a5,a5,0x4
   20e04:	fcf42623          	sw	a5,-52(s0)
   20e08:	fec42783          	lw	a5,-20(s0)
   20e0c:	00178793          	addi	a5,a5,1
   20e10:	fef42623          	sw	a5,-20(s0)
   20e14:	fec42703          	lw	a4,-20(s0)
   20e18:	00f00793          	li	a5,15
   20e1c:	f8e7dae3          	bge	a5,a4,20db0 <printhex+0x1c>
   20e20:	fe040423          	sb	zero,-24(s0)
   20e24:	fd840793          	addi	a5,s0,-40
   20e28:	00078513          	mv	a0,a5
   20e2c:	d9dff0ef          	jal	ra,20bc8 <printstr>
   20e30:	00000013          	nop
   20e34:	03c12083          	lw	ra,60(sp)
   20e38:	03812403          	lw	s0,56(sp)
   20e3c:	04010113          	addi	sp,sp,64
   20e40:	00008067          	ret

00020e44 <getuint>:
   20e44:	fe010113          	addi	sp,sp,-32
   20e48:	00812e23          	sw	s0,28(sp)
   20e4c:	02010413          	addi	s0,sp,32
   20e50:	fea42623          	sw	a0,-20(s0)
   20e54:	feb42423          	sw	a1,-24(s0)
   20e58:	fe842603          	lw	a2,-24(s0)
   20e5c:	00100693          	li	a3,1
   20e60:	02c6d663          	bge	a3,a2,20e8c <getuint+0x48>
   20e64:	fec42783          	lw	a5,-20(s0)
   20e68:	0007a783          	lw	a5,0(a5)
   20e6c:	00778793          	addi	a5,a5,7
   20e70:	ff87f793          	andi	a5,a5,-8
   20e74:	00878693          	addi	a3,a5,8
   20e78:	fec42703          	lw	a4,-20(s0)
   20e7c:	00d72023          	sw	a3,0(a4)
   20e80:	0007a703          	lw	a4,0(a5)
   20e84:	0047a783          	lw	a5,4(a5)
   20e88:	0500006f          	j	20ed8 <getuint+0x94>
   20e8c:	fe842683          	lw	a3,-24(s0)
   20e90:	02068463          	beqz	a3,20eb8 <getuint+0x74>
   20e94:	fec42683          	lw	a3,-20(s0)
   20e98:	0006a683          	lw	a3,0(a3)
   20e9c:	00468593          	addi	a1,a3,4
   20ea0:	fec42603          	lw	a2,-20(s0)
   20ea4:	00b62023          	sw	a1,0(a2)
   20ea8:	0006a683          	lw	a3,0(a3)
   20eac:	00068713          	mv	a4,a3
   20eb0:	00000793          	li	a5,0
   20eb4:	0240006f          	j	20ed8 <getuint+0x94>
   20eb8:	fec42683          	lw	a3,-20(s0)
   20ebc:	0006a683          	lw	a3,0(a3)
   20ec0:	00468593          	addi	a1,a3,4
   20ec4:	fec42603          	lw	a2,-20(s0)
   20ec8:	00b62023          	sw	a1,0(a2)
   20ecc:	0006a683          	lw	a3,0(a3)
   20ed0:	00068713          	mv	a4,a3
   20ed4:	00000793          	li	a5,0
   20ed8:	00070513          	mv	a0,a4
   20edc:	00078593          	mv	a1,a5
   20ee0:	01c12403          	lw	s0,28(sp)
   20ee4:	02010113          	addi	sp,sp,32
   20ee8:	00008067          	ret

00020eec <getint>:
   20eec:	fe010113          	addi	sp,sp,-32
   20ef0:	00812e23          	sw	s0,28(sp)
   20ef4:	02010413          	addi	s0,sp,32
   20ef8:	fea42623          	sw	a0,-20(s0)
   20efc:	feb42423          	sw	a1,-24(s0)
   20f00:	fe842603          	lw	a2,-24(s0)
   20f04:	00100693          	li	a3,1
   20f08:	02c6d663          	bge	a3,a2,20f34 <getint+0x48>
   20f0c:	fec42783          	lw	a5,-20(s0)
   20f10:	0007a783          	lw	a5,0(a5)
   20f14:	00778793          	addi	a5,a5,7
   20f18:	ff87f793          	andi	a5,a5,-8
   20f1c:	00878693          	addi	a3,a5,8
   20f20:	fec42703          	lw	a4,-20(s0)
   20f24:	00d72023          	sw	a3,0(a4)
   20f28:	0007a703          	lw	a4,0(a5)
   20f2c:	0047a783          	lw	a5,4(a5)
   20f30:	0580006f          	j	20f88 <getint+0x9c>
   20f34:	fe842683          	lw	a3,-24(s0)
   20f38:	02068663          	beqz	a3,20f64 <getint+0x78>
   20f3c:	fec42683          	lw	a3,-20(s0)
   20f40:	0006a683          	lw	a3,0(a3)
   20f44:	00468593          	addi	a1,a3,4
   20f48:	fec42603          	lw	a2,-20(s0)
   20f4c:	00b62023          	sw	a1,0(a2)
   20f50:	0006a683          	lw	a3,0(a3)
   20f54:	00068713          	mv	a4,a3
   20f58:	41f6d693          	srai	a3,a3,0x1f
   20f5c:	00068793          	mv	a5,a3
   20f60:	0280006f          	j	20f88 <getint+0x9c>
   20f64:	fec42683          	lw	a3,-20(s0)
   20f68:	0006a683          	lw	a3,0(a3)
   20f6c:	00468593          	addi	a1,a3,4
   20f70:	fec42603          	lw	a2,-20(s0)
   20f74:	00b62023          	sw	a1,0(a2)
   20f78:	0006a683          	lw	a3,0(a3)
   20f7c:	00068713          	mv	a4,a3
   20f80:	41f6d693          	srai	a3,a3,0x1f
   20f84:	00068793          	mv	a5,a3
   20f88:	00070513          	mv	a0,a4
   20f8c:	00078593          	mv	a1,a5
   20f90:	01c12403          	lw	s0,28(sp)
   20f94:	02010113          	addi	sp,sp,32
   20f98:	00008067          	ret

00020f9c <skip_atoi>:
   20f9c:	fd010113          	addi	sp,sp,-48
   20fa0:	02812623          	sw	s0,44(sp)
   20fa4:	03010413          	addi	s0,sp,48
   20fa8:	fca42e23          	sw	a0,-36(s0)
   20fac:	fe042623          	sw	zero,-20(s0)
   20fb0:	0400006f          	j	20ff0 <skip_atoi+0x54>
   20fb4:	fec42703          	lw	a4,-20(s0)
   20fb8:	00070793          	mv	a5,a4
   20fbc:	00279793          	slli	a5,a5,0x2
   20fc0:	00e787b3          	add	a5,a5,a4
   20fc4:	00179793          	slli	a5,a5,0x1
   20fc8:	00078613          	mv	a2,a5
   20fcc:	fdc42783          	lw	a5,-36(s0)
   20fd0:	0007a783          	lw	a5,0(a5)
   20fd4:	00178693          	addi	a3,a5,1
   20fd8:	fdc42703          	lw	a4,-36(s0)
   20fdc:	00d72023          	sw	a3,0(a4)
   20fe0:	0007c783          	lbu	a5,0(a5)
   20fe4:	00f607b3          	add	a5,a2,a5
   20fe8:	fd078793          	addi	a5,a5,-48
   20fec:	fef42623          	sw	a5,-20(s0)
   20ff0:	fdc42783          	lw	a5,-36(s0)
   20ff4:	0007a783          	lw	a5,0(a5)
   20ff8:	0007c703          	lbu	a4,0(a5)
   20ffc:	02f00793          	li	a5,47
   21000:	00e7fc63          	bgeu	a5,a4,21018 <skip_atoi+0x7c>
   21004:	fdc42783          	lw	a5,-36(s0)
   21008:	0007a783          	lw	a5,0(a5)
   2100c:	0007c703          	lbu	a4,0(a5)
   21010:	03900793          	li	a5,57
   21014:	fae7f0e3          	bgeu	a5,a4,20fb4 <skip_atoi+0x18>
   21018:	fec42783          	lw	a5,-20(s0)
   2101c:	00078513          	mv	a0,a5
   21020:	02c12403          	lw	s0,44(sp)
   21024:	03010113          	addi	sp,sp,48
   21028:	00008067          	ret

0002102c <atoi>:
   2102c:	fd010113          	addi	sp,sp,-48
   21030:	02812623          	sw	s0,44(sp)
   21034:	03010413          	addi	s0,sp,48
   21038:	fca42e23          	sw	a0,-36(s0)
   2103c:	fe042623          	sw	zero,-20(s0)
   21040:	fe042423          	sw	zero,-24(s0)
   21044:	0440006f          	j	21088 <atoi+0x5c>
   21048:	fec42703          	lw	a4,-20(s0)
   2104c:	00070793          	mv	a5,a4
   21050:	00279793          	slli	a5,a5,0x2
   21054:	00e787b3          	add	a5,a5,a4
   21058:	00179793          	slli	a5,a5,0x1
   2105c:	00078693          	mv	a3,a5
   21060:	fe842783          	lw	a5,-24(s0)
   21064:	fdc42703          	lw	a4,-36(s0)
   21068:	00f707b3          	add	a5,a4,a5
   2106c:	0007c783          	lbu	a5,0(a5)
   21070:	00f687b3          	add	a5,a3,a5
   21074:	fd078793          	addi	a5,a5,-48
   21078:	fef42623          	sw	a5,-20(s0)
   2107c:	fe842783          	lw	a5,-24(s0)
   21080:	00178793          	addi	a5,a5,1
   21084:	fef42423          	sw	a5,-24(s0)
   21088:	fe842783          	lw	a5,-24(s0)
   2108c:	fdc42703          	lw	a4,-36(s0)
   21090:	00f707b3          	add	a5,a4,a5
   21094:	0007c783          	lbu	a5,0(a5)
   21098:	fa0798e3          	bnez	a5,21048 <atoi+0x1c>
   2109c:	fec42783          	lw	a5,-20(s0)
   210a0:	00078513          	mv	a0,a5
   210a4:	02c12403          	lw	s0,44(sp)
   210a8:	03010113          	addi	sp,sp,48
   210ac:	00008067          	ret

000210b0 <atof>:
   210b0:	fd010113          	addi	sp,sp,-48
   210b4:	02112623          	sw	ra,44(sp)
   210b8:	02812423          	sw	s0,40(sp)
   210bc:	02912223          	sw	s1,36(sp)
   210c0:	03010413          	addi	s0,sp,48
   210c4:	fca42e23          	sw	a0,-36(s0)
   210c8:	00000793          	li	a5,0
   210cc:	fef42623          	sw	a5,-20(s0)
   210d0:	00006797          	auipc	a5,0x6
   210d4:	f4878793          	addi	a5,a5,-184 # 27018 <main+0x658>
   210d8:	0007a783          	lw	a5,0(a5)
   210dc:	fef42423          	sw	a5,-24(s0)
   210e0:	fdc42783          	lw	a5,-36(s0)
   210e4:	0007c703          	lbu	a4,0(a5)
   210e8:	02d00793          	li	a5,45
   210ec:	02f71063          	bne	a4,a5,2110c <atof+0x5c>
   210f0:	fdc42783          	lw	a5,-36(s0)
   210f4:	00178793          	addi	a5,a5,1
   210f8:	fcf42e23          	sw	a5,-36(s0)
   210fc:	00006797          	auipc	a5,0x6
   21100:	f2078793          	addi	a5,a5,-224 # 2701c <main+0x65c>
   21104:	0007a783          	lw	a5,0(a5)
   21108:	fef42423          	sw	a5,-24(s0)
   2110c:	fe042223          	sw	zero,-28(s0)
   21110:	0b00006f          	j	211c0 <atof+0x110>
   21114:	fdc42783          	lw	a5,-36(s0)
   21118:	0007c703          	lbu	a4,0(a5)
   2111c:	02e00793          	li	a5,46
   21120:	00f71863          	bne	a4,a5,21130 <atof+0x80>
   21124:	00100793          	li	a5,1
   21128:	fef42223          	sw	a5,-28(s0)
   2112c:	0880006f          	j	211b4 <atof+0x104>
   21130:	fdc42783          	lw	a5,-36(s0)
   21134:	0007c783          	lbu	a5,0(a5)
   21138:	fd078793          	addi	a5,a5,-48
   2113c:	fef42023          	sw	a5,-32(s0)
   21140:	fe042783          	lw	a5,-32(s0)
   21144:	0607c863          	bltz	a5,211b4 <atof+0x104>
   21148:	fe042703          	lw	a4,-32(s0)
   2114c:	00900793          	li	a5,9
   21150:	06e7c263          	blt	a5,a4,211b4 <atof+0x104>
   21154:	fe442783          	lw	a5,-28(s0)
   21158:	02078063          	beqz	a5,21178 <atof+0xc8>
   2115c:	00006797          	auipc	a5,0x6
   21160:	ec478793          	addi	a5,a5,-316 # 27020 <main+0x660>
   21164:	0007a583          	lw	a1,0(a5)
   21168:	fe842503          	lw	a0,-24(s0)
   2116c:	0c0050ef          	jal	ra,2622c <__divsf3>
   21170:	00050793          	mv	a5,a0
   21174:	fef42423          	sw	a5,-24(s0)
   21178:	00006797          	auipc	a5,0x6
   2117c:	ea878793          	addi	a5,a5,-344 # 27020 <main+0x660>
   21180:	0007a583          	lw	a1,0(a5)
   21184:	fec42503          	lw	a0,-20(s0)
   21188:	3dc050ef          	jal	ra,26564 <__mulsf3>
   2118c:	00050793          	mv	a5,a0
   21190:	00078493          	mv	s1,a5
   21194:	fe042503          	lw	a0,-32(s0)
   21198:	6d4050ef          	jal	ra,2686c <__floatsisf>
   2119c:	00050793          	mv	a5,a0
   211a0:	00078593          	mv	a1,a5
   211a4:	00048513          	mv	a0,s1
   211a8:	429040ef          	jal	ra,25dd0 <__addsf3>
   211ac:	00050793          	mv	a5,a0
   211b0:	fef42623          	sw	a5,-20(s0)
   211b4:	fdc42783          	lw	a5,-36(s0)
   211b8:	00178793          	addi	a5,a5,1
   211bc:	fcf42e23          	sw	a5,-36(s0)
   211c0:	fdc42783          	lw	a5,-36(s0)
   211c4:	0007c783          	lbu	a5,0(a5)
   211c8:	f40796e3          	bnez	a5,21114 <atof+0x64>
   211cc:	fe842583          	lw	a1,-24(s0)
   211d0:	fec42503          	lw	a0,-20(s0)
   211d4:	390050ef          	jal	ra,26564 <__mulsf3>
   211d8:	00050793          	mv	a5,a0
   211dc:	00078513          	mv	a0,a5
   211e0:	02c12083          	lw	ra,44(sp)
   211e4:	02812403          	lw	s0,40(sp)
   211e8:	02412483          	lw	s1,36(sp)
   211ec:	03010113          	addi	sp,sp,48
   211f0:	00008067          	ret

000211f4 <accurate_udelay>:
   211f4:	fe010113          	addi	sp,sp,-32
   211f8:	00812e23          	sw	s0,28(sp)
   211fc:	02010413          	addi	s0,sp,32
   21200:	fea42623          	sw	a0,-20(s0)
   21204:	fec42703          	lw	a4,-20(s0)
   21208:	017d87b7          	lui	a5,0x17d8
   2120c:	84078793          	addi	a5,a5,-1984 # 17d7840 <__global_pointer$+0x17afdd4>
   21210:	02f70733          	mul	a4,a4,a5
   21214:	00006797          	auipc	a5,0x6
   21218:	06078793          	addi	a5,a5,96 # 27274 <loop_count>
   2121c:	00e7a023          	sw	a4,0(a5)
   21220:	ff810113          	addi	sp,sp,-8
   21224:	00a12023          	sw	a0,0(sp)
   21228:	00b12223          	sw	a1,4(sp)
   2122c:	00006517          	auipc	a0,0x6
   21230:	04850513          	addi	a0,a0,72 # 27274 <loop_count>
   21234:	00052583          	lw	a1,0(a0)

00021238 <loop_us>:
   21238:	fff58593          	addi	a1,a1,-1
   2123c:	fe059ee3          	bnez	a1,21238 <loop_us>
   21240:	00012503          	lw	a0,0(sp)
   21244:	00412583          	lw	a1,4(sp)
   21248:	00810113          	addi	sp,sp,8
   2124c:	00000013          	nop
   21250:	00078513          	mv	a0,a5
   21254:	01c12403          	lw	s0,28(sp)
   21258:	02010113          	addi	sp,sp,32
   2125c:	00008067          	ret

00021260 <udelay>:
   21260:	fd010113          	addi	sp,sp,-48
   21264:	02812623          	sw	s0,44(sp)
   21268:	03010413          	addi	s0,sp,48
   2126c:	fca42e23          	sw	a0,-36(s0)
   21270:	fe042623          	sw	zero,-20(s0)
   21274:	0100006f          	j	21284 <udelay+0x24>
   21278:	fec42783          	lw	a5,-20(s0)
   2127c:	00178793          	addi	a5,a5,1
   21280:	fef42623          	sw	a5,-20(s0)
   21284:	fdc42703          	lw	a4,-36(s0)
   21288:	00070793          	mv	a5,a4
   2128c:	00379793          	slli	a5,a5,0x3
   21290:	00e787b3          	add	a5,a5,a4
   21294:	00279793          	slli	a5,a5,0x2
   21298:	40e78733          	sub	a4,a5,a4
   2129c:	fec42783          	lw	a5,-20(s0)
   212a0:	fce7ece3          	bltu	a5,a4,21278 <udelay+0x18>
   212a4:	00000013          	nop
   212a8:	00078513          	mv	a0,a5
   212ac:	02c12403          	lw	s0,44(sp)
   212b0:	03010113          	addi	sp,sp,48
   212b4:	00008067          	ret

000212b8 <usleep>:
   212b8:	fe010113          	addi	sp,sp,-32
   212bc:	00812e23          	sw	s0,28(sp)
   212c0:	02010413          	addi	s0,sp,32
   212c4:	fea42623          	sw	a0,-20(s0)
   212c8:	fec42703          	lw	a4,-20(s0)
   212cc:	00070793          	mv	a5,a4
   212d0:	00100813          	li	a6,1
   212d4:	03078863          	beq	a5,a6,21304 <final>
   212d8:	00300813          	li	a6,3
   212dc:	0107dc63          	bge	a5,a6,212f4 <cycle_loop>

000212e0 <loop>:
   212e0:	fff78793          	addi	a5,a5,-1
   212e4:	00000013          	nop
   212e8:	00000013          	nop
   212ec:	fe079ae3          	bnez	a5,212e0 <loop>
   212f0:	0140006f          	j	21304 <final>

000212f4 <cycle_loop>:
   212f4:	01200713          	li	a4,18
   212f8:	02e78733          	mul	a4,a5,a4

000212fc <loop1>:
   212fc:	fff70713          	addi	a4,a4,-1
   21300:	fe071ee3          	bnez	a4,212fc <loop1>

00021304 <final>:
   21304:	00000013          	nop
   21308:	01c12403          	lw	s0,28(sp)
   2130c:	02010113          	addi	sp,sp,32
   21310:	00008067          	ret

00021314 <get_time>:
   21314:	fe010113          	addi	sp,sp,-32
   21318:	00812e23          	sw	s0,28(sp)
   2131c:	02010413          	addi	s0,sp,32
   21320:	b00027f3          	csrr	a5,mcycle
   21324:	fef42623          	sw	a5,-20(s0)
   21328:	fec42783          	lw	a5,-20(s0)
   2132c:	fef42423          	sw	a5,-24(s0)
   21330:	fe842783          	lw	a5,-24(s0)
   21334:	00078513          	mv	a0,a5
   21338:	01c12403          	lw	s0,28(sp)
   2133c:	02010113          	addi	sp,sp,32
   21340:	00008067          	ret

00021344 <number>:
   21344:	f8010113          	addi	sp,sp,-128
   21348:	06812e23          	sw	s0,124(sp)
   2134c:	08010413          	addi	s0,sp,128
   21350:	f8a42e23          	sw	a0,-100(s0)
   21354:	f8b42c23          	sw	a1,-104(s0)
   21358:	f8c42a23          	sw	a2,-108(s0)
   2135c:	f8d42823          	sw	a3,-112(s0)
   21360:	f8e42623          	sw	a4,-116(s0)
   21364:	f8f42423          	sw	a5,-120(s0)
   21368:	00006797          	auipc	a5,0x6
   2136c:	f0478793          	addi	a5,a5,-252 # 2726c <digits>
   21370:	0007a783          	lw	a5,0(a5)
   21374:	fef42423          	sw	a5,-24(s0)
   21378:	f8842783          	lw	a5,-120(s0)
   2137c:	0407f793          	andi	a5,a5,64
   21380:	00078a63          	beqz	a5,21394 <number+0x50>
   21384:	00006797          	auipc	a5,0x6
   21388:	eec78793          	addi	a5,a5,-276 # 27270 <upper_digits>
   2138c:	0007a783          	lw	a5,0(a5)
   21390:	fef42423          	sw	a5,-24(s0)
   21394:	f8842783          	lw	a5,-120(s0)
   21398:	0107f793          	andi	a5,a5,16
   2139c:	00078863          	beqz	a5,213ac <number+0x68>
   213a0:	f8842783          	lw	a5,-120(s0)
   213a4:	ffe7f793          	andi	a5,a5,-2
   213a8:	f8f42423          	sw	a5,-120(s0)
   213ac:	f9442703          	lw	a4,-108(s0)
   213b0:	00100793          	li	a5,1
   213b4:	00e7d863          	bge	a5,a4,213c4 <number+0x80>
   213b8:	f9442703          	lw	a4,-108(s0)
   213bc:	02400793          	li	a5,36
   213c0:	00e7d663          	bge	a5,a4,213cc <number+0x88>
   213c4:	00000793          	li	a5,0
   213c8:	2f80006f          	j	216c0 <number+0x37c>
   213cc:	f8842783          	lw	a5,-120(s0)
   213d0:	0017f793          	andi	a5,a5,1
   213d4:	00078663          	beqz	a5,213e0 <number+0x9c>
   213d8:	03000793          	li	a5,48
   213dc:	0080006f          	j	213e4 <number+0xa0>
   213e0:	02000793          	li	a5,32
   213e4:	fef401a3          	sb	a5,-29(s0)
   213e8:	fe0407a3          	sb	zero,-17(s0)
   213ec:	f8842783          	lw	a5,-120(s0)
   213f0:	0027f793          	andi	a5,a5,2
   213f4:	06078a63          	beqz	a5,21468 <number+0x124>
   213f8:	f9842783          	lw	a5,-104(s0)
   213fc:	0207d463          	bgez	a5,21424 <number+0xe0>
   21400:	02d00793          	li	a5,45
   21404:	fef407a3          	sb	a5,-17(s0)
   21408:	f9842783          	lw	a5,-104(s0)
   2140c:	40f007b3          	neg	a5,a5
   21410:	f8f42c23          	sw	a5,-104(s0)
   21414:	f9042783          	lw	a5,-112(s0)
   21418:	fff78793          	addi	a5,a5,-1
   2141c:	f8f42823          	sw	a5,-112(s0)
   21420:	0480006f          	j	21468 <number+0x124>
   21424:	f8842783          	lw	a5,-120(s0)
   21428:	0047f793          	andi	a5,a5,4
   2142c:	00078e63          	beqz	a5,21448 <number+0x104>
   21430:	02b00793          	li	a5,43
   21434:	fef407a3          	sb	a5,-17(s0)
   21438:	f9042783          	lw	a5,-112(s0)
   2143c:	fff78793          	addi	a5,a5,-1
   21440:	f8f42823          	sw	a5,-112(s0)
   21444:	0240006f          	j	21468 <number+0x124>
   21448:	f8842783          	lw	a5,-120(s0)
   2144c:	0087f793          	andi	a5,a5,8
   21450:	00078c63          	beqz	a5,21468 <number+0x124>
   21454:	02000793          	li	a5,32
   21458:	fef407a3          	sb	a5,-17(s0)
   2145c:	f9042783          	lw	a5,-112(s0)
   21460:	fff78793          	addi	a5,a5,-1
   21464:	f8f42823          	sw	a5,-112(s0)
   21468:	f8842783          	lw	a5,-120(s0)
   2146c:	0207f793          	andi	a5,a5,32
   21470:	02078c63          	beqz	a5,214a8 <number+0x164>
   21474:	f9442703          	lw	a4,-108(s0)
   21478:	01000793          	li	a5,16
   2147c:	00f71a63          	bne	a4,a5,21490 <number+0x14c>
   21480:	f9042783          	lw	a5,-112(s0)
   21484:	ffe78793          	addi	a5,a5,-2
   21488:	f8f42823          	sw	a5,-112(s0)
   2148c:	01c0006f          	j	214a8 <number+0x164>
   21490:	f9442703          	lw	a4,-108(s0)
   21494:	00800793          	li	a5,8
   21498:	00f71863          	bne	a4,a5,214a8 <number+0x164>
   2149c:	f9042783          	lw	a5,-112(s0)
   214a0:	fff78793          	addi	a5,a5,-1
   214a4:	f8f42823          	sw	a5,-112(s0)
   214a8:	fe042223          	sw	zero,-28(s0)
   214ac:	f9842783          	lw	a5,-104(s0)
   214b0:	06079263          	bnez	a5,21514 <number+0x1d0>
   214b4:	fe442783          	lw	a5,-28(s0)
   214b8:	00178713          	addi	a4,a5,1
   214bc:	fee42223          	sw	a4,-28(s0)
   214c0:	ff040713          	addi	a4,s0,-16
   214c4:	00f707b3          	add	a5,a4,a5
   214c8:	03000713          	li	a4,48
   214cc:	fae78823          	sb	a4,-80(a5)
   214d0:	04c0006f          	j	2151c <number+0x1d8>
   214d4:	f9842703          	lw	a4,-104(s0)
   214d8:	f9442783          	lw	a5,-108(s0)
   214dc:	02f777b3          	remu	a5,a4,a5
   214e0:	fe842703          	lw	a4,-24(s0)
   214e4:	00f70733          	add	a4,a4,a5
   214e8:	fe442783          	lw	a5,-28(s0)
   214ec:	00178693          	addi	a3,a5,1
   214f0:	fed42223          	sw	a3,-28(s0)
   214f4:	00074703          	lbu	a4,0(a4)
   214f8:	ff040693          	addi	a3,s0,-16
   214fc:	00f687b3          	add	a5,a3,a5
   21500:	fae78823          	sb	a4,-80(a5)
   21504:	f9842703          	lw	a4,-104(s0)
   21508:	f9442783          	lw	a5,-108(s0)
   2150c:	02f757b3          	divu	a5,a4,a5
   21510:	f8f42c23          	sw	a5,-104(s0)
   21514:	f9842783          	lw	a5,-104(s0)
   21518:	fa079ee3          	bnez	a5,214d4 <number+0x190>
   2151c:	fe442703          	lw	a4,-28(s0)
   21520:	f8c42783          	lw	a5,-116(s0)
   21524:	00e7d663          	bge	a5,a4,21530 <number+0x1ec>
   21528:	fe442783          	lw	a5,-28(s0)
   2152c:	f8f42623          	sw	a5,-116(s0)
   21530:	f9042703          	lw	a4,-112(s0)
   21534:	f8c42783          	lw	a5,-116(s0)
   21538:	40f707b3          	sub	a5,a4,a5
   2153c:	f8f42823          	sw	a5,-112(s0)
   21540:	f8842783          	lw	a5,-120(s0)
   21544:	0117f793          	andi	a5,a5,17
   21548:	02079663          	bnez	a5,21574 <number+0x230>
   2154c:	0180006f          	j	21564 <number+0x220>
   21550:	f9c42783          	lw	a5,-100(s0)
   21554:	00178713          	addi	a4,a5,1
   21558:	f8e42e23          	sw	a4,-100(s0)
   2155c:	02000713          	li	a4,32
   21560:	00e78023          	sb	a4,0(a5)
   21564:	f9042783          	lw	a5,-112(s0)
   21568:	fff78713          	addi	a4,a5,-1
   2156c:	f8e42823          	sw	a4,-112(s0)
   21570:	fef040e3          	bgtz	a5,21550 <number+0x20c>
   21574:	fef44783          	lbu	a5,-17(s0)
   21578:	00078c63          	beqz	a5,21590 <number+0x24c>
   2157c:	f9c42783          	lw	a5,-100(s0)
   21580:	00178713          	addi	a4,a5,1
   21584:	f8e42e23          	sw	a4,-100(s0)
   21588:	fef44703          	lbu	a4,-17(s0)
   2158c:	00e78023          	sb	a4,0(a5)
   21590:	f8842783          	lw	a5,-120(s0)
   21594:	0207f793          	andi	a5,a5,32
   21598:	06078463          	beqz	a5,21600 <number+0x2bc>
   2159c:	f9442703          	lw	a4,-108(s0)
   215a0:	00800793          	li	a5,8
   215a4:	00f71e63          	bne	a4,a5,215c0 <number+0x27c>
   215a8:	f9c42783          	lw	a5,-100(s0)
   215ac:	00178713          	addi	a4,a5,1
   215b0:	f8e42e23          	sw	a4,-100(s0)
   215b4:	03000713          	li	a4,48
   215b8:	00e78023          	sb	a4,0(a5)
   215bc:	0440006f          	j	21600 <number+0x2bc>
   215c0:	f9442703          	lw	a4,-108(s0)
   215c4:	01000793          	li	a5,16
   215c8:	02f71c63          	bne	a4,a5,21600 <number+0x2bc>
   215cc:	f9c42783          	lw	a5,-100(s0)
   215d0:	00178713          	addi	a4,a5,1
   215d4:	f8e42e23          	sw	a4,-100(s0)
   215d8:	03000713          	li	a4,48
   215dc:	00e78023          	sb	a4,0(a5)
   215e0:	00006797          	auipc	a5,0x6
   215e4:	c8c78793          	addi	a5,a5,-884 # 2726c <digits>
   215e8:	0007a703          	lw	a4,0(a5)
   215ec:	f9c42783          	lw	a5,-100(s0)
   215f0:	00178693          	addi	a3,a5,1
   215f4:	f8d42e23          	sw	a3,-100(s0)
   215f8:	02174703          	lbu	a4,33(a4)
   215fc:	00e78023          	sb	a4,0(a5)
   21600:	f8842783          	lw	a5,-120(s0)
   21604:	0107f793          	andi	a5,a5,16
   21608:	04079263          	bnez	a5,2164c <number+0x308>
   2160c:	0180006f          	j	21624 <number+0x2e0>
   21610:	f9c42783          	lw	a5,-100(s0)
   21614:	00178713          	addi	a4,a5,1
   21618:	f8e42e23          	sw	a4,-100(s0)
   2161c:	fe344703          	lbu	a4,-29(s0)
   21620:	00e78023          	sb	a4,0(a5)
   21624:	f9042783          	lw	a5,-112(s0)
   21628:	fff78713          	addi	a4,a5,-1
   2162c:	f8e42823          	sw	a4,-112(s0)
   21630:	fef040e3          	bgtz	a5,21610 <number+0x2cc>
   21634:	0180006f          	j	2164c <number+0x308>
   21638:	f9c42783          	lw	a5,-100(s0)
   2163c:	00178713          	addi	a4,a5,1
   21640:	f8e42e23          	sw	a4,-100(s0)
   21644:	03000713          	li	a4,48
   21648:	00e78023          	sb	a4,0(a5)
   2164c:	f8c42783          	lw	a5,-116(s0)
   21650:	fff78713          	addi	a4,a5,-1
   21654:	f8e42623          	sw	a4,-116(s0)
   21658:	fe442703          	lw	a4,-28(s0)
   2165c:	fcf74ee3          	blt	a4,a5,21638 <number+0x2f4>
   21660:	0240006f          	j	21684 <number+0x340>
   21664:	f9c42783          	lw	a5,-100(s0)
   21668:	00178713          	addi	a4,a5,1
   2166c:	f8e42e23          	sw	a4,-100(s0)
   21670:	fe442703          	lw	a4,-28(s0)
   21674:	ff040693          	addi	a3,s0,-16
   21678:	00e68733          	add	a4,a3,a4
   2167c:	fb074703          	lbu	a4,-80(a4)
   21680:	00e78023          	sb	a4,0(a5)
   21684:	fe442783          	lw	a5,-28(s0)
   21688:	fff78713          	addi	a4,a5,-1
   2168c:	fee42223          	sw	a4,-28(s0)
   21690:	fcf04ae3          	bgtz	a5,21664 <number+0x320>
   21694:	0180006f          	j	216ac <number+0x368>
   21698:	f9c42783          	lw	a5,-100(s0)
   2169c:	00178713          	addi	a4,a5,1
   216a0:	f8e42e23          	sw	a4,-100(s0)
   216a4:	02000713          	li	a4,32
   216a8:	00e78023          	sb	a4,0(a5)
   216ac:	f9042783          	lw	a5,-112(s0)
   216b0:	fff78713          	addi	a4,a5,-1
   216b4:	f8e42823          	sw	a4,-112(s0)
   216b8:	fef040e3          	bgtz	a5,21698 <number+0x354>
   216bc:	f9c42783          	lw	a5,-100(s0)
   216c0:	00078513          	mv	a0,a5
   216c4:	07c12403          	lw	s0,124(sp)
   216c8:	08010113          	addi	sp,sp,128
   216cc:	00008067          	ret

000216d0 <eaddr>:
   216d0:	fa010113          	addi	sp,sp,-96
   216d4:	04812e23          	sw	s0,92(sp)
   216d8:	06010413          	addi	s0,sp,96
   216dc:	faa42e23          	sw	a0,-68(s0)
   216e0:	fab42c23          	sw	a1,-72(s0)
   216e4:	fac42a23          	sw	a2,-76(s0)
   216e8:	fad42823          	sw	a3,-80(s0)
   216ec:	fae42623          	sw	a4,-84(s0)
   216f0:	00006797          	auipc	a5,0x6
   216f4:	b7c78793          	addi	a5,a5,-1156 # 2726c <digits>
   216f8:	0007a783          	lw	a5,0(a5)
   216fc:	fef42623          	sw	a5,-20(s0)
   21700:	fac42783          	lw	a5,-84(s0)
   21704:	0407f793          	andi	a5,a5,64
   21708:	00078a63          	beqz	a5,2171c <eaddr+0x4c>
   2170c:	00006797          	auipc	a5,0x6
   21710:	b6478793          	addi	a5,a5,-1180 # 27270 <upper_digits>
   21714:	0007a783          	lw	a5,0(a5)
   21718:	fef42623          	sw	a5,-20(s0)
   2171c:	fe042223          	sw	zero,-28(s0)
   21720:	fe042423          	sw	zero,-24(s0)
   21724:	0ac0006f          	j	217d0 <eaddr+0x100>
   21728:	fe842783          	lw	a5,-24(s0)
   2172c:	02078063          	beqz	a5,2174c <eaddr+0x7c>
   21730:	fe442783          	lw	a5,-28(s0)
   21734:	00178713          	addi	a4,a5,1
   21738:	fee42223          	sw	a4,-28(s0)
   2173c:	ff040713          	addi	a4,s0,-16
   21740:	00f707b3          	add	a5,a4,a5
   21744:	03a00713          	li	a4,58
   21748:	fce78e23          	sb	a4,-36(a5)
   2174c:	fe842783          	lw	a5,-24(s0)
   21750:	fb842703          	lw	a4,-72(s0)
   21754:	00f707b3          	add	a5,a4,a5
   21758:	0007c783          	lbu	a5,0(a5)
   2175c:	0047d793          	srli	a5,a5,0x4
   21760:	0ff7f793          	andi	a5,a5,255
   21764:	00078713          	mv	a4,a5
   21768:	fec42783          	lw	a5,-20(s0)
   2176c:	00e78733          	add	a4,a5,a4
   21770:	fe442783          	lw	a5,-28(s0)
   21774:	00178693          	addi	a3,a5,1
   21778:	fed42223          	sw	a3,-28(s0)
   2177c:	00074703          	lbu	a4,0(a4)
   21780:	ff040693          	addi	a3,s0,-16
   21784:	00f687b3          	add	a5,a3,a5
   21788:	fce78e23          	sb	a4,-36(a5)
   2178c:	fe842783          	lw	a5,-24(s0)
   21790:	fb842703          	lw	a4,-72(s0)
   21794:	00f707b3          	add	a5,a4,a5
   21798:	0007c783          	lbu	a5,0(a5)
   2179c:	00f7f793          	andi	a5,a5,15
   217a0:	fec42703          	lw	a4,-20(s0)
   217a4:	00f70733          	add	a4,a4,a5
   217a8:	fe442783          	lw	a5,-28(s0)
   217ac:	00178693          	addi	a3,a5,1
   217b0:	fed42223          	sw	a3,-28(s0)
   217b4:	00074703          	lbu	a4,0(a4)
   217b8:	ff040693          	addi	a3,s0,-16
   217bc:	00f687b3          	add	a5,a3,a5
   217c0:	fce78e23          	sb	a4,-36(a5)
   217c4:	fe842783          	lw	a5,-24(s0)
   217c8:	00178793          	addi	a5,a5,1
   217cc:	fef42423          	sw	a5,-24(s0)
   217d0:	fe842703          	lw	a4,-24(s0)
   217d4:	00500793          	li	a5,5
   217d8:	f4e7d8e3          	bge	a5,a4,21728 <eaddr+0x58>
   217dc:	fac42783          	lw	a5,-84(s0)
   217e0:	0107f793          	andi	a5,a5,16
   217e4:	02079863          	bnez	a5,21814 <eaddr+0x144>
   217e8:	0180006f          	j	21800 <eaddr+0x130>
   217ec:	fbc42783          	lw	a5,-68(s0)
   217f0:	00178713          	addi	a4,a5,1
   217f4:	fae42e23          	sw	a4,-68(s0)
   217f8:	02000713          	li	a4,32
   217fc:	00e78023          	sb	a4,0(a5)
   21800:	fb442783          	lw	a5,-76(s0)
   21804:	fff78713          	addi	a4,a5,-1
   21808:	fae42a23          	sw	a4,-76(s0)
   2180c:	fe442703          	lw	a4,-28(s0)
   21810:	fcf74ee3          	blt	a4,a5,217ec <eaddr+0x11c>
   21814:	fe042423          	sw	zero,-24(s0)
   21818:	0300006f          	j	21848 <eaddr+0x178>
   2181c:	fbc42783          	lw	a5,-68(s0)
   21820:	00178713          	addi	a4,a5,1
   21824:	fae42e23          	sw	a4,-68(s0)
   21828:	fe842703          	lw	a4,-24(s0)
   2182c:	ff040693          	addi	a3,s0,-16
   21830:	00e68733          	add	a4,a3,a4
   21834:	fdc74703          	lbu	a4,-36(a4)
   21838:	00e78023          	sb	a4,0(a5)
   2183c:	fe842783          	lw	a5,-24(s0)
   21840:	00178793          	addi	a5,a5,1
   21844:	fef42423          	sw	a5,-24(s0)
   21848:	fe842703          	lw	a4,-24(s0)
   2184c:	fe442783          	lw	a5,-28(s0)
   21850:	fcf746e3          	blt	a4,a5,2181c <eaddr+0x14c>
   21854:	0180006f          	j	2186c <eaddr+0x19c>
   21858:	fbc42783          	lw	a5,-68(s0)
   2185c:	00178713          	addi	a4,a5,1
   21860:	fae42e23          	sw	a4,-68(s0)
   21864:	02000713          	li	a4,32
   21868:	00e78023          	sb	a4,0(a5)
   2186c:	fb442783          	lw	a5,-76(s0)
   21870:	fff78713          	addi	a4,a5,-1
   21874:	fae42a23          	sw	a4,-76(s0)
   21878:	fe442703          	lw	a4,-28(s0)
   2187c:	fcf74ee3          	blt	a4,a5,21858 <eaddr+0x188>
   21880:	fbc42783          	lw	a5,-68(s0)
   21884:	00078513          	mv	a0,a5
   21888:	05c12403          	lw	s0,92(sp)
   2188c:	06010113          	addi	sp,sp,96
   21890:	00008067          	ret

00021894 <iaddr>:
   21894:	fa010113          	addi	sp,sp,-96
   21898:	04812e23          	sw	s0,92(sp)
   2189c:	06010413          	addi	s0,sp,96
   218a0:	faa42e23          	sw	a0,-68(s0)
   218a4:	fab42c23          	sw	a1,-72(s0)
   218a8:	fac42a23          	sw	a2,-76(s0)
   218ac:	fad42823          	sw	a3,-80(s0)
   218b0:	fae42623          	sw	a4,-84(s0)
   218b4:	fe042223          	sw	zero,-28(s0)
   218b8:	fe042623          	sw	zero,-20(s0)
   218bc:	1a00006f          	j	21a5c <iaddr+0x1c8>
   218c0:	fec42783          	lw	a5,-20(s0)
   218c4:	02078063          	beqz	a5,218e4 <iaddr+0x50>
   218c8:	fe442783          	lw	a5,-28(s0)
   218cc:	00178713          	addi	a4,a5,1
   218d0:	fee42223          	sw	a4,-28(s0)
   218d4:	ff040713          	addi	a4,s0,-16
   218d8:	00f707b3          	add	a5,a4,a5
   218dc:	02e00713          	li	a4,46
   218e0:	fce78e23          	sb	a4,-36(a5)
   218e4:	fec42783          	lw	a5,-20(s0)
   218e8:	fb842703          	lw	a4,-72(s0)
   218ec:	00f707b3          	add	a5,a4,a5
   218f0:	0007c783          	lbu	a5,0(a5)
   218f4:	fef42423          	sw	a5,-24(s0)
   218f8:	fe842783          	lw	a5,-24(s0)
   218fc:	02079863          	bnez	a5,2192c <iaddr+0x98>
   21900:	00006797          	auipc	a5,0x6
   21904:	96c78793          	addi	a5,a5,-1684 # 2726c <digits>
   21908:	0007a703          	lw	a4,0(a5)
   2190c:	fe442783          	lw	a5,-28(s0)
   21910:	00178693          	addi	a3,a5,1
   21914:	fed42223          	sw	a3,-28(s0)
   21918:	00074703          	lbu	a4,0(a4)
   2191c:	ff040693          	addi	a3,s0,-16
   21920:	00f687b3          	add	a5,a3,a5
   21924:	fce78e23          	sb	a4,-36(a5)
   21928:	1280006f          	j	21a50 <iaddr+0x1bc>
   2192c:	fe842703          	lw	a4,-24(s0)
   21930:	06300793          	li	a5,99
   21934:	08e7dc63          	bge	a5,a4,219cc <iaddr+0x138>
   21938:	00006797          	auipc	a5,0x6
   2193c:	93478793          	addi	a5,a5,-1740 # 2726c <digits>
   21940:	0007a783          	lw	a5,0(a5)
   21944:	fe842683          	lw	a3,-24(s0)
   21948:	06400713          	li	a4,100
   2194c:	02e6c733          	div	a4,a3,a4
   21950:	00e78733          	add	a4,a5,a4
   21954:	fe442783          	lw	a5,-28(s0)
   21958:	00178693          	addi	a3,a5,1
   2195c:	fed42223          	sw	a3,-28(s0)
   21960:	00074703          	lbu	a4,0(a4)
   21964:	ff040693          	addi	a3,s0,-16
   21968:	00f687b3          	add	a5,a3,a5
   2196c:	fce78e23          	sb	a4,-36(a5)
   21970:	fe842703          	lw	a4,-24(s0)
   21974:	06400793          	li	a5,100
   21978:	02f767b3          	rem	a5,a4,a5
   2197c:	fef42423          	sw	a5,-24(s0)
   21980:	00006797          	auipc	a5,0x6
   21984:	8ec78793          	addi	a5,a5,-1812 # 2726c <digits>
   21988:	0007a783          	lw	a5,0(a5)
   2198c:	fe842683          	lw	a3,-24(s0)
   21990:	00a00713          	li	a4,10
   21994:	02e6c733          	div	a4,a3,a4
   21998:	00e78733          	add	a4,a5,a4
   2199c:	fe442783          	lw	a5,-28(s0)
   219a0:	00178693          	addi	a3,a5,1
   219a4:	fed42223          	sw	a3,-28(s0)
   219a8:	00074703          	lbu	a4,0(a4)
   219ac:	ff040693          	addi	a3,s0,-16
   219b0:	00f687b3          	add	a5,a3,a5
   219b4:	fce78e23          	sb	a4,-36(a5)
   219b8:	fe842703          	lw	a4,-24(s0)
   219bc:	00a00793          	li	a5,10
   219c0:	02f767b3          	rem	a5,a4,a5
   219c4:	fef42423          	sw	a5,-24(s0)
   219c8:	0580006f          	j	21a20 <iaddr+0x18c>
   219cc:	fe842703          	lw	a4,-24(s0)
   219d0:	00900793          	li	a5,9
   219d4:	04e7d663          	bge	a5,a4,21a20 <iaddr+0x18c>
   219d8:	00006797          	auipc	a5,0x6
   219dc:	89478793          	addi	a5,a5,-1900 # 2726c <digits>
   219e0:	0007a783          	lw	a5,0(a5)
   219e4:	fe842683          	lw	a3,-24(s0)
   219e8:	00a00713          	li	a4,10
   219ec:	02e6c733          	div	a4,a3,a4
   219f0:	00e78733          	add	a4,a5,a4
   219f4:	fe442783          	lw	a5,-28(s0)
   219f8:	00178693          	addi	a3,a5,1
   219fc:	fed42223          	sw	a3,-28(s0)
   21a00:	00074703          	lbu	a4,0(a4)
   21a04:	ff040693          	addi	a3,s0,-16
   21a08:	00f687b3          	add	a5,a3,a5
   21a0c:	fce78e23          	sb	a4,-36(a5)
   21a10:	fe842703          	lw	a4,-24(s0)
   21a14:	00a00793          	li	a5,10
   21a18:	02f767b3          	rem	a5,a4,a5
   21a1c:	fef42423          	sw	a5,-24(s0)
   21a20:	00006797          	auipc	a5,0x6
   21a24:	84c78793          	addi	a5,a5,-1972 # 2726c <digits>
   21a28:	0007a703          	lw	a4,0(a5)
   21a2c:	fe842783          	lw	a5,-24(s0)
   21a30:	00f70733          	add	a4,a4,a5
   21a34:	fe442783          	lw	a5,-28(s0)
   21a38:	00178693          	addi	a3,a5,1
   21a3c:	fed42223          	sw	a3,-28(s0)
   21a40:	00074703          	lbu	a4,0(a4)
   21a44:	ff040693          	addi	a3,s0,-16
   21a48:	00f687b3          	add	a5,a3,a5
   21a4c:	fce78e23          	sb	a4,-36(a5)
   21a50:	fec42783          	lw	a5,-20(s0)
   21a54:	00178793          	addi	a5,a5,1
   21a58:	fef42623          	sw	a5,-20(s0)
   21a5c:	fec42703          	lw	a4,-20(s0)
   21a60:	00300793          	li	a5,3
   21a64:	e4e7dee3          	bge	a5,a4,218c0 <iaddr+0x2c>
   21a68:	fac42783          	lw	a5,-84(s0)
   21a6c:	0107f793          	andi	a5,a5,16
   21a70:	02079863          	bnez	a5,21aa0 <iaddr+0x20c>
   21a74:	0180006f          	j	21a8c <iaddr+0x1f8>
   21a78:	fbc42783          	lw	a5,-68(s0)
   21a7c:	00178713          	addi	a4,a5,1
   21a80:	fae42e23          	sw	a4,-68(s0)
   21a84:	02000713          	li	a4,32
   21a88:	00e78023          	sb	a4,0(a5)
   21a8c:	fb442783          	lw	a5,-76(s0)
   21a90:	fff78713          	addi	a4,a5,-1
   21a94:	fae42a23          	sw	a4,-76(s0)
   21a98:	fe442703          	lw	a4,-28(s0)
   21a9c:	fcf74ee3          	blt	a4,a5,21a78 <iaddr+0x1e4>
   21aa0:	fe042623          	sw	zero,-20(s0)
   21aa4:	0300006f          	j	21ad4 <iaddr+0x240>
   21aa8:	fbc42783          	lw	a5,-68(s0)
   21aac:	00178713          	addi	a4,a5,1
   21ab0:	fae42e23          	sw	a4,-68(s0)
   21ab4:	fec42703          	lw	a4,-20(s0)
   21ab8:	ff040693          	addi	a3,s0,-16
   21abc:	00e68733          	add	a4,a3,a4
   21ac0:	fdc74703          	lbu	a4,-36(a4)
   21ac4:	00e78023          	sb	a4,0(a5)
   21ac8:	fec42783          	lw	a5,-20(s0)
   21acc:	00178793          	addi	a5,a5,1
   21ad0:	fef42623          	sw	a5,-20(s0)
   21ad4:	fec42703          	lw	a4,-20(s0)
   21ad8:	fe442783          	lw	a5,-28(s0)
   21adc:	fcf746e3          	blt	a4,a5,21aa8 <iaddr+0x214>
   21ae0:	0180006f          	j	21af8 <iaddr+0x264>
   21ae4:	fbc42783          	lw	a5,-68(s0)
   21ae8:	00178713          	addi	a4,a5,1
   21aec:	fae42e23          	sw	a4,-68(s0)
   21af0:	02000713          	li	a4,32
   21af4:	00e78023          	sb	a4,0(a5)
   21af8:	fb442783          	lw	a5,-76(s0)
   21afc:	fff78713          	addi	a4,a5,-1
   21b00:	fae42a23          	sw	a4,-76(s0)
   21b04:	fe442703          	lw	a4,-28(s0)
   21b08:	fcf74ee3          	blt	a4,a5,21ae4 <iaddr+0x250>
   21b0c:	fbc42783          	lw	a5,-68(s0)
   21b10:	00078513          	mv	a0,a5
   21b14:	05c12403          	lw	s0,92(sp)
   21b18:	06010113          	addi	sp,sp,96
   21b1c:	00008067          	ret

00021b20 <ee_bufcpy>:
   21b20:	fd010113          	addi	sp,sp,-48
   21b24:	02812623          	sw	s0,44(sp)
   21b28:	03010413          	addi	s0,sp,48
   21b2c:	fca42e23          	sw	a0,-36(s0)
   21b30:	fcb42c23          	sw	a1,-40(s0)
   21b34:	fcc42a23          	sw	a2,-44(s0)
   21b38:	fd442783          	lw	a5,-44(s0)
   21b3c:	fd842703          	lw	a4,-40(s0)
   21b40:	00f707b3          	add	a5,a4,a5
   21b44:	fef42623          	sw	a5,-20(s0)
   21b48:	0240006f          	j	21b6c <ee_bufcpy+0x4c>
   21b4c:	fd842703          	lw	a4,-40(s0)
   21b50:	00170793          	addi	a5,a4,1
   21b54:	fcf42c23          	sw	a5,-40(s0)
   21b58:	fdc42783          	lw	a5,-36(s0)
   21b5c:	00178693          	addi	a3,a5,1
   21b60:	fcd42e23          	sw	a3,-36(s0)
   21b64:	00074703          	lbu	a4,0(a4)
   21b68:	00e78023          	sb	a4,0(a5)
   21b6c:	fd842703          	lw	a4,-40(s0)
   21b70:	fec42783          	lw	a5,-20(s0)
   21b74:	fcf71ce3          	bne	a4,a5,21b4c <ee_bufcpy+0x2c>
   21b78:	00000013          	nop
   21b7c:	00000013          	nop
   21b80:	02c12403          	lw	s0,44(sp)
   21b84:	03010113          	addi	sp,sp,48
   21b88:	00008067          	ret

00021b8c <parse_float>:
   21b8c:	f6010113          	addi	sp,sp,-160
   21b90:	08112e23          	sw	ra,156(sp)
   21b94:	08812c23          	sw	s0,152(sp)
   21b98:	0a010413          	addi	s0,sp,160
   21b9c:	f6a42c23          	sw	a0,-136(s0)
   21ba0:	f6b42e23          	sw	a1,-132(s0)
   21ba4:	f6c42a23          	sw	a2,-140(s0)
   21ba8:	00068793          	mv	a5,a3
   21bac:	f6e42623          	sw	a4,-148(s0)
   21bb0:	f6f409a3          	sb	a5,-141(s0)
   21bb4:	fe042223          	sw	zero,-28(s0)
   21bb8:	fe042023          	sw	zero,-32(s0)
   21bbc:	f7344703          	lbu	a4,-141(s0)
   21bc0:	04700793          	li	a5,71
   21bc4:	00f70863          	beq	a4,a5,21bd4 <parse_float+0x48>
   21bc8:	f7344703          	lbu	a4,-141(s0)
   21bcc:	04500793          	li	a5,69
   21bd0:	00f71c63          	bne	a4,a5,21be8 <parse_float+0x5c>
   21bd4:	00100793          	li	a5,1
   21bd8:	fef42023          	sw	a5,-32(s0)
   21bdc:	f7344783          	lbu	a5,-141(s0)
   21be0:	02078793          	addi	a5,a5,32
   21be4:	f6f409a3          	sb	a5,-141(s0)
   21be8:	f7344703          	lbu	a4,-141(s0)
   21bec:	06700793          	li	a5,103
   21bf0:	06f71c63          	bne	a4,a5,21c68 <parse_float+0xdc>
   21bf4:	f8440793          	addi	a5,s0,-124
   21bf8:	fd440713          	addi	a4,s0,-44
   21bfc:	fd840693          	addi	a3,s0,-40
   21c00:	f6c42603          	lw	a2,-148(s0)
   21c04:	f7842503          	lw	a0,-136(s0)
   21c08:	f7c42583          	lw	a1,-132(s0)
   21c0c:	63c010ef          	jal	ra,23248 <ecvtbuf>
   21c10:	fea42223          	sw	a0,-28(s0)
   21c14:	fd842783          	lw	a5,-40(s0)
   21c18:	fff78793          	addi	a5,a5,-1
   21c1c:	fcf42e23          	sw	a5,-36(s0)
   21c20:	fdc42703          	lw	a4,-36(s0)
   21c24:	ffc00793          	li	a5,-4
   21c28:	00f74863          	blt	a4,a5,21c38 <parse_float+0xac>
   21c2c:	f6c42703          	lw	a4,-148(s0)
   21c30:	fdc42783          	lw	a5,-36(s0)
   21c34:	00e7ce63          	blt	a5,a4,21c50 <parse_float+0xc4>
   21c38:	06500793          	li	a5,101
   21c3c:	f6f409a3          	sb	a5,-141(s0)
   21c40:	f6c42783          	lw	a5,-148(s0)
   21c44:	fff78793          	addi	a5,a5,-1
   21c48:	f6f42623          	sw	a5,-148(s0)
   21c4c:	01c0006f          	j	21c68 <parse_float+0xdc>
   21c50:	06600793          	li	a5,102
   21c54:	f6f409a3          	sb	a5,-141(s0)
   21c58:	fd842783          	lw	a5,-40(s0)
   21c5c:	f6c42703          	lw	a4,-148(s0)
   21c60:	40f707b3          	sub	a5,a4,a5
   21c64:	f6f42623          	sw	a5,-148(s0)
   21c68:	f7344703          	lbu	a4,-141(s0)
   21c6c:	06500793          	li	a5,101
   21c70:	1ef71063          	bne	a4,a5,21e50 <parse_float+0x2c4>
   21c74:	f6c42783          	lw	a5,-148(s0)
   21c78:	00178613          	addi	a2,a5,1
   21c7c:	f8440793          	addi	a5,s0,-124
   21c80:	fd440713          	addi	a4,s0,-44
   21c84:	fd840693          	addi	a3,s0,-40
   21c88:	f7842503          	lw	a0,-136(s0)
   21c8c:	f7c42583          	lw	a1,-132(s0)
   21c90:	5b8010ef          	jal	ra,23248 <ecvtbuf>
   21c94:	fea42223          	sw	a0,-28(s0)
   21c98:	fd442783          	lw	a5,-44(s0)
   21c9c:	00078c63          	beqz	a5,21cb4 <parse_float+0x128>
   21ca0:	f7442783          	lw	a5,-140(s0)
   21ca4:	00178713          	addi	a4,a5,1
   21ca8:	f6e42a23          	sw	a4,-140(s0)
   21cac:	02d00713          	li	a4,45
   21cb0:	00e78023          	sb	a4,0(a5)
   21cb4:	f7442783          	lw	a5,-140(s0)
   21cb8:	00178713          	addi	a4,a5,1
   21cbc:	f6e42a23          	sw	a4,-140(s0)
   21cc0:	fe442703          	lw	a4,-28(s0)
   21cc4:	00074703          	lbu	a4,0(a4)
   21cc8:	00e78023          	sb	a4,0(a5)
   21ccc:	f6c42783          	lw	a5,-148(s0)
   21cd0:	00f05c63          	blez	a5,21ce8 <parse_float+0x15c>
   21cd4:	f7442783          	lw	a5,-140(s0)
   21cd8:	00178713          	addi	a4,a5,1
   21cdc:	f6e42a23          	sw	a4,-140(s0)
   21ce0:	02e00713          	li	a4,46
   21ce4:	00e78023          	sb	a4,0(a5)
   21ce8:	fe442783          	lw	a5,-28(s0)
   21cec:	00178793          	addi	a5,a5,1
   21cf0:	f6c42603          	lw	a2,-148(s0)
   21cf4:	00078593          	mv	a1,a5
   21cf8:	f7442503          	lw	a0,-140(s0)
   21cfc:	e25ff0ef          	jal	ra,21b20 <ee_bufcpy>
   21d00:	f6c42783          	lw	a5,-148(s0)
   21d04:	f7442703          	lw	a4,-140(s0)
   21d08:	00f707b3          	add	a5,a4,a5
   21d0c:	f6f42a23          	sw	a5,-140(s0)
   21d10:	fe042783          	lw	a5,-32(s0)
   21d14:	00078663          	beqz	a5,21d20 <parse_float+0x194>
   21d18:	04500713          	li	a4,69
   21d1c:	0080006f          	j	21d24 <parse_float+0x198>
   21d20:	06500713          	li	a4,101
   21d24:	f7442783          	lw	a5,-140(s0)
   21d28:	00178693          	addi	a3,a5,1
   21d2c:	f6d42a23          	sw	a3,-140(s0)
   21d30:	00e78023          	sb	a4,0(a5)
   21d34:	fd842783          	lw	a5,-40(s0)
   21d38:	02079a63          	bnez	a5,21d6c <parse_float+0x1e0>
   21d3c:	00000613          	li	a2,0
   21d40:	00000693          	li	a3,0
   21d44:	f7842503          	lw	a0,-136(s0)
   21d48:	f7c42583          	lw	a1,-132(s0)
   21d4c:	6fd020ef          	jal	ra,24c48 <__eqdf2>
   21d50:	00050793          	mv	a5,a0
   21d54:	00079663          	bnez	a5,21d60 <parse_float+0x1d4>
   21d58:	fe042623          	sw	zero,-20(s0)
   21d5c:	01c0006f          	j	21d78 <parse_float+0x1ec>
   21d60:	fff00793          	li	a5,-1
   21d64:	fef42623          	sw	a5,-20(s0)
   21d68:	0100006f          	j	21d78 <parse_float+0x1ec>
   21d6c:	fd842783          	lw	a5,-40(s0)
   21d70:	fff78793          	addi	a5,a5,-1
   21d74:	fef42623          	sw	a5,-20(s0)
   21d78:	fec42783          	lw	a5,-20(s0)
   21d7c:	0207d463          	bgez	a5,21da4 <parse_float+0x218>
   21d80:	f7442783          	lw	a5,-140(s0)
   21d84:	00178713          	addi	a4,a5,1
   21d88:	f6e42a23          	sw	a4,-140(s0)
   21d8c:	02d00713          	li	a4,45
   21d90:	00e78023          	sb	a4,0(a5)
   21d94:	fec42783          	lw	a5,-20(s0)
   21d98:	40f007b3          	neg	a5,a5
   21d9c:	fef42623          	sw	a5,-20(s0)
   21da0:	0180006f          	j	21db8 <parse_float+0x22c>
   21da4:	f7442783          	lw	a5,-140(s0)
   21da8:	00178713          	addi	a4,a5,1
   21dac:	f6e42a23          	sw	a4,-140(s0)
   21db0:	02b00713          	li	a4,43
   21db4:	00e78023          	sb	a4,0(a5)
   21db8:	fec42703          	lw	a4,-20(s0)
   21dbc:	00a00793          	li	a5,10
   21dc0:	02f767b3          	rem	a5,a4,a5
   21dc4:	0ff7f713          	andi	a4,a5,255
   21dc8:	f7442783          	lw	a5,-140(s0)
   21dcc:	00278793          	addi	a5,a5,2
   21dd0:	03070713          	addi	a4,a4,48
   21dd4:	0ff77713          	andi	a4,a4,255
   21dd8:	00e78023          	sb	a4,0(a5)
   21ddc:	fec42703          	lw	a4,-20(s0)
   21de0:	00a00793          	li	a5,10
   21de4:	02f747b3          	div	a5,a4,a5
   21de8:	fef42623          	sw	a5,-20(s0)
   21dec:	fec42703          	lw	a4,-20(s0)
   21df0:	00a00793          	li	a5,10
   21df4:	02f767b3          	rem	a5,a4,a5
   21df8:	0ff7f713          	andi	a4,a5,255
   21dfc:	f7442783          	lw	a5,-140(s0)
   21e00:	00178793          	addi	a5,a5,1
   21e04:	03070713          	addi	a4,a4,48
   21e08:	0ff77713          	andi	a4,a4,255
   21e0c:	00e78023          	sb	a4,0(a5)
   21e10:	fec42703          	lw	a4,-20(s0)
   21e14:	00a00793          	li	a5,10
   21e18:	02f747b3          	div	a5,a4,a5
   21e1c:	fef42623          	sw	a5,-20(s0)
   21e20:	fec42703          	lw	a4,-20(s0)
   21e24:	00a00793          	li	a5,10
   21e28:	02f767b3          	rem	a5,a4,a5
   21e2c:	0ff7f793          	andi	a5,a5,255
   21e30:	03078793          	addi	a5,a5,48
   21e34:	0ff7f713          	andi	a4,a5,255
   21e38:	f7442783          	lw	a5,-140(s0)
   21e3c:	00e78023          	sb	a4,0(a5)
   21e40:	f7442783          	lw	a5,-140(s0)
   21e44:	00378793          	addi	a5,a5,3
   21e48:	f6f42a23          	sw	a5,-140(s0)
   21e4c:	1b80006f          	j	22004 <parse_float+0x478>
   21e50:	f7344703          	lbu	a4,-141(s0)
   21e54:	06600793          	li	a5,102
   21e58:	1af71663          	bne	a4,a5,22004 <parse_float+0x478>
   21e5c:	f8440793          	addi	a5,s0,-124
   21e60:	fd440713          	addi	a4,s0,-44
   21e64:	fd840693          	addi	a3,s0,-40
   21e68:	f6c42603          	lw	a2,-148(s0)
   21e6c:	f7842503          	lw	a0,-136(s0)
   21e70:	f7c42583          	lw	a1,-132(s0)
   21e74:	494010ef          	jal	ra,23308 <fcvtbuf>
   21e78:	fea42223          	sw	a0,-28(s0)
   21e7c:	fd442783          	lw	a5,-44(s0)
   21e80:	00078c63          	beqz	a5,21e98 <parse_float+0x30c>
   21e84:	f7442783          	lw	a5,-140(s0)
   21e88:	00178713          	addi	a4,a5,1
   21e8c:	f6e42a23          	sw	a4,-140(s0)
   21e90:	02d00713          	li	a4,45
   21e94:	00e78023          	sb	a4,0(a5)
   21e98:	fe442783          	lw	a5,-28(s0)
   21e9c:	0007c783          	lbu	a5,0(a5)
   21ea0:	10078063          	beqz	a5,21fa0 <parse_float+0x414>
   21ea4:	fd842783          	lw	a5,-40(s0)
   21ea8:	08f04c63          	bgtz	a5,21f40 <parse_float+0x3b4>
   21eac:	f7442783          	lw	a5,-140(s0)
   21eb0:	00178713          	addi	a4,a5,1
   21eb4:	f6e42a23          	sw	a4,-140(s0)
   21eb8:	03000713          	li	a4,48
   21ebc:	00e78023          	sb	a4,0(a5)
   21ec0:	f7442783          	lw	a5,-140(s0)
   21ec4:	00178713          	addi	a4,a5,1
   21ec8:	f6e42a23          	sw	a4,-140(s0)
   21ecc:	02e00713          	li	a4,46
   21ed0:	00e78023          	sb	a4,0(a5)
   21ed4:	fe042423          	sw	zero,-24(s0)
   21ed8:	0240006f          	j	21efc <parse_float+0x370>
   21edc:	f7442783          	lw	a5,-140(s0)
   21ee0:	00178713          	addi	a4,a5,1
   21ee4:	f6e42a23          	sw	a4,-140(s0)
   21ee8:	03000713          	li	a4,48
   21eec:	00e78023          	sb	a4,0(a5)
   21ef0:	fe842783          	lw	a5,-24(s0)
   21ef4:	00178793          	addi	a5,a5,1
   21ef8:	fef42423          	sw	a5,-24(s0)
   21efc:	fd842783          	lw	a5,-40(s0)
   21f00:	40f007b3          	neg	a5,a5
   21f04:	fe842703          	lw	a4,-24(s0)
   21f08:	fcf74ae3          	blt	a4,a5,21edc <parse_float+0x350>
   21f0c:	0240006f          	j	21f30 <parse_float+0x3a4>
   21f10:	fe442703          	lw	a4,-28(s0)
   21f14:	00170793          	addi	a5,a4,1
   21f18:	fef42223          	sw	a5,-28(s0)
   21f1c:	f7442783          	lw	a5,-140(s0)
   21f20:	00178693          	addi	a3,a5,1
   21f24:	f6d42a23          	sw	a3,-140(s0)
   21f28:	00074703          	lbu	a4,0(a4)
   21f2c:	00e78023          	sb	a4,0(a5)
   21f30:	fe442783          	lw	a5,-28(s0)
   21f34:	0007c783          	lbu	a5,0(a5)
   21f38:	fc079ce3          	bnez	a5,21f10 <parse_float+0x384>
   21f3c:	0c80006f          	j	22004 <parse_float+0x478>
   21f40:	fe042423          	sw	zero,-24(s0)
   21f44:	04c0006f          	j	21f90 <parse_float+0x404>
   21f48:	fe842783          	lw	a5,-24(s0)
   21f4c:	00178713          	addi	a4,a5,1
   21f50:	fee42423          	sw	a4,-24(s0)
   21f54:	fd842703          	lw	a4,-40(s0)
   21f58:	00e79c63          	bne	a5,a4,21f70 <parse_float+0x3e4>
   21f5c:	f7442783          	lw	a5,-140(s0)
   21f60:	00178713          	addi	a4,a5,1
   21f64:	f6e42a23          	sw	a4,-140(s0)
   21f68:	02e00713          	li	a4,46
   21f6c:	00e78023          	sb	a4,0(a5)
   21f70:	fe442703          	lw	a4,-28(s0)
   21f74:	00170793          	addi	a5,a4,1
   21f78:	fef42223          	sw	a5,-28(s0)
   21f7c:	f7442783          	lw	a5,-140(s0)
   21f80:	00178693          	addi	a3,a5,1
   21f84:	f6d42a23          	sw	a3,-140(s0)
   21f88:	00074703          	lbu	a4,0(a4)
   21f8c:	00e78023          	sb	a4,0(a5)
   21f90:	fe442783          	lw	a5,-28(s0)
   21f94:	0007c783          	lbu	a5,0(a5)
   21f98:	fa0798e3          	bnez	a5,21f48 <parse_float+0x3bc>
   21f9c:	0680006f          	j	22004 <parse_float+0x478>
   21fa0:	f7442783          	lw	a5,-140(s0)
   21fa4:	00178713          	addi	a4,a5,1
   21fa8:	f6e42a23          	sw	a4,-140(s0)
   21fac:	03000713          	li	a4,48
   21fb0:	00e78023          	sb	a4,0(a5)
   21fb4:	f6c42783          	lw	a5,-148(s0)
   21fb8:	04f05663          	blez	a5,22004 <parse_float+0x478>
   21fbc:	f7442783          	lw	a5,-140(s0)
   21fc0:	00178713          	addi	a4,a5,1
   21fc4:	f6e42a23          	sw	a4,-140(s0)
   21fc8:	02e00713          	li	a4,46
   21fcc:	00e78023          	sb	a4,0(a5)
   21fd0:	fe042423          	sw	zero,-24(s0)
   21fd4:	0240006f          	j	21ff8 <parse_float+0x46c>
   21fd8:	f7442783          	lw	a5,-140(s0)
   21fdc:	00178713          	addi	a4,a5,1
   21fe0:	f6e42a23          	sw	a4,-140(s0)
   21fe4:	03000713          	li	a4,48
   21fe8:	00e78023          	sb	a4,0(a5)
   21fec:	fe842783          	lw	a5,-24(s0)
   21ff0:	00178793          	addi	a5,a5,1
   21ff4:	fef42423          	sw	a5,-24(s0)
   21ff8:	fe842703          	lw	a4,-24(s0)
   21ffc:	f6c42783          	lw	a5,-148(s0)
   22000:	fcf74ce3          	blt	a4,a5,21fd8 <parse_float+0x44c>
   22004:	f7442783          	lw	a5,-140(s0)
   22008:	00078023          	sb	zero,0(a5)
   2200c:	00000013          	nop
   22010:	09c12083          	lw	ra,156(sp)
   22014:	09812403          	lw	s0,152(sp)
   22018:	0a010113          	addi	sp,sp,160
   2201c:	00008067          	ret

00022020 <decimal_point>:
   22020:	fd010113          	addi	sp,sp,-48
   22024:	02112623          	sw	ra,44(sp)
   22028:	02812423          	sw	s0,40(sp)
   2202c:	03010413          	addi	s0,sp,48
   22030:	fca42e23          	sw	a0,-36(s0)
   22034:	0400006f          	j	22074 <decimal_point+0x54>
   22038:	fdc42783          	lw	a5,-36(s0)
   2203c:	0007c703          	lbu	a4,0(a5)
   22040:	02e00793          	li	a5,46
   22044:	0cf70463          	beq	a4,a5,2210c <decimal_point+0xec>
   22048:	fdc42783          	lw	a5,-36(s0)
   2204c:	0007c703          	lbu	a4,0(a5)
   22050:	06500793          	li	a5,101
   22054:	02f70663          	beq	a4,a5,22080 <decimal_point+0x60>
   22058:	fdc42783          	lw	a5,-36(s0)
   2205c:	0007c703          	lbu	a4,0(a5)
   22060:	04500793          	li	a5,69
   22064:	00f70e63          	beq	a4,a5,22080 <decimal_point+0x60>
   22068:	fdc42783          	lw	a5,-36(s0)
   2206c:	00178793          	addi	a5,a5,1
   22070:	fcf42e23          	sw	a5,-36(s0)
   22074:	fdc42783          	lw	a5,-36(s0)
   22078:	0007c783          	lbu	a5,0(a5)
   2207c:	fa079ee3          	bnez	a5,22038 <decimal_point+0x18>
   22080:	fdc42783          	lw	a5,-36(s0)
   22084:	0007c783          	lbu	a5,0(a5)
   22088:	06078263          	beqz	a5,220ec <decimal_point+0xcc>
   2208c:	10000593          	li	a1,256
   22090:	fdc42503          	lw	a0,-36(s0)
   22094:	4c1010ef          	jal	ra,23d54 <strnlen>
   22098:	00050793          	mv	a5,a0
   2209c:	fef42623          	sw	a5,-20(s0)
   220a0:	0340006f          	j	220d4 <decimal_point+0xb4>
   220a4:	fec42783          	lw	a5,-20(s0)
   220a8:	fdc42703          	lw	a4,-36(s0)
   220ac:	00f70733          	add	a4,a4,a5
   220b0:	fec42783          	lw	a5,-20(s0)
   220b4:	00178793          	addi	a5,a5,1
   220b8:	fdc42683          	lw	a3,-36(s0)
   220bc:	00f687b3          	add	a5,a3,a5
   220c0:	00074703          	lbu	a4,0(a4)
   220c4:	00e78023          	sb	a4,0(a5)
   220c8:	fec42783          	lw	a5,-20(s0)
   220cc:	fff78793          	addi	a5,a5,-1
   220d0:	fef42623          	sw	a5,-20(s0)
   220d4:	fec42783          	lw	a5,-20(s0)
   220d8:	fcf046e3          	bgtz	a5,220a4 <decimal_point+0x84>
   220dc:	fdc42783          	lw	a5,-36(s0)
   220e0:	02e00713          	li	a4,46
   220e4:	00e78023          	sb	a4,0(a5)
   220e8:	0280006f          	j	22110 <decimal_point+0xf0>
   220ec:	fdc42783          	lw	a5,-36(s0)
   220f0:	00178713          	addi	a4,a5,1
   220f4:	fce42e23          	sw	a4,-36(s0)
   220f8:	02e00713          	li	a4,46
   220fc:	00e78023          	sb	a4,0(a5)
   22100:	fdc42783          	lw	a5,-36(s0)
   22104:	00078023          	sb	zero,0(a5)
   22108:	0080006f          	j	22110 <decimal_point+0xf0>
   2210c:	00000013          	nop
   22110:	02c12083          	lw	ra,44(sp)
   22114:	02812403          	lw	s0,40(sp)
   22118:	03010113          	addi	sp,sp,48
   2211c:	00008067          	ret

00022120 <cropzeros>:
   22120:	fd010113          	addi	sp,sp,-48
   22124:	02812623          	sw	s0,44(sp)
   22128:	03010413          	addi	s0,sp,48
   2212c:	fca42e23          	sw	a0,-36(s0)
   22130:	0100006f          	j	22140 <cropzeros+0x20>
   22134:	fdc42783          	lw	a5,-36(s0)
   22138:	00178793          	addi	a5,a5,1
   2213c:	fcf42e23          	sw	a5,-36(s0)
   22140:	fdc42783          	lw	a5,-36(s0)
   22144:	0007c783          	lbu	a5,0(a5)
   22148:	00078a63          	beqz	a5,2215c <cropzeros+0x3c>
   2214c:	fdc42783          	lw	a5,-36(s0)
   22150:	0007c703          	lbu	a4,0(a5)
   22154:	02e00793          	li	a5,46
   22158:	fcf71ee3          	bne	a4,a5,22134 <cropzeros+0x14>
   2215c:	fdc42783          	lw	a5,-36(s0)
   22160:	00178713          	addi	a4,a5,1
   22164:	fce42e23          	sw	a4,-36(s0)
   22168:	0007c783          	lbu	a5,0(a5)
   2216c:	0a078863          	beqz	a5,2221c <cropzeros+0xfc>
   22170:	0100006f          	j	22180 <cropzeros+0x60>
   22174:	fdc42783          	lw	a5,-36(s0)
   22178:	00178793          	addi	a5,a5,1
   2217c:	fcf42e23          	sw	a5,-36(s0)
   22180:	fdc42783          	lw	a5,-36(s0)
   22184:	0007c783          	lbu	a5,0(a5)
   22188:	02078263          	beqz	a5,221ac <cropzeros+0x8c>
   2218c:	fdc42783          	lw	a5,-36(s0)
   22190:	0007c703          	lbu	a4,0(a5)
   22194:	06500793          	li	a5,101
   22198:	00f70a63          	beq	a4,a5,221ac <cropzeros+0x8c>
   2219c:	fdc42783          	lw	a5,-36(s0)
   221a0:	0007c703          	lbu	a4,0(a5)
   221a4:	04500793          	li	a5,69
   221a8:	fcf716e3          	bne	a4,a5,22174 <cropzeros+0x54>
   221ac:	fdc42783          	lw	a5,-36(s0)
   221b0:	fff78713          	addi	a4,a5,-1
   221b4:	fce42e23          	sw	a4,-36(s0)
   221b8:	fef42623          	sw	a5,-20(s0)
   221bc:	0100006f          	j	221cc <cropzeros+0xac>
   221c0:	fdc42783          	lw	a5,-36(s0)
   221c4:	fff78793          	addi	a5,a5,-1
   221c8:	fcf42e23          	sw	a5,-36(s0)
   221cc:	fdc42783          	lw	a5,-36(s0)
   221d0:	0007c703          	lbu	a4,0(a5)
   221d4:	03000793          	li	a5,48
   221d8:	fef704e3          	beq	a4,a5,221c0 <cropzeros+0xa0>
   221dc:	fdc42783          	lw	a5,-36(s0)
   221e0:	0007c703          	lbu	a4,0(a5)
   221e4:	02e00793          	li	a5,46
   221e8:	02f71463          	bne	a4,a5,22210 <cropzeros+0xf0>
   221ec:	fdc42783          	lw	a5,-36(s0)
   221f0:	fff78793          	addi	a5,a5,-1
   221f4:	fcf42e23          	sw	a5,-36(s0)
   221f8:	0180006f          	j	22210 <cropzeros+0xf0>
   221fc:	fdc42783          	lw	a5,-36(s0)
   22200:	00178793          	addi	a5,a5,1
   22204:	fcf42e23          	sw	a5,-36(s0)
   22208:	fdc42783          	lw	a5,-36(s0)
   2220c:	00078023          	sb	zero,0(a5)
   22210:	fdc42703          	lw	a4,-36(s0)
   22214:	fec42783          	lw	a5,-20(s0)
   22218:	fef712e3          	bne	a4,a5,221fc <cropzeros+0xdc>
   2221c:	00000013          	nop
   22220:	02c12403          	lw	s0,44(sp)
   22224:	03010113          	addi	sp,sp,48
   22228:	00008067          	ret

0002222c <flt>:
   2222c:	f7010113          	addi	sp,sp,-144
   22230:	08112623          	sw	ra,140(sp)
   22234:	08812423          	sw	s0,136(sp)
   22238:	09010413          	addi	s0,sp,144
   2223c:	f8a42623          	sw	a0,-116(s0)
   22240:	f8b42023          	sw	a1,-128(s0)
   22244:	f8c42223          	sw	a2,-124(s0)
   22248:	f8d42423          	sw	a3,-120(s0)
   2224c:	f6e42e23          	sw	a4,-132(s0)
   22250:	f7042a23          	sw	a6,-140(s0)
   22254:	f6f40da3          	sb	a5,-133(s0)
   22258:	f7442783          	lw	a5,-140(s0)
   2225c:	0107f793          	andi	a5,a5,16
   22260:	00078863          	beqz	a5,22270 <flt+0x44>
   22264:	f7442783          	lw	a5,-140(s0)
   22268:	ffe7f793          	andi	a5,a5,-2
   2226c:	f6f42a23          	sw	a5,-140(s0)
   22270:	f7442783          	lw	a5,-140(s0)
   22274:	0017f793          	andi	a5,a5,1
   22278:	00078663          	beqz	a5,22284 <flt+0x58>
   2227c:	03000793          	li	a5,48
   22280:	0080006f          	j	22288 <flt+0x5c>
   22284:	02000793          	li	a5,32
   22288:	fef403a3          	sb	a5,-25(s0)
   2228c:	fe0407a3          	sb	zero,-17(s0)
   22290:	f7442783          	lw	a5,-140(s0)
   22294:	0027f793          	andi	a5,a5,2
   22298:	08078a63          	beqz	a5,2232c <flt+0x100>
   2229c:	00000613          	li	a2,0
   222a0:	00000693          	li	a3,0
   222a4:	f8042503          	lw	a0,-128(s0)
   222a8:	f8442583          	lw	a1,-124(s0)
   222ac:	30d020ef          	jal	ra,24db8 <__ledf2>
   222b0:	00050793          	mv	a5,a0
   222b4:	0207da63          	bgez	a5,222e8 <flt+0xbc>
   222b8:	02d00793          	li	a5,45
   222bc:	fef407a3          	sb	a5,-17(s0)
   222c0:	f8042783          	lw	a5,-128(s0)
   222c4:	f8f42023          	sw	a5,-128(s0)
   222c8:	f8442703          	lw	a4,-124(s0)
   222cc:	800007b7          	lui	a5,0x80000
   222d0:	00f747b3          	xor	a5,a4,a5
   222d4:	f8f42223          	sw	a5,-124(s0)
   222d8:	f8842783          	lw	a5,-120(s0)
   222dc:	fff78793          	addi	a5,a5,-1 # 7fffffff <__global_pointer$+0x7ffd8593>
   222e0:	f8f42423          	sw	a5,-120(s0)
   222e4:	0480006f          	j	2232c <flt+0x100>
   222e8:	f7442783          	lw	a5,-140(s0)
   222ec:	0047f793          	andi	a5,a5,4
   222f0:	00078e63          	beqz	a5,2230c <flt+0xe0>
   222f4:	02b00793          	li	a5,43
   222f8:	fef407a3          	sb	a5,-17(s0)
   222fc:	f8842783          	lw	a5,-120(s0)
   22300:	fff78793          	addi	a5,a5,-1
   22304:	f8f42423          	sw	a5,-120(s0)
   22308:	0240006f          	j	2232c <flt+0x100>
   2230c:	f7442783          	lw	a5,-140(s0)
   22310:	0087f793          	andi	a5,a5,8
   22314:	00078c63          	beqz	a5,2232c <flt+0x100>
   22318:	02000793          	li	a5,32
   2231c:	fef407a3          	sb	a5,-17(s0)
   22320:	f8842783          	lw	a5,-120(s0)
   22324:	fff78793          	addi	a5,a5,-1
   22328:	f8f42423          	sw	a5,-120(s0)
   2232c:	f7c42783          	lw	a5,-132(s0)
   22330:	0007d663          	bgez	a5,2233c <flt+0x110>
   22334:	00600793          	li	a5,6
   22338:	f6f42e23          	sw	a5,-132(s0)
   2233c:	f7b44683          	lbu	a3,-133(s0)
   22340:	f9040793          	addi	a5,s0,-112
   22344:	f7c42703          	lw	a4,-132(s0)
   22348:	00078613          	mv	a2,a5
   2234c:	f8042503          	lw	a0,-128(s0)
   22350:	f8442583          	lw	a1,-124(s0)
   22354:	839ff0ef          	jal	ra,21b8c <parse_float>
   22358:	f7442783          	lw	a5,-140(s0)
   2235c:	0207f793          	andi	a5,a5,32
   22360:	00078c63          	beqz	a5,22378 <flt+0x14c>
   22364:	f7c42783          	lw	a5,-132(s0)
   22368:	00079863          	bnez	a5,22378 <flt+0x14c>
   2236c:	f9040793          	addi	a5,s0,-112
   22370:	00078513          	mv	a0,a5
   22374:	cadff0ef          	jal	ra,22020 <decimal_point>
   22378:	f7b44703          	lbu	a4,-133(s0)
   2237c:	06700793          	li	a5,103
   22380:	00f71e63          	bne	a4,a5,2239c <flt+0x170>
   22384:	f7442783          	lw	a5,-140(s0)
   22388:	0207f793          	andi	a5,a5,32
   2238c:	00079863          	bnez	a5,2239c <flt+0x170>
   22390:	f9040793          	addi	a5,s0,-112
   22394:	00078513          	mv	a0,a5
   22398:	d89ff0ef          	jal	ra,22120 <cropzeros>
   2239c:	f9040793          	addi	a5,s0,-112
   223a0:	10000593          	li	a1,256
   223a4:	00078513          	mv	a0,a5
   223a8:	1ad010ef          	jal	ra,23d54 <strnlen>
   223ac:	00050793          	mv	a5,a0
   223b0:	fef42023          	sw	a5,-32(s0)
   223b4:	f8842703          	lw	a4,-120(s0)
   223b8:	fe042783          	lw	a5,-32(s0)
   223bc:	40f707b3          	sub	a5,a4,a5
   223c0:	f8f42423          	sw	a5,-120(s0)
   223c4:	f7442783          	lw	a5,-140(s0)
   223c8:	0117f793          	andi	a5,a5,17
   223cc:	02079663          	bnez	a5,223f8 <flt+0x1cc>
   223d0:	0180006f          	j	223e8 <flt+0x1bc>
   223d4:	f8c42783          	lw	a5,-116(s0)
   223d8:	00178713          	addi	a4,a5,1
   223dc:	f8e42623          	sw	a4,-116(s0)
   223e0:	02000713          	li	a4,32
   223e4:	00e78023          	sb	a4,0(a5)
   223e8:	f8842783          	lw	a5,-120(s0)
   223ec:	fff78713          	addi	a4,a5,-1
   223f0:	f8e42423          	sw	a4,-120(s0)
   223f4:	fef040e3          	bgtz	a5,223d4 <flt+0x1a8>
   223f8:	fef44783          	lbu	a5,-17(s0)
   223fc:	00078c63          	beqz	a5,22414 <flt+0x1e8>
   22400:	f8c42783          	lw	a5,-116(s0)
   22404:	00178713          	addi	a4,a5,1
   22408:	f8e42623          	sw	a4,-116(s0)
   2240c:	fef44703          	lbu	a4,-17(s0)
   22410:	00e78023          	sb	a4,0(a5)
   22414:	f7442783          	lw	a5,-140(s0)
   22418:	0107f793          	andi	a5,a5,16
   2241c:	02079663          	bnez	a5,22448 <flt+0x21c>
   22420:	0180006f          	j	22438 <flt+0x20c>
   22424:	f8c42783          	lw	a5,-116(s0)
   22428:	00178713          	addi	a4,a5,1
   2242c:	f8e42623          	sw	a4,-116(s0)
   22430:	fe744703          	lbu	a4,-25(s0)
   22434:	00e78023          	sb	a4,0(a5)
   22438:	f8842783          	lw	a5,-120(s0)
   2243c:	fff78713          	addi	a4,a5,-1
   22440:	f8e42423          	sw	a4,-120(s0)
   22444:	fef040e3          	bgtz	a5,22424 <flt+0x1f8>
   22448:	fe042423          	sw	zero,-24(s0)
   2244c:	0300006f          	j	2247c <flt+0x250>
   22450:	f8c42783          	lw	a5,-116(s0)
   22454:	00178713          	addi	a4,a5,1
   22458:	f8e42623          	sw	a4,-116(s0)
   2245c:	fe842703          	lw	a4,-24(s0)
   22460:	ff040693          	addi	a3,s0,-16
   22464:	00e68733          	add	a4,a3,a4
   22468:	fa074703          	lbu	a4,-96(a4)
   2246c:	00e78023          	sb	a4,0(a5)
   22470:	fe842783          	lw	a5,-24(s0)
   22474:	00178793          	addi	a5,a5,1
   22478:	fef42423          	sw	a5,-24(s0)
   2247c:	fe842703          	lw	a4,-24(s0)
   22480:	fe042783          	lw	a5,-32(s0)
   22484:	fcf746e3          	blt	a4,a5,22450 <flt+0x224>
   22488:	0180006f          	j	224a0 <flt+0x274>
   2248c:	f8c42783          	lw	a5,-116(s0)
   22490:	00178713          	addi	a4,a5,1
   22494:	f8e42623          	sw	a4,-116(s0)
   22498:	02000713          	li	a4,32
   2249c:	00e78023          	sb	a4,0(a5)
   224a0:	f8842783          	lw	a5,-120(s0)
   224a4:	fff78713          	addi	a4,a5,-1
   224a8:	f8e42423          	sw	a4,-120(s0)
   224ac:	fef040e3          	bgtz	a5,2248c <flt+0x260>
   224b0:	f8c42783          	lw	a5,-116(s0)
   224b4:	00078513          	mv	a0,a5
   224b8:	08c12083          	lw	ra,140(sp)
   224bc:	08812403          	lw	s0,136(sp)
   224c0:	09010113          	addi	sp,sp,144
   224c4:	00008067          	ret

000224c8 <ee_vsprintf>:
   224c8:	fb010113          	addi	sp,sp,-80
   224cc:	04112623          	sw	ra,76(sp)
   224d0:	04812423          	sw	s0,72(sp)
   224d4:	05010413          	addi	s0,sp,80
   224d8:	faa42e23          	sw	a0,-68(s0)
   224dc:	fab42c23          	sw	a1,-72(s0)
   224e0:	fac42a23          	sw	a2,-76(s0)
   224e4:	fbc42783          	lw	a5,-68(s0)
   224e8:	fef42023          	sw	a5,-32(s0)
   224ec:	6180006f          	j	22b04 <ee_vsprintf+0x63c>
   224f0:	fb842783          	lw	a5,-72(s0)
   224f4:	0007c703          	lbu	a4,0(a5)
   224f8:	02500793          	li	a5,37
   224fc:	02f70063          	beq	a4,a5,2251c <ee_vsprintf+0x54>
   22500:	fb842703          	lw	a4,-72(s0)
   22504:	fe042783          	lw	a5,-32(s0)
   22508:	00178693          	addi	a3,a5,1
   2250c:	fed42023          	sw	a3,-32(s0)
   22510:	00074703          	lbu	a4,0(a4)
   22514:	00e78023          	sb	a4,0(a5)
   22518:	5e00006f          	j	22af8 <ee_vsprintf+0x630>
   2251c:	fc042c23          	sw	zero,-40(s0)
   22520:	fb842783          	lw	a5,-72(s0)
   22524:	00178793          	addi	a5,a5,1
   22528:	faf42c23          	sw	a5,-72(s0)
   2252c:	fb842783          	lw	a5,-72(s0)
   22530:	0007c783          	lbu	a5,0(a5)
   22534:	fe078793          	addi	a5,a5,-32
   22538:	01000713          	li	a4,16
   2253c:	06f76c63          	bltu	a4,a5,225b4 <ee_vsprintf+0xec>
   22540:	00279713          	slli	a4,a5,0x2
   22544:	00005797          	auipc	a5,0x5
   22548:	9b078793          	addi	a5,a5,-1616 # 26ef4 <main+0x534>
   2254c:	00f707b3          	add	a5,a4,a5
   22550:	0007a703          	lw	a4,0(a5)
   22554:	00005797          	auipc	a5,0x5
   22558:	9a078793          	addi	a5,a5,-1632 # 26ef4 <main+0x534>
   2255c:	00f707b3          	add	a5,a4,a5
   22560:	00078067          	jr	a5
   22564:	fd842783          	lw	a5,-40(s0)
   22568:	0107e793          	ori	a5,a5,16
   2256c:	fcf42c23          	sw	a5,-40(s0)
   22570:	fb1ff06f          	j	22520 <ee_vsprintf+0x58>
   22574:	fd842783          	lw	a5,-40(s0)
   22578:	0047e793          	ori	a5,a5,4
   2257c:	fcf42c23          	sw	a5,-40(s0)
   22580:	fa1ff06f          	j	22520 <ee_vsprintf+0x58>
   22584:	fd842783          	lw	a5,-40(s0)
   22588:	0087e793          	ori	a5,a5,8
   2258c:	fcf42c23          	sw	a5,-40(s0)
   22590:	f91ff06f          	j	22520 <ee_vsprintf+0x58>
   22594:	fd842783          	lw	a5,-40(s0)
   22598:	0207e793          	ori	a5,a5,32
   2259c:	fcf42c23          	sw	a5,-40(s0)
   225a0:	f81ff06f          	j	22520 <ee_vsprintf+0x58>
   225a4:	fd842783          	lw	a5,-40(s0)
   225a8:	0017e793          	ori	a5,a5,1
   225ac:	fcf42c23          	sw	a5,-40(s0)
   225b0:	f71ff06f          	j	22520 <ee_vsprintf+0x58>
   225b4:	fff00793          	li	a5,-1
   225b8:	fcf42a23          	sw	a5,-44(s0)
   225bc:	fb842783          	lw	a5,-72(s0)
   225c0:	0007c703          	lbu	a4,0(a5)
   225c4:	02f00793          	li	a5,47
   225c8:	02e7f463          	bgeu	a5,a4,225f0 <ee_vsprintf+0x128>
   225cc:	fb842783          	lw	a5,-72(s0)
   225d0:	0007c703          	lbu	a4,0(a5)
   225d4:	03900793          	li	a5,57
   225d8:	00e7ec63          	bltu	a5,a4,225f0 <ee_vsprintf+0x128>
   225dc:	fb840793          	addi	a5,s0,-72
   225e0:	00078513          	mv	a0,a5
   225e4:	9b9fe0ef          	jal	ra,20f9c <skip_atoi>
   225e8:	fca42a23          	sw	a0,-44(s0)
   225ec:	0540006f          	j	22640 <ee_vsprintf+0x178>
   225f0:	fb842783          	lw	a5,-72(s0)
   225f4:	0007c703          	lbu	a4,0(a5)
   225f8:	02a00793          	li	a5,42
   225fc:	04f71263          	bne	a4,a5,22640 <ee_vsprintf+0x178>
   22600:	fb842783          	lw	a5,-72(s0)
   22604:	00178793          	addi	a5,a5,1
   22608:	faf42c23          	sw	a5,-72(s0)
   2260c:	fb442783          	lw	a5,-76(s0)
   22610:	00478713          	addi	a4,a5,4
   22614:	fae42a23          	sw	a4,-76(s0)
   22618:	0007a783          	lw	a5,0(a5)
   2261c:	fcf42a23          	sw	a5,-44(s0)
   22620:	fd442783          	lw	a5,-44(s0)
   22624:	0007de63          	bgez	a5,22640 <ee_vsprintf+0x178>
   22628:	fd442783          	lw	a5,-44(s0)
   2262c:	40f007b3          	neg	a5,a5
   22630:	fcf42a23          	sw	a5,-44(s0)
   22634:	fd842783          	lw	a5,-40(s0)
   22638:	0107e793          	ori	a5,a5,16
   2263c:	fcf42c23          	sw	a5,-40(s0)
   22640:	fff00793          	li	a5,-1
   22644:	fcf42823          	sw	a5,-48(s0)
   22648:	fb842783          	lw	a5,-72(s0)
   2264c:	0007c703          	lbu	a4,0(a5)
   22650:	02e00793          	li	a5,46
   22654:	08f71063          	bne	a4,a5,226d4 <ee_vsprintf+0x20c>
   22658:	fb842783          	lw	a5,-72(s0)
   2265c:	00178793          	addi	a5,a5,1
   22660:	faf42c23          	sw	a5,-72(s0)
   22664:	fb842783          	lw	a5,-72(s0)
   22668:	0007c703          	lbu	a4,0(a5)
   2266c:	02f00793          	li	a5,47
   22670:	02e7f463          	bgeu	a5,a4,22698 <ee_vsprintf+0x1d0>
   22674:	fb842783          	lw	a5,-72(s0)
   22678:	0007c703          	lbu	a4,0(a5)
   2267c:	03900793          	li	a5,57
   22680:	00e7ec63          	bltu	a5,a4,22698 <ee_vsprintf+0x1d0>
   22684:	fb840793          	addi	a5,s0,-72
   22688:	00078513          	mv	a0,a5
   2268c:	911fe0ef          	jal	ra,20f9c <skip_atoi>
   22690:	fca42823          	sw	a0,-48(s0)
   22694:	0340006f          	j	226c8 <ee_vsprintf+0x200>
   22698:	fb842783          	lw	a5,-72(s0)
   2269c:	0007c703          	lbu	a4,0(a5)
   226a0:	02a00793          	li	a5,42
   226a4:	02f71263          	bne	a4,a5,226c8 <ee_vsprintf+0x200>
   226a8:	fb842783          	lw	a5,-72(s0)
   226ac:	00178793          	addi	a5,a5,1
   226b0:	faf42c23          	sw	a5,-72(s0)
   226b4:	fb442783          	lw	a5,-76(s0)
   226b8:	00478713          	addi	a4,a5,4
   226bc:	fae42a23          	sw	a4,-76(s0)
   226c0:	0007a783          	lw	a5,0(a5)
   226c4:	fcf42823          	sw	a5,-48(s0)
   226c8:	fd042783          	lw	a5,-48(s0)
   226cc:	0007d463          	bgez	a5,226d4 <ee_vsprintf+0x20c>
   226d0:	fc042823          	sw	zero,-48(s0)
   226d4:	fff00793          	li	a5,-1
   226d8:	fcf42623          	sw	a5,-52(s0)
   226dc:	fb842783          	lw	a5,-72(s0)
   226e0:	0007c703          	lbu	a4,0(a5)
   226e4:	06c00793          	li	a5,108
   226e8:	00f70a63          	beq	a4,a5,226fc <ee_vsprintf+0x234>
   226ec:	fb842783          	lw	a5,-72(s0)
   226f0:	0007c703          	lbu	a4,0(a5)
   226f4:	04c00793          	li	a5,76
   226f8:	00f71e63          	bne	a4,a5,22714 <ee_vsprintf+0x24c>
   226fc:	fb842783          	lw	a5,-72(s0)
   22700:	0007c783          	lbu	a5,0(a5)
   22704:	fcf42623          	sw	a5,-52(s0)
   22708:	fb842783          	lw	a5,-72(s0)
   2270c:	00178793          	addi	a5,a5,1
   22710:	faf42c23          	sw	a5,-72(s0)
   22714:	00a00793          	li	a5,10
   22718:	fef42223          	sw	a5,-28(s0)
   2271c:	fb842783          	lw	a5,-72(s0)
   22720:	0007c783          	lbu	a5,0(a5)
   22724:	fbf78793          	addi	a5,a5,-65
   22728:	03700713          	li	a4,55
   2272c:	2ef76863          	bltu	a4,a5,22a1c <ee_vsprintf+0x554>
   22730:	00279713          	slli	a4,a5,0x2
   22734:	00005797          	auipc	a5,0x5
   22738:	80478793          	addi	a5,a5,-2044 # 26f38 <main+0x578>
   2273c:	00f707b3          	add	a5,a4,a5
   22740:	0007a703          	lw	a4,0(a5)
   22744:	00004797          	auipc	a5,0x4
   22748:	7f478793          	addi	a5,a5,2036 # 26f38 <main+0x578>
   2274c:	00f707b3          	add	a5,a4,a5
   22750:	00078067          	jr	a5
   22754:	fd842783          	lw	a5,-40(s0)
   22758:	0107f793          	andi	a5,a5,16
   2275c:	02079863          	bnez	a5,2278c <ee_vsprintf+0x2c4>
   22760:	0180006f          	j	22778 <ee_vsprintf+0x2b0>
   22764:	fe042783          	lw	a5,-32(s0)
   22768:	00178713          	addi	a4,a5,1
   2276c:	fee42023          	sw	a4,-32(s0)
   22770:	02000713          	li	a4,32
   22774:	00e78023          	sb	a4,0(a5)
   22778:	fd442783          	lw	a5,-44(s0)
   2277c:	fff78793          	addi	a5,a5,-1
   22780:	fcf42a23          	sw	a5,-44(s0)
   22784:	fd442783          	lw	a5,-44(s0)
   22788:	fcf04ee3          	bgtz	a5,22764 <ee_vsprintf+0x29c>
   2278c:	fb442783          	lw	a5,-76(s0)
   22790:	00478713          	addi	a4,a5,4
   22794:	fae42a23          	sw	a4,-76(s0)
   22798:	0007a683          	lw	a3,0(a5)
   2279c:	fe042783          	lw	a5,-32(s0)
   227a0:	00178713          	addi	a4,a5,1
   227a4:	fee42023          	sw	a4,-32(s0)
   227a8:	0ff6f713          	andi	a4,a3,255
   227ac:	00e78023          	sb	a4,0(a5)
   227b0:	0180006f          	j	227c8 <ee_vsprintf+0x300>
   227b4:	fe042783          	lw	a5,-32(s0)
   227b8:	00178713          	addi	a4,a5,1
   227bc:	fee42023          	sw	a4,-32(s0)
   227c0:	02000713          	li	a4,32
   227c4:	00e78023          	sb	a4,0(a5)
   227c8:	fd442783          	lw	a5,-44(s0)
   227cc:	fff78793          	addi	a5,a5,-1
   227d0:	fcf42a23          	sw	a5,-44(s0)
   227d4:	fd442783          	lw	a5,-44(s0)
   227d8:	fcf04ee3          	bgtz	a5,227b4 <ee_vsprintf+0x2ec>
   227dc:	31c0006f          	j	22af8 <ee_vsprintf+0x630>
   227e0:	fb442783          	lw	a5,-76(s0)
   227e4:	00478713          	addi	a4,a5,4
   227e8:	fae42a23          	sw	a4,-76(s0)
   227ec:	0007a783          	lw	a5,0(a5)
   227f0:	fcf42e23          	sw	a5,-36(s0)
   227f4:	fdc42783          	lw	a5,-36(s0)
   227f8:	00079863          	bnez	a5,22808 <ee_vsprintf+0x340>
   227fc:	00004797          	auipc	a5,0x4
   22800:	6f078793          	addi	a5,a5,1776 # 26eec <main+0x52c>
   22804:	fcf42e23          	sw	a5,-36(s0)
   22808:	fd042783          	lw	a5,-48(s0)
   2280c:	00078593          	mv	a1,a5
   22810:	fdc42503          	lw	a0,-36(s0)
   22814:	540010ef          	jal	ra,23d54 <strnlen>
   22818:	00050793          	mv	a5,a0
   2281c:	fcf42423          	sw	a5,-56(s0)
   22820:	fd842783          	lw	a5,-40(s0)
   22824:	0107f793          	andi	a5,a5,16
   22828:	02079863          	bnez	a5,22858 <ee_vsprintf+0x390>
   2282c:	0180006f          	j	22844 <ee_vsprintf+0x37c>
   22830:	fe042783          	lw	a5,-32(s0)
   22834:	00178713          	addi	a4,a5,1
   22838:	fee42023          	sw	a4,-32(s0)
   2283c:	02000713          	li	a4,32
   22840:	00e78023          	sb	a4,0(a5)
   22844:	fd442783          	lw	a5,-44(s0)
   22848:	fff78713          	addi	a4,a5,-1
   2284c:	fce42a23          	sw	a4,-44(s0)
   22850:	fc842703          	lw	a4,-56(s0)
   22854:	fcf74ee3          	blt	a4,a5,22830 <ee_vsprintf+0x368>
   22858:	fe042423          	sw	zero,-24(s0)
   2285c:	0300006f          	j	2288c <ee_vsprintf+0x3c4>
   22860:	fdc42703          	lw	a4,-36(s0)
   22864:	00170793          	addi	a5,a4,1
   22868:	fcf42e23          	sw	a5,-36(s0)
   2286c:	fe042783          	lw	a5,-32(s0)
   22870:	00178693          	addi	a3,a5,1
   22874:	fed42023          	sw	a3,-32(s0)
   22878:	00074703          	lbu	a4,0(a4)
   2287c:	00e78023          	sb	a4,0(a5)
   22880:	fe842783          	lw	a5,-24(s0)
   22884:	00178793          	addi	a5,a5,1
   22888:	fef42423          	sw	a5,-24(s0)
   2288c:	fe842703          	lw	a4,-24(s0)
   22890:	fc842783          	lw	a5,-56(s0)
   22894:	fcf746e3          	blt	a4,a5,22860 <ee_vsprintf+0x398>
   22898:	0180006f          	j	228b0 <ee_vsprintf+0x3e8>
   2289c:	fe042783          	lw	a5,-32(s0)
   228a0:	00178713          	addi	a4,a5,1
   228a4:	fee42023          	sw	a4,-32(s0)
   228a8:	02000713          	li	a4,32
   228ac:	00e78023          	sb	a4,0(a5)
   228b0:	fd442783          	lw	a5,-44(s0)
   228b4:	fff78713          	addi	a4,a5,-1
   228b8:	fce42a23          	sw	a4,-44(s0)
   228bc:	fc842703          	lw	a4,-56(s0)
   228c0:	fcf74ee3          	blt	a4,a5,2289c <ee_vsprintf+0x3d4>
   228c4:	2340006f          	j	22af8 <ee_vsprintf+0x630>
   228c8:	fd442703          	lw	a4,-44(s0)
   228cc:	fff00793          	li	a5,-1
   228d0:	00f71c63          	bne	a4,a5,228e8 <ee_vsprintf+0x420>
   228d4:	00800793          	li	a5,8
   228d8:	fcf42a23          	sw	a5,-44(s0)
   228dc:	fd842783          	lw	a5,-40(s0)
   228e0:	0017e793          	ori	a5,a5,1
   228e4:	fcf42c23          	sw	a5,-40(s0)
   228e8:	fb442783          	lw	a5,-76(s0)
   228ec:	00478713          	addi	a4,a5,4
   228f0:	fae42a23          	sw	a4,-76(s0)
   228f4:	0007a783          	lw	a5,0(a5)
   228f8:	00078593          	mv	a1,a5
   228fc:	fd842783          	lw	a5,-40(s0)
   22900:	fd042703          	lw	a4,-48(s0)
   22904:	fd442683          	lw	a3,-44(s0)
   22908:	01000613          	li	a2,16
   2290c:	fe042503          	lw	a0,-32(s0)
   22910:	a35fe0ef          	jal	ra,21344 <number>
   22914:	fea42023          	sw	a0,-32(s0)
   22918:	1e00006f          	j	22af8 <ee_vsprintf+0x630>
   2291c:	fd842783          	lw	a5,-40(s0)
   22920:	0407e793          	ori	a5,a5,64
   22924:	fcf42c23          	sw	a5,-40(s0)
   22928:	fcc42703          	lw	a4,-52(s0)
   2292c:	06c00793          	li	a5,108
   22930:	02f71a63          	bne	a4,a5,22964 <ee_vsprintf+0x49c>
   22934:	fb442783          	lw	a5,-76(s0)
   22938:	00478713          	addi	a4,a5,4
   2293c:	fae42a23          	sw	a4,-76(s0)
   22940:	0007a783          	lw	a5,0(a5)
   22944:	fd842703          	lw	a4,-40(s0)
   22948:	fd042683          	lw	a3,-48(s0)
   2294c:	fd442603          	lw	a2,-44(s0)
   22950:	00078593          	mv	a1,a5
   22954:	fe042503          	lw	a0,-32(s0)
   22958:	d79fe0ef          	jal	ra,216d0 <eaddr>
   2295c:	fea42023          	sw	a0,-32(s0)
   22960:	1980006f          	j	22af8 <ee_vsprintf+0x630>
   22964:	fb442783          	lw	a5,-76(s0)
   22968:	00478713          	addi	a4,a5,4
   2296c:	fae42a23          	sw	a4,-76(s0)
   22970:	0007a783          	lw	a5,0(a5)
   22974:	fd842703          	lw	a4,-40(s0)
   22978:	fd042683          	lw	a3,-48(s0)
   2297c:	fd442603          	lw	a2,-44(s0)
   22980:	00078593          	mv	a1,a5
   22984:	fe042503          	lw	a0,-32(s0)
   22988:	f0dfe0ef          	jal	ra,21894 <iaddr>
   2298c:	fea42023          	sw	a0,-32(s0)
   22990:	1680006f          	j	22af8 <ee_vsprintf+0x630>
   22994:	00800793          	li	a5,8
   22998:	fef42223          	sw	a5,-28(s0)
   2299c:	0e00006f          	j	22a7c <ee_vsprintf+0x5b4>
   229a0:	fd842783          	lw	a5,-40(s0)
   229a4:	0407e793          	ori	a5,a5,64
   229a8:	fcf42c23          	sw	a5,-40(s0)
   229ac:	01000793          	li	a5,16
   229b0:	fef42223          	sw	a5,-28(s0)
   229b4:	0c80006f          	j	22a7c <ee_vsprintf+0x5b4>
   229b8:	fd842783          	lw	a5,-40(s0)
   229bc:	0027e793          	ori	a5,a5,2
   229c0:	fcf42c23          	sw	a5,-40(s0)
   229c4:	0b40006f          	j	22a78 <ee_vsprintf+0x5b0>
   229c8:	fb442783          	lw	a5,-76(s0)
   229cc:	00778793          	addi	a5,a5,7
   229d0:	ff87f793          	andi	a5,a5,-8
   229d4:	00878713          	addi	a4,a5,8
   229d8:	fae42a23          	sw	a4,-76(s0)
   229dc:	0007a503          	lw	a0,0(a5)
   229e0:	0047a583          	lw	a1,4(a5)
   229e4:	fb842783          	lw	a5,-72(s0)
   229e8:	0007c703          	lbu	a4,0(a5)
   229ec:	fd842783          	lw	a5,-40(s0)
   229f0:	0027e793          	ori	a5,a5,2
   229f4:	00078813          	mv	a6,a5
   229f8:	00070793          	mv	a5,a4
   229fc:	fd042703          	lw	a4,-48(s0)
   22a00:	fd442683          	lw	a3,-44(s0)
   22a04:	00058613          	mv	a2,a1
   22a08:	00050593          	mv	a1,a0
   22a0c:	fe042503          	lw	a0,-32(s0)
   22a10:	81dff0ef          	jal	ra,2222c <flt>
   22a14:	fea42023          	sw	a0,-32(s0)
   22a18:	0e00006f          	j	22af8 <ee_vsprintf+0x630>
   22a1c:	fb842783          	lw	a5,-72(s0)
   22a20:	0007c703          	lbu	a4,0(a5)
   22a24:	02500793          	li	a5,37
   22a28:	00f70c63          	beq	a4,a5,22a40 <ee_vsprintf+0x578>
   22a2c:	fe042783          	lw	a5,-32(s0)
   22a30:	00178713          	addi	a4,a5,1
   22a34:	fee42023          	sw	a4,-32(s0)
   22a38:	02500713          	li	a4,37
   22a3c:	00e78023          	sb	a4,0(a5)
   22a40:	fb842783          	lw	a5,-72(s0)
   22a44:	0007c783          	lbu	a5,0(a5)
   22a48:	02078063          	beqz	a5,22a68 <ee_vsprintf+0x5a0>
   22a4c:	fb842703          	lw	a4,-72(s0)
   22a50:	fe042783          	lw	a5,-32(s0)
   22a54:	00178693          	addi	a3,a5,1
   22a58:	fed42023          	sw	a3,-32(s0)
   22a5c:	00074703          	lbu	a4,0(a4)
   22a60:	00e78023          	sb	a4,0(a5)
   22a64:	0940006f          	j	22af8 <ee_vsprintf+0x630>
   22a68:	fb842783          	lw	a5,-72(s0)
   22a6c:	fff78793          	addi	a5,a5,-1
   22a70:	faf42c23          	sw	a5,-72(s0)
   22a74:	0840006f          	j	22af8 <ee_vsprintf+0x630>
   22a78:	00000013          	nop
   22a7c:	fcc42703          	lw	a4,-52(s0)
   22a80:	06c00793          	li	a5,108
   22a84:	00f71e63          	bne	a4,a5,22aa0 <ee_vsprintf+0x5d8>
   22a88:	fb442783          	lw	a5,-76(s0)
   22a8c:	00478713          	addi	a4,a5,4
   22a90:	fae42a23          	sw	a4,-76(s0)
   22a94:	0007a783          	lw	a5,0(a5)
   22a98:	fef42623          	sw	a5,-20(s0)
   22a9c:	03c0006f          	j	22ad8 <ee_vsprintf+0x610>
   22aa0:	fd842783          	lw	a5,-40(s0)
   22aa4:	0027f793          	andi	a5,a5,2
   22aa8:	00078e63          	beqz	a5,22ac4 <ee_vsprintf+0x5fc>
   22aac:	fb442783          	lw	a5,-76(s0)
   22ab0:	00478713          	addi	a4,a5,4
   22ab4:	fae42a23          	sw	a4,-76(s0)
   22ab8:	0007a783          	lw	a5,0(a5)
   22abc:	fef42623          	sw	a5,-20(s0)
   22ac0:	0180006f          	j	22ad8 <ee_vsprintf+0x610>
   22ac4:	fb442783          	lw	a5,-76(s0)
   22ac8:	00478713          	addi	a4,a5,4
   22acc:	fae42a23          	sw	a4,-76(s0)
   22ad0:	0007a783          	lw	a5,0(a5)
   22ad4:	fef42623          	sw	a5,-20(s0)
   22ad8:	fec42583          	lw	a1,-20(s0)
   22adc:	fd842783          	lw	a5,-40(s0)
   22ae0:	fd042703          	lw	a4,-48(s0)
   22ae4:	fd442683          	lw	a3,-44(s0)
   22ae8:	fe442603          	lw	a2,-28(s0)
   22aec:	fe042503          	lw	a0,-32(s0)
   22af0:	855fe0ef          	jal	ra,21344 <number>
   22af4:	fea42023          	sw	a0,-32(s0)
   22af8:	fb842783          	lw	a5,-72(s0)
   22afc:	00178793          	addi	a5,a5,1
   22b00:	faf42c23          	sw	a5,-72(s0)
   22b04:	fb842783          	lw	a5,-72(s0)
   22b08:	0007c783          	lbu	a5,0(a5)
   22b0c:	9e0792e3          	bnez	a5,224f0 <ee_vsprintf+0x28>
   22b10:	fe042783          	lw	a5,-32(s0)
   22b14:	00078023          	sb	zero,0(a5)
   22b18:	fe042703          	lw	a4,-32(s0)
   22b1c:	fbc42783          	lw	a5,-68(s0)
   22b20:	40f707b3          	sub	a5,a4,a5
   22b24:	00078513          	mv	a0,a5
   22b28:	04c12083          	lw	ra,76(sp)
   22b2c:	04812403          	lw	s0,72(sp)
   22b30:	05010113          	addi	sp,sp,80
   22b34:	00008067          	ret

00022b38 <puts>:
   22b38:	fd010113          	addi	sp,sp,-48
   22b3c:	02112623          	sw	ra,44(sp)
   22b40:	02812423          	sw	s0,40(sp)
   22b44:	03010413          	addi	s0,sp,48
   22b48:	fca42e23          	sw	a0,-36(s0)
   22b4c:	fe042623          	sw	zero,-20(s0)
   22b50:	0300006f          	j	22b80 <puts+0x48>
   22b54:	fdc42783          	lw	a5,-36(s0)
   22b58:	00178713          	addi	a4,a5,1
   22b5c:	fce42e23          	sw	a4,-36(s0)
   22b60:	0007c783          	lbu	a5,0(a5)
   22b64:	00078513          	mv	a0,a5
   22b68:	9dcfe0ef          	jal	ra,20d44 <putchar>
   22b6c:	00050713          	mv	a4,a0
   22b70:	fff00793          	li	a5,-1
   22b74:	00f71663          	bne	a4,a5,22b80 <puts+0x48>
   22b78:	fff00793          	li	a5,-1
   22b7c:	0300006f          	j	22bac <puts+0x74>
   22b80:	fdc42783          	lw	a5,-36(s0)
   22b84:	0007c783          	lbu	a5,0(a5)
   22b88:	fc0796e3          	bnez	a5,22b54 <puts+0x1c>
   22b8c:	00a00513          	li	a0,10
   22b90:	9b4fe0ef          	jal	ra,20d44 <putchar>
   22b94:	00050713          	mv	a4,a0
   22b98:	fff00793          	li	a5,-1
   22b9c:	00f71663          	bne	a4,a5,22ba8 <puts+0x70>
   22ba0:	fff00793          	li	a5,-1
   22ba4:	0080006f          	j	22bac <puts+0x74>
   22ba8:	00100793          	li	a5,1
   22bac:	00078513          	mv	a0,a5
   22bb0:	02c12083          	lw	ra,44(sp)
   22bb4:	02812403          	lw	s0,40(sp)
   22bb8:	03010113          	addi	sp,sp,48
   22bbc:	00008067          	ret

00022bc0 <printf>:
   22bc0:	eb010113          	addi	sp,sp,-336
   22bc4:	12112623          	sw	ra,300(sp)
   22bc8:	12812423          	sw	s0,296(sp)
   22bcc:	13010413          	addi	s0,sp,304
   22bd0:	eca42e23          	sw	a0,-292(s0)
   22bd4:	00b42223          	sw	a1,4(s0)
   22bd8:	00c42423          	sw	a2,8(s0)
   22bdc:	00d42623          	sw	a3,12(s0)
   22be0:	00e42823          	sw	a4,16(s0)
   22be4:	00f42a23          	sw	a5,20(s0)
   22be8:	01042c23          	sw	a6,24(s0)
   22bec:	01142e23          	sw	a7,28(s0)
   22bf0:	fe042423          	sw	zero,-24(s0)
   22bf4:	02040793          	addi	a5,s0,32
   22bf8:	ecf42c23          	sw	a5,-296(s0)
   22bfc:	ed842783          	lw	a5,-296(s0)
   22c00:	fe478793          	addi	a5,a5,-28
   22c04:	eef42223          	sw	a5,-284(s0)
   22c08:	ee442703          	lw	a4,-284(s0)
   22c0c:	ee840793          	addi	a5,s0,-280
   22c10:	00070613          	mv	a2,a4
   22c14:	edc42583          	lw	a1,-292(s0)
   22c18:	00078513          	mv	a0,a5
   22c1c:	8adff0ef          	jal	ra,224c8 <ee_vsprintf>
   22c20:	ee840793          	addi	a5,s0,-280
   22c24:	fef42623          	sw	a5,-20(s0)
   22c28:	0400006f          	j	22c68 <printf+0xa8>
   22c2c:	fec42783          	lw	a5,-20(s0)
   22c30:	0007c783          	lbu	a5,0(a5)
   22c34:	00078513          	mv	a0,a5
   22c38:	90cfe0ef          	jal	ra,20d44 <putchar>
   22c3c:	fe842783          	lw	a5,-24(s0)
   22c40:	00178793          	addi	a5,a5,1
   22c44:	fef42423          	sw	a5,-24(s0)
   22c48:	fec42783          	lw	a5,-20(s0)
   22c4c:	00178793          	addi	a5,a5,1
   22c50:	fef42623          	sw	a5,-20(s0)
   22c54:	fe842703          	lw	a4,-24(s0)
   22c58:	10000793          	li	a5,256
   22c5c:	00f71663          	bne	a4,a5,22c68 <printf+0xa8>
   22c60:	fe842783          	lw	a5,-24(s0)
   22c64:	0140006f          	j	22c78 <printf+0xb8>
   22c68:	fec42783          	lw	a5,-20(s0)
   22c6c:	0007c783          	lbu	a5,0(a5)
   22c70:	fa079ee3          	bnez	a5,22c2c <printf+0x6c>
   22c74:	fe842783          	lw	a5,-24(s0)
   22c78:	00078513          	mv	a0,a5
   22c7c:	12c12083          	lw	ra,300(sp)
   22c80:	12812403          	lw	s0,296(sp)
   22c84:	15010113          	addi	sp,sp,336
   22c88:	00008067          	ret

00022c8c <sprintf>:
   22c8c:	fb010113          	addi	sp,sp,-80
   22c90:	02112623          	sw	ra,44(sp)
   22c94:	02812423          	sw	s0,40(sp)
   22c98:	03010413          	addi	s0,sp,48
   22c9c:	fca42e23          	sw	a0,-36(s0)
   22ca0:	fcb42c23          	sw	a1,-40(s0)
   22ca4:	00c42423          	sw	a2,8(s0)
   22ca8:	00d42623          	sw	a3,12(s0)
   22cac:	00e42823          	sw	a4,16(s0)
   22cb0:	00f42a23          	sw	a5,20(s0)
   22cb4:	01042c23          	sw	a6,24(s0)
   22cb8:	01142e23          	sw	a7,28(s0)
   22cbc:	fe042623          	sw	zero,-20(s0)
   22cc0:	02040793          	addi	a5,s0,32
   22cc4:	fcf42a23          	sw	a5,-44(s0)
   22cc8:	fd442783          	lw	a5,-44(s0)
   22ccc:	fe878793          	addi	a5,a5,-24
   22cd0:	fef42423          	sw	a5,-24(s0)
   22cd4:	fe842783          	lw	a5,-24(s0)
   22cd8:	00078613          	mv	a2,a5
   22cdc:	fd842583          	lw	a1,-40(s0)
   22ce0:	fdc42503          	lw	a0,-36(s0)
   22ce4:	fe4ff0ef          	jal	ra,224c8 <ee_vsprintf>
   22ce8:	fec42783          	lw	a5,-20(s0)
   22cec:	00078513          	mv	a0,a5
   22cf0:	02c12083          	lw	ra,44(sp)
   22cf4:	02812403          	lw	s0,40(sp)
   22cf8:	05010113          	addi	sp,sp,80
   22cfc:	00008067          	ret

00022d00 <_sbrk>:
   22d00:	fe010113          	addi	sp,sp,-32
   22d04:	00812e23          	sw	s0,28(sp)
   22d08:	02010413          	addi	s0,sp,32
   22d0c:	fea42623          	sw	a0,-20(s0)
   22d10:	fff00793          	li	a5,-1
   22d14:	00078513          	mv	a0,a5
   22d18:	01c12403          	lw	s0,28(sp)
   22d1c:	02010113          	addi	sp,sp,32
   22d20:	00008067          	ret

00022d24 <cvt>:
   22d24:	fb010113          	addi	sp,sp,-80
   22d28:	04112623          	sw	ra,76(sp)
   22d2c:	04812423          	sw	s0,72(sp)
   22d30:	05010413          	addi	s0,sp,80
   22d34:	fca42423          	sw	a0,-56(s0)
   22d38:	fcb42623          	sw	a1,-52(s0)
   22d3c:	fcc42223          	sw	a2,-60(s0)
   22d40:	fcd42023          	sw	a3,-64(s0)
   22d44:	fae42e23          	sw	a4,-68(s0)
   22d48:	faf42c23          	sw	a5,-72(s0)
   22d4c:	fb042a23          	sw	a6,-76(s0)
   22d50:	fc442783          	lw	a5,-60(s0)
   22d54:	0007d463          	bgez	a5,22d5c <cvt+0x38>
   22d58:	fc042223          	sw	zero,-60(s0)
   22d5c:	fc442703          	lw	a4,-60(s0)
   22d60:	04e00793          	li	a5,78
   22d64:	00e7d663          	bge	a5,a4,22d70 <cvt+0x4c>
   22d68:	04e00793          	li	a5,78
   22d6c:	fcf42223          	sw	a5,-60(s0)
   22d70:	fe042623          	sw	zero,-20(s0)
   22d74:	fbc42783          	lw	a5,-68(s0)
   22d78:	0007a023          	sw	zero,0(a5)
   22d7c:	fb842783          	lw	a5,-72(s0)
   22d80:	fef42423          	sw	a5,-24(s0)
   22d84:	00000613          	li	a2,0
   22d88:	00000693          	li	a3,0
   22d8c:	fc842503          	lw	a0,-56(s0)
   22d90:	fcc42583          	lw	a1,-52(s0)
   22d94:	024020ef          	jal	ra,24db8 <__ledf2>
   22d98:	00050793          	mv	a5,a0
   22d9c:	0207d463          	bgez	a5,22dc4 <cvt+0xa0>
   22da0:	fbc42783          	lw	a5,-68(s0)
   22da4:	00100713          	li	a4,1
   22da8:	00e7a023          	sw	a4,0(a5)
   22dac:	fc842783          	lw	a5,-56(s0)
   22db0:	fcf42423          	sw	a5,-56(s0)
   22db4:	fcc42703          	lw	a4,-52(s0)
   22db8:	800007b7          	lui	a5,0x80000
   22dbc:	00f747b3          	xor	a5,a4,a5
   22dc0:	fcf42623          	sw	a5,-52(s0)
   22dc4:	fd840793          	addi	a5,s0,-40
   22dc8:	00078613          	mv	a2,a5
   22dcc:	fc842503          	lw	a0,-56(s0)
   22dd0:	fcc42583          	lw	a1,-52(s0)
   22dd4:	5f9000ef          	jal	ra,23bcc <modf>
   22dd8:	fca42423          	sw	a0,-56(s0)
   22ddc:	fcb42623          	sw	a1,-52(s0)
   22de0:	fb842783          	lw	a5,-72(s0)
   22de4:	05078793          	addi	a5,a5,80 # 80000050 <__global_pointer$+0x7ffd85e4>
   22de8:	fef42223          	sw	a5,-28(s0)
   22dec:	fd842703          	lw	a4,-40(s0)
   22df0:	fdc42783          	lw	a5,-36(s0)
   22df4:	00000613          	li	a2,0
   22df8:	00000693          	li	a3,0
   22dfc:	00070513          	mv	a0,a4
   22e00:	00078593          	mv	a1,a5
   22e04:	645010ef          	jal	ra,24c48 <__eqdf2>
   22e08:	00050793          	mv	a5,a0
   22e0c:	14078863          	beqz	a5,22f5c <cvt+0x238>
   22e10:	fb842783          	lw	a5,-72(s0)
   22e14:	05078793          	addi	a5,a5,80
   22e18:	fef42223          	sw	a5,-28(s0)
   22e1c:	0e00006f          	j	22efc <cvt+0x1d8>
   22e20:	fd842703          	lw	a4,-40(s0)
   22e24:	fdc42783          	lw	a5,-36(s0)
   22e28:	00004697          	auipc	a3,0x4
   22e2c:	20068693          	addi	a3,a3,512 # 27028 <main+0x668>
   22e30:	0006a603          	lw	a2,0(a3)
   22e34:	0046a683          	lw	a3,4(a3)
   22e38:	00070513          	mv	a0,a4
   22e3c:	00078593          	mv	a1,a5
   22e40:	724010ef          	jal	ra,24564 <__divdf3>
   22e44:	00050713          	mv	a4,a0
   22e48:	00058793          	mv	a5,a1
   22e4c:	fd840693          	addi	a3,s0,-40
   22e50:	00068613          	mv	a2,a3
   22e54:	00070513          	mv	a0,a4
   22e58:	00078593          	mv	a1,a5
   22e5c:	571000ef          	jal	ra,23bcc <modf>
   22e60:	00050713          	mv	a4,a0
   22e64:	00058793          	mv	a5,a1
   22e68:	fce42823          	sw	a4,-48(s0)
   22e6c:	fcf42a23          	sw	a5,-44(s0)
   22e70:	fd042703          	lw	a4,-48(s0)
   22e74:	fd442783          	lw	a5,-44(s0)
   22e78:	00004697          	auipc	a3,0x4
   22e7c:	1b868693          	addi	a3,a3,440 # 27030 <main+0x670>
   22e80:	0006a603          	lw	a2,0(a3)
   22e84:	0046a683          	lw	a3,4(a3)
   22e88:	00070513          	mv	a0,a4
   22e8c:	00078593          	mv	a1,a5
   22e90:	6fd000ef          	jal	ra,23d8c <__adddf3>
   22e94:	00050713          	mv	a4,a0
   22e98:	00058793          	mv	a5,a1
   22e9c:	00070513          	mv	a0,a4
   22ea0:	00078593          	mv	a1,a5
   22ea4:	00004797          	auipc	a5,0x4
   22ea8:	18478793          	addi	a5,a5,388 # 27028 <main+0x668>
   22eac:	0007a603          	lw	a2,0(a5)
   22eb0:	0047a683          	lw	a3,4(a5)
   22eb4:	7e9010ef          	jal	ra,24e9c <__muldf3>
   22eb8:	00050713          	mv	a4,a0
   22ebc:	00058793          	mv	a5,a1
   22ec0:	00070513          	mv	a0,a4
   22ec4:	00078593          	mv	a1,a5
   22ec8:	58d020ef          	jal	ra,25c54 <__fixdfsi>
   22ecc:	00050793          	mv	a5,a0
   22ed0:	0ff7f793          	andi	a5,a5,255
   22ed4:	fe442703          	lw	a4,-28(s0)
   22ed8:	fff70713          	addi	a4,a4,-1
   22edc:	fee42223          	sw	a4,-28(s0)
   22ee0:	03078793          	addi	a5,a5,48
   22ee4:	0ff7f713          	andi	a4,a5,255
   22ee8:	fe442783          	lw	a5,-28(s0)
   22eec:	00e78023          	sb	a4,0(a5)
   22ef0:	fec42783          	lw	a5,-20(s0)
   22ef4:	00178793          	addi	a5,a5,1
   22ef8:	fef42623          	sw	a5,-20(s0)
   22efc:	fd842703          	lw	a4,-40(s0)
   22f00:	fdc42783          	lw	a5,-36(s0)
   22f04:	00000613          	li	a2,0
   22f08:	00000693          	li	a3,0
   22f0c:	00070513          	mv	a0,a4
   22f10:	00078593          	mv	a1,a5
   22f14:	535010ef          	jal	ra,24c48 <__eqdf2>
   22f18:	00050793          	mv	a5,a0
   22f1c:	f00792e3          	bnez	a5,22e20 <cvt+0xfc>
   22f20:	0280006f          	j	22f48 <cvt+0x224>
   22f24:	fe442703          	lw	a4,-28(s0)
   22f28:	00170793          	addi	a5,a4,1
   22f2c:	fef42223          	sw	a5,-28(s0)
   22f30:	fe842783          	lw	a5,-24(s0)
   22f34:	00178693          	addi	a3,a5,1
   22f38:	fed42423          	sw	a3,-24(s0)
   22f3c:	00074703          	lbu	a4,0(a4)
   22f40:	0ff77713          	andi	a4,a4,255
   22f44:	00e78023          	sb	a4,0(a5)
   22f48:	fb842783          	lw	a5,-72(s0)
   22f4c:	05078793          	addi	a5,a5,80
   22f50:	fe442703          	lw	a4,-28(s0)
   22f54:	fcf768e3          	bltu	a4,a5,22f24 <cvt+0x200>
   22f58:	0980006f          	j	22ff0 <cvt+0x2cc>
   22f5c:	00000613          	li	a2,0
   22f60:	00000693          	li	a3,0
   22f64:	fc842503          	lw	a0,-56(s0)
   22f68:	fcc42583          	lw	a1,-52(s0)
   22f6c:	569010ef          	jal	ra,24cd4 <__gedf2>
   22f70:	00050793          	mv	a5,a0
   22f74:	06f05e63          	blez	a5,22ff0 <cvt+0x2cc>
   22f78:	0200006f          	j	22f98 <cvt+0x274>
   22f7c:	fd042703          	lw	a4,-48(s0)
   22f80:	fd442783          	lw	a5,-44(s0)
   22f84:	fce42423          	sw	a4,-56(s0)
   22f88:	fcf42623          	sw	a5,-52(s0)
   22f8c:	fec42783          	lw	a5,-20(s0)
   22f90:	fff78793          	addi	a5,a5,-1
   22f94:	fef42623          	sw	a5,-20(s0)
   22f98:	00004797          	auipc	a5,0x4
   22f9c:	09078793          	addi	a5,a5,144 # 27028 <main+0x668>
   22fa0:	0007a603          	lw	a2,0(a5)
   22fa4:	0047a683          	lw	a3,4(a5)
   22fa8:	fc842503          	lw	a0,-56(s0)
   22fac:	fcc42583          	lw	a1,-52(s0)
   22fb0:	6ed010ef          	jal	ra,24e9c <__muldf3>
   22fb4:	00050713          	mv	a4,a0
   22fb8:	00058793          	mv	a5,a1
   22fbc:	fce42823          	sw	a4,-48(s0)
   22fc0:	fcf42a23          	sw	a5,-44(s0)
   22fc4:	fd042703          	lw	a4,-48(s0)
   22fc8:	fd442783          	lw	a5,-44(s0)
   22fcc:	00004697          	auipc	a3,0x4
   22fd0:	06c68693          	addi	a3,a3,108 # 27038 <main+0x678>
   22fd4:	0006a603          	lw	a2,0(a3)
   22fd8:	0046a683          	lw	a3,4(a3)
   22fdc:	00070513          	mv	a0,a4
   22fe0:	00078593          	mv	a1,a5
   22fe4:	5d5010ef          	jal	ra,24db8 <__ledf2>
   22fe8:	00050793          	mv	a5,a0
   22fec:	f807c8e3          	bltz	a5,22f7c <cvt+0x258>
   22ff0:	fc442783          	lw	a5,-60(s0)
   22ff4:	fb842703          	lw	a4,-72(s0)
   22ff8:	00f707b3          	add	a5,a4,a5
   22ffc:	fef42223          	sw	a5,-28(s0)
   23000:	fb442783          	lw	a5,-76(s0)
   23004:	00079a63          	bnez	a5,23018 <cvt+0x2f4>
   23008:	fec42783          	lw	a5,-20(s0)
   2300c:	fe442703          	lw	a4,-28(s0)
   23010:	00f707b3          	add	a5,a4,a5
   23014:	fef42223          	sw	a5,-28(s0)
   23018:	fc042783          	lw	a5,-64(s0)
   2301c:	fec42703          	lw	a4,-20(s0)
   23020:	00e7a023          	sw	a4,0(a5)
   23024:	fe442703          	lw	a4,-28(s0)
   23028:	fb842783          	lw	a5,-72(s0)
   2302c:	08f77863          	bgeu	a4,a5,230bc <cvt+0x398>
   23030:	fb842783          	lw	a5,-72(s0)
   23034:	00078023          	sb	zero,0(a5)
   23038:	fb842783          	lw	a5,-72(s0)
   2303c:	1980006f          	j	231d4 <cvt+0x4b0>
   23040:	00004797          	auipc	a5,0x4
   23044:	fe878793          	addi	a5,a5,-24 # 27028 <main+0x668>
   23048:	0007a603          	lw	a2,0(a5)
   2304c:	0047a683          	lw	a3,4(a5)
   23050:	fc842503          	lw	a0,-56(s0)
   23054:	fcc42583          	lw	a1,-52(s0)
   23058:	645010ef          	jal	ra,24e9c <__muldf3>
   2305c:	00050713          	mv	a4,a0
   23060:	00058793          	mv	a5,a1
   23064:	fce42423          	sw	a4,-56(s0)
   23068:	fcf42623          	sw	a5,-52(s0)
   2306c:	fd040793          	addi	a5,s0,-48
   23070:	00078613          	mv	a2,a5
   23074:	fc842503          	lw	a0,-56(s0)
   23078:	fcc42583          	lw	a1,-52(s0)
   2307c:	351000ef          	jal	ra,23bcc <modf>
   23080:	fca42423          	sw	a0,-56(s0)
   23084:	fcb42623          	sw	a1,-52(s0)
   23088:	fd042703          	lw	a4,-48(s0)
   2308c:	fd442783          	lw	a5,-44(s0)
   23090:	00070513          	mv	a0,a4
   23094:	00078593          	mv	a1,a5
   23098:	3bd020ef          	jal	ra,25c54 <__fixdfsi>
   2309c:	00050793          	mv	a5,a0
   230a0:	0ff7f713          	andi	a4,a5,255
   230a4:	fe842783          	lw	a5,-24(s0)
   230a8:	00178693          	addi	a3,a5,1
   230ac:	fed42423          	sw	a3,-24(s0)
   230b0:	03070713          	addi	a4,a4,48
   230b4:	0ff77713          	andi	a4,a4,255
   230b8:	00e78023          	sb	a4,0(a5)
   230bc:	fe842703          	lw	a4,-24(s0)
   230c0:	fe442783          	lw	a5,-28(s0)
   230c4:	00e7ea63          	bltu	a5,a4,230d8 <cvt+0x3b4>
   230c8:	fb842783          	lw	a5,-72(s0)
   230cc:	05078793          	addi	a5,a5,80
   230d0:	fe842703          	lw	a4,-24(s0)
   230d4:	f6f766e3          	bltu	a4,a5,23040 <cvt+0x31c>
   230d8:	fb842783          	lw	a5,-72(s0)
   230dc:	05078793          	addi	a5,a5,80
   230e0:	fe442703          	lw	a4,-28(s0)
   230e4:	00f76c63          	bltu	a4,a5,230fc <cvt+0x3d8>
   230e8:	fb842783          	lw	a5,-72(s0)
   230ec:	04f78793          	addi	a5,a5,79
   230f0:	00078023          	sb	zero,0(a5)
   230f4:	fb842783          	lw	a5,-72(s0)
   230f8:	0dc0006f          	j	231d4 <cvt+0x4b0>
   230fc:	fe442783          	lw	a5,-28(s0)
   23100:	fef42423          	sw	a5,-24(s0)
   23104:	fe442783          	lw	a5,-28(s0)
   23108:	0007c783          	lbu	a5,0(a5)
   2310c:	0ff7f793          	andi	a5,a5,255
   23110:	00578793          	addi	a5,a5,5
   23114:	0ff7f713          	andi	a4,a5,255
   23118:	fe442783          	lw	a5,-28(s0)
   2311c:	00e78023          	sb	a4,0(a5)
   23120:	0940006f          	j	231b4 <cvt+0x490>
   23124:	fe442783          	lw	a5,-28(s0)
   23128:	03000713          	li	a4,48
   2312c:	00e78023          	sb	a4,0(a5)
   23130:	fe442703          	lw	a4,-28(s0)
   23134:	fb842783          	lw	a5,-72(s0)
   23138:	02e7f863          	bgeu	a5,a4,23168 <cvt+0x444>
   2313c:	fe442783          	lw	a5,-28(s0)
   23140:	fff78793          	addi	a5,a5,-1
   23144:	fef42223          	sw	a5,-28(s0)
   23148:	fe442783          	lw	a5,-28(s0)
   2314c:	0007c783          	lbu	a5,0(a5)
   23150:	0ff7f793          	andi	a5,a5,255
   23154:	00178793          	addi	a5,a5,1
   23158:	0ff7f713          	andi	a4,a5,255
   2315c:	fe442783          	lw	a5,-28(s0)
   23160:	00e78023          	sb	a4,0(a5)
   23164:	0500006f          	j	231b4 <cvt+0x490>
   23168:	fe442783          	lw	a5,-28(s0)
   2316c:	03100713          	li	a4,49
   23170:	00e78023          	sb	a4,0(a5)
   23174:	fc042783          	lw	a5,-64(s0)
   23178:	0007a783          	lw	a5,0(a5)
   2317c:	00178713          	addi	a4,a5,1
   23180:	fc042783          	lw	a5,-64(s0)
   23184:	00e7a023          	sw	a4,0(a5)
   23188:	fb442783          	lw	a5,-76(s0)
   2318c:	02079463          	bnez	a5,231b4 <cvt+0x490>
   23190:	fe842703          	lw	a4,-24(s0)
   23194:	fb842783          	lw	a5,-72(s0)
   23198:	00e7f863          	bgeu	a5,a4,231a8 <cvt+0x484>
   2319c:	fe842783          	lw	a5,-24(s0)
   231a0:	03000713          	li	a4,48
   231a4:	00e78023          	sb	a4,0(a5)
   231a8:	fe842783          	lw	a5,-24(s0)
   231ac:	00178793          	addi	a5,a5,1
   231b0:	fef42423          	sw	a5,-24(s0)
   231b4:	fe442783          	lw	a5,-28(s0)
   231b8:	0007c783          	lbu	a5,0(a5)
   231bc:	0ff7f713          	andi	a4,a5,255
   231c0:	03900793          	li	a5,57
   231c4:	f6e7e0e3          	bltu	a5,a4,23124 <cvt+0x400>
   231c8:	fe842783          	lw	a5,-24(s0)
   231cc:	00078023          	sb	zero,0(a5)
   231d0:	fb842783          	lw	a5,-72(s0)
   231d4:	00078513          	mv	a0,a5
   231d8:	04c12083          	lw	ra,76(sp)
   231dc:	04812403          	lw	s0,72(sp)
   231e0:	05010113          	addi	sp,sp,80
   231e4:	00008067          	ret

000231e8 <ecvt>:
   231e8:	fd010113          	addi	sp,sp,-48
   231ec:	02112623          	sw	ra,44(sp)
   231f0:	02812423          	sw	s0,40(sp)
   231f4:	03010413          	addi	s0,sp,48
   231f8:	fea42423          	sw	a0,-24(s0)
   231fc:	feb42623          	sw	a1,-20(s0)
   23200:	fec42223          	sw	a2,-28(s0)
   23204:	fed42023          	sw	a3,-32(s0)
   23208:	fce42e23          	sw	a4,-36(s0)
   2320c:	00100813          	li	a6,1
   23210:	00004797          	auipc	a5,0x4
   23214:	06878793          	addi	a5,a5,104 # 27278 <CVTBUF>
   23218:	fdc42703          	lw	a4,-36(s0)
   2321c:	fe042683          	lw	a3,-32(s0)
   23220:	fe442603          	lw	a2,-28(s0)
   23224:	fe842503          	lw	a0,-24(s0)
   23228:	fec42583          	lw	a1,-20(s0)
   2322c:	af9ff0ef          	jal	ra,22d24 <cvt>
   23230:	00050793          	mv	a5,a0
   23234:	00078513          	mv	a0,a5
   23238:	02c12083          	lw	ra,44(sp)
   2323c:	02812403          	lw	s0,40(sp)
   23240:	03010113          	addi	sp,sp,48
   23244:	00008067          	ret

00023248 <ecvtbuf>:
   23248:	fd010113          	addi	sp,sp,-48
   2324c:	02112623          	sw	ra,44(sp)
   23250:	02812423          	sw	s0,40(sp)
   23254:	03010413          	addi	s0,sp,48
   23258:	fea42423          	sw	a0,-24(s0)
   2325c:	feb42623          	sw	a1,-20(s0)
   23260:	fec42223          	sw	a2,-28(s0)
   23264:	fed42023          	sw	a3,-32(s0)
   23268:	fce42e23          	sw	a4,-36(s0)
   2326c:	fcf42c23          	sw	a5,-40(s0)
   23270:	00100813          	li	a6,1
   23274:	fd842783          	lw	a5,-40(s0)
   23278:	fdc42703          	lw	a4,-36(s0)
   2327c:	fe042683          	lw	a3,-32(s0)
   23280:	fe442603          	lw	a2,-28(s0)
   23284:	fe842503          	lw	a0,-24(s0)
   23288:	fec42583          	lw	a1,-20(s0)
   2328c:	a99ff0ef          	jal	ra,22d24 <cvt>
   23290:	00050793          	mv	a5,a0
   23294:	00078513          	mv	a0,a5
   23298:	02c12083          	lw	ra,44(sp)
   2329c:	02812403          	lw	s0,40(sp)
   232a0:	03010113          	addi	sp,sp,48
   232a4:	00008067          	ret

000232a8 <fcvt>:
   232a8:	fd010113          	addi	sp,sp,-48
   232ac:	02112623          	sw	ra,44(sp)
   232b0:	02812423          	sw	s0,40(sp)
   232b4:	03010413          	addi	s0,sp,48
   232b8:	fea42423          	sw	a0,-24(s0)
   232bc:	feb42623          	sw	a1,-20(s0)
   232c0:	fec42223          	sw	a2,-28(s0)
   232c4:	fed42023          	sw	a3,-32(s0)
   232c8:	fce42e23          	sw	a4,-36(s0)
   232cc:	00000813          	li	a6,0
   232d0:	00004797          	auipc	a5,0x4
   232d4:	fa878793          	addi	a5,a5,-88 # 27278 <CVTBUF>
   232d8:	fdc42703          	lw	a4,-36(s0)
   232dc:	fe042683          	lw	a3,-32(s0)
   232e0:	fe442603          	lw	a2,-28(s0)
   232e4:	fe842503          	lw	a0,-24(s0)
   232e8:	fec42583          	lw	a1,-20(s0)
   232ec:	a39ff0ef          	jal	ra,22d24 <cvt>
   232f0:	00050793          	mv	a5,a0
   232f4:	00078513          	mv	a0,a5
   232f8:	02c12083          	lw	ra,44(sp)
   232fc:	02812403          	lw	s0,40(sp)
   23300:	03010113          	addi	sp,sp,48
   23304:	00008067          	ret

00023308 <fcvtbuf>:
   23308:	fd010113          	addi	sp,sp,-48
   2330c:	02112623          	sw	ra,44(sp)
   23310:	02812423          	sw	s0,40(sp)
   23314:	03010413          	addi	s0,sp,48
   23318:	fea42423          	sw	a0,-24(s0)
   2331c:	feb42623          	sw	a1,-20(s0)
   23320:	fec42223          	sw	a2,-28(s0)
   23324:	fed42023          	sw	a3,-32(s0)
   23328:	fce42e23          	sw	a4,-36(s0)
   2332c:	fcf42c23          	sw	a5,-40(s0)
   23330:	00000813          	li	a6,0
   23334:	fd842783          	lw	a5,-40(s0)
   23338:	fdc42703          	lw	a4,-36(s0)
   2333c:	fe042683          	lw	a3,-32(s0)
   23340:	fe442603          	lw	a2,-28(s0)
   23344:	fe842503          	lw	a0,-24(s0)
   23348:	fec42583          	lw	a1,-20(s0)
   2334c:	9d9ff0ef          	jal	ra,22d24 <cvt>
   23350:	00050793          	mv	a5,a0
   23354:	00078513          	mv	a0,a5
   23358:	02c12083          	lw	ra,44(sp)
   2335c:	02812403          	lw	s0,40(sp)
   23360:	03010113          	addi	sp,sp,48
   23364:	00008067          	ret

00023368 <init_uart>:
   23368:	ff010113          	addi	sp,sp,-16
   2336c:	00812623          	sw	s0,12(sp)
   23370:	01010413          	addi	s0,sp,16
   23374:	100007b7          	lui	a5,0x10000
   23378:	10078793          	addi	a5,a5,256 # 10000100 <__global_pointer$+0xffd8694>
   2337c:	08300713          	li	a4,131
   23380:	00e7a623          	sw	a4,12(a5)
   23384:	100007b7          	lui	a5,0x10000
   23388:	10078793          	addi	a5,a5,256 # 10000100 <__global_pointer$+0xffd8694>
   2338c:	01500713          	li	a4,21
   23390:	00e7a023          	sw	a4,0(a5)
   23394:	100007b7          	lui	a5,0x10000
   23398:	10078793          	addi	a5,a5,256 # 10000100 <__global_pointer$+0xffd8694>
   2339c:	0007a223          	sw	zero,4(a5)
   233a0:	100007b7          	lui	a5,0x10000
   233a4:	10078793          	addi	a5,a5,256 # 10000100 <__global_pointer$+0xffd8694>
   233a8:	00300713          	li	a4,3
   233ac:	00e7a623          	sw	a4,12(a5)
   233b0:	100007b7          	lui	a5,0x10000
   233b4:	10078793          	addi	a5,a5,256 # 10000100 <__global_pointer$+0xffd8694>
   233b8:	0007a223          	sw	zero,4(a5)
   233bc:	0ff0000f          	fence
   233c0:	00000013          	nop
   233c4:	00c12403          	lw	s0,12(sp)
   233c8:	01010113          	addi	sp,sp,16
   233cc:	00008067          	ret

000233d0 <tx_uart>:
   233d0:	fd010113          	addi	sp,sp,-48
   233d4:	02812623          	sw	s0,44(sp)
   233d8:	03010413          	addi	s0,sp,48
   233dc:	00050793          	mv	a5,a0
   233e0:	fcf40fa3          	sb	a5,-33(s0)
   233e4:	100007b7          	lui	a5,0x10000
   233e8:	10078793          	addi	a5,a5,256 # 10000100 <__global_pointer$+0xffd8694>
   233ec:	fdf44703          	lbu	a4,-33(s0)
   233f0:	00e7a023          	sw	a4,0(a5)
   233f4:	0ff0000f          	fence
   233f8:	100007b7          	lui	a5,0x10000
   233fc:	10078793          	addi	a5,a5,256 # 10000100 <__global_pointer$+0xffd8694>
   23400:	0147a783          	lw	a5,20(a5)
   23404:	fef407a3          	sb	a5,-17(s0)
   23408:	0ff0000f          	fence
   2340c:	fef44783          	lbu	a5,-17(s0)
   23410:	0207f793          	andi	a5,a5,32
   23414:	fef407a3          	sb	a5,-17(s0)
   23418:	fef44703          	lbu	a4,-17(s0)
   2341c:	02000793          	li	a5,32
   23420:	fcf71ce3          	bne	a4,a5,233f8 <tx_uart+0x28>
   23424:	00000013          	nop
   23428:	00000013          	nop
   2342c:	02c12403          	lw	s0,44(sp)
   23430:	03010113          	addi	sp,sp,48
   23434:	00008067          	ret

00023438 <rx_uart>:
   23438:	fe010113          	addi	sp,sp,-32
   2343c:	00812e23          	sw	s0,28(sp)
   23440:	02010413          	addi	s0,sp,32
   23444:	100007b7          	lui	a5,0x10000
   23448:	10078793          	addi	a5,a5,256 # 10000100 <__global_pointer$+0xffd8694>
   2344c:	0147a783          	lw	a5,20(a5)
   23450:	fef407a3          	sb	a5,-17(s0)
   23454:	0ff0000f          	fence
   23458:	fef44783          	lbu	a5,-17(s0)
   2345c:	0017f793          	andi	a5,a5,1
   23460:	fe0782e3          	beqz	a5,23444 <rx_uart+0xc>
   23464:	100007b7          	lui	a5,0x10000
   23468:	10078793          	addi	a5,a5,256 # 10000100 <__global_pointer$+0xffd8694>
   2346c:	0007a783          	lw	a5,0(a5)
   23470:	fef40723          	sb	a5,-18(s0)
   23474:	0ff0000f          	fence
   23478:	fee44783          	lbu	a5,-18(s0)
   2347c:	00078513          	mv	a0,a5
   23480:	01c12403          	lw	s0,28(sp)
   23484:	02010113          	addi	sp,sp,32
   23488:	00008067          	ret

0002348c <get_decimal>:
   2348c:	fb010113          	addi	sp,sp,-80
   23490:	04112623          	sw	ra,76(sp)
   23494:	04812423          	sw	s0,72(sp)
   23498:	05010413          	addi	s0,sp,80
   2349c:	00050793          	mv	a5,a0
   234a0:	faf40fa3          	sb	a5,-65(s0)
   234a4:	fe0401a3          	sb	zero,-29(s0)
   234a8:	fe042423          	sw	zero,-24(s0)
   234ac:	fc042e23          	sw	zero,-36(s0)
   234b0:	00100793          	li	a5,1
   234b4:	fef42223          	sw	a5,-28(s0)
   234b8:	00100793          	li	a5,1
   234bc:	fef407a3          	sb	a5,-17(s0)
   234c0:	0280006f          	j	234e8 <get_decimal+0x5c>
   234c4:	fe442703          	lw	a4,-28(s0)
   234c8:	00070793          	mv	a5,a4
   234cc:	00279793          	slli	a5,a5,0x2
   234d0:	00e787b3          	add	a5,a5,a4
   234d4:	00179793          	slli	a5,a5,0x1
   234d8:	fef42223          	sw	a5,-28(s0)
   234dc:	fef44783          	lbu	a5,-17(s0)
   234e0:	00178793          	addi	a5,a5,1
   234e4:	fef407a3          	sb	a5,-17(s0)
   234e8:	fef44703          	lbu	a4,-17(s0)
   234ec:	fbf44783          	lbu	a5,-65(s0)
   234f0:	fcf76ae3          	bltu	a4,a5,234c4 <get_decimal+0x38>
   234f4:	fe0407a3          	sb	zero,-17(s0)
   234f8:	fef44703          	lbu	a4,-17(s0)
   234fc:	fbf44783          	lbu	a5,-65(s0)
   23500:	0af77263          	bgeu	a4,a5,235a4 <get_decimal+0x118>
   23504:	f35ff0ef          	jal	ra,23438 <rx_uart>
   23508:	00050793          	mv	a5,a0
   2350c:	fef401a3          	sb	a5,-29(s0)
   23510:	fe344703          	lbu	a4,-29(s0)
   23514:	02f00793          	li	a5,47
   23518:	04e7f263          	bgeu	a5,a4,2355c <get_decimal+0xd0>
   2351c:	fe344703          	lbu	a4,-29(s0)
   23520:	03900793          	li	a5,57
   23524:	02e7ec63          	bltu	a5,a4,2355c <get_decimal+0xd0>
   23528:	fe344783          	lbu	a5,-29(s0)
   2352c:	00078513          	mv	a0,a5
   23530:	ea1ff0ef          	jal	ra,233d0 <tx_uart>
   23534:	fef44783          	lbu	a5,-17(s0)
   23538:	ff040713          	addi	a4,s0,-16
   2353c:	00f707b3          	add	a5,a4,a5
   23540:	fe344703          	lbu	a4,-29(s0)
   23544:	fce78e23          	sb	a4,-36(a5)
   23548:	00000013          	nop
   2354c:	fef44783          	lbu	a5,-17(s0)
   23550:	00178793          	addi	a5,a5,1
   23554:	fef407a3          	sb	a5,-17(s0)
   23558:	fa1ff06f          	j	234f8 <get_decimal+0x6c>
   2355c:	fe344703          	lbu	a4,-29(s0)
   23560:	00800793          	li	a5,8
   23564:	faf710e3          	bne	a4,a5,23504 <get_decimal+0x78>
   23568:	fef44783          	lbu	a5,-17(s0)
   2356c:	02078863          	beqz	a5,2359c <get_decimal+0x110>
   23570:	fe344783          	lbu	a5,-29(s0)
   23574:	00078513          	mv	a0,a5
   23578:	e59ff0ef          	jal	ra,233d0 <tx_uart>
   2357c:	02000513          	li	a0,32
   23580:	e51ff0ef          	jal	ra,233d0 <tx_uart>
   23584:	fe344783          	lbu	a5,-29(s0)
   23588:	00078513          	mv	a0,a5
   2358c:	e45ff0ef          	jal	ra,233d0 <tx_uart>
   23590:	fef44783          	lbu	a5,-17(s0)
   23594:	fff78793          	addi	a5,a5,-1
   23598:	fef407a3          	sb	a5,-17(s0)
   2359c:	00000013          	nop
   235a0:	f65ff06f          	j	23504 <get_decimal+0x78>
   235a4:	fef44703          	lbu	a4,-17(s0)
   235a8:	fbf44783          	lbu	a5,-65(s0)
   235ac:	f4f716e3          	bne	a4,a5,234f8 <get_decimal+0x6c>
   235b0:	e89ff0ef          	jal	ra,23438 <rx_uart>
   235b4:	00050793          	mv	a5,a0
   235b8:	fef401a3          	sb	a5,-29(s0)
   235bc:	fe344703          	lbu	a4,-29(s0)
   235c0:	00d00793          	li	a5,13
   235c4:	04f70263          	beq	a4,a5,23608 <get_decimal+0x17c>
   235c8:	fe344703          	lbu	a4,-29(s0)
   235cc:	00800793          	li	a5,8
   235d0:	f2f714e3          	bne	a4,a5,234f8 <get_decimal+0x6c>
   235d4:	fe344783          	lbu	a5,-29(s0)
   235d8:	00078513          	mv	a0,a5
   235dc:	df5ff0ef          	jal	ra,233d0 <tx_uart>
   235e0:	02000513          	li	a0,32
   235e4:	dedff0ef          	jal	ra,233d0 <tx_uart>
   235e8:	fe344783          	lbu	a5,-29(s0)
   235ec:	00078513          	mv	a0,a5
   235f0:	de1ff0ef          	jal	ra,233d0 <tx_uart>
   235f4:	fef44783          	lbu	a5,-17(s0)
   235f8:	fff78793          	addi	a5,a5,-1
   235fc:	fef407a3          	sb	a5,-17(s0)
   23600:	00000013          	nop
   23604:	ef5ff06f          	j	234f8 <get_decimal+0x6c>
   23608:	00000013          	nop
   2360c:	fe0407a3          	sb	zero,-17(s0)
   23610:	0700006f          	j	23680 <get_decimal+0x1f4>
   23614:	fef44783          	lbu	a5,-17(s0)
   23618:	ff040713          	addi	a4,s0,-16
   2361c:	00f707b3          	add	a5,a4,a5
   23620:	fdc7c703          	lbu	a4,-36(a5)
   23624:	fef44783          	lbu	a5,-17(s0)
   23628:	fd070713          	addi	a4,a4,-48
   2362c:	0ff77713          	andi	a4,a4,255
   23630:	ff040693          	addi	a3,s0,-16
   23634:	00f687b3          	add	a5,a3,a5
   23638:	fce78e23          	sb	a4,-36(a5)
   2363c:	fef44783          	lbu	a5,-17(s0)
   23640:	ff040713          	addi	a4,s0,-16
   23644:	00f707b3          	add	a5,a4,a5
   23648:	fdc7c783          	lbu	a5,-36(a5)
   2364c:	00078713          	mv	a4,a5
   23650:	fe442783          	lw	a5,-28(s0)
   23654:	02f707b3          	mul	a5,a4,a5
   23658:	fe842703          	lw	a4,-24(s0)
   2365c:	00f707b3          	add	a5,a4,a5
   23660:	fef42423          	sw	a5,-24(s0)
   23664:	fe442703          	lw	a4,-28(s0)
   23668:	00a00793          	li	a5,10
   2366c:	02f757b3          	divu	a5,a4,a5
   23670:	fef42223          	sw	a5,-28(s0)
   23674:	fef44783          	lbu	a5,-17(s0)
   23678:	00178793          	addi	a5,a5,1
   2367c:	fef407a3          	sb	a5,-17(s0)
   23680:	fef44703          	lbu	a4,-17(s0)
   23684:	fbf44783          	lbu	a5,-65(s0)
   23688:	f8f766e3          	bltu	a4,a5,23614 <get_decimal+0x188>
   2368c:	fe842783          	lw	a5,-24(s0)
   23690:	00078513          	mv	a0,a5
   23694:	04c12083          	lw	ra,76(sp)
   23698:	04812403          	lw	s0,72(sp)
   2369c:	05010113          	addi	sp,sp,80
   236a0:	00008067          	ret

000236a4 <get_long_int>:
   236a4:	fc010113          	addi	sp,sp,-64
   236a8:	02112e23          	sw	ra,60(sp)
   236ac:	02812c23          	sw	s0,56(sp)
   236b0:	04010413          	addi	s0,sp,64
   236b4:	00050793          	mv	a5,a0
   236b8:	fcf407a3          	sb	a5,-49(s0)
   236bc:	fe0403a3          	sb	zero,-25(s0)
   236c0:	fe042423          	sw	zero,-24(s0)
   236c4:	fe0407a3          	sb	zero,-17(s0)
   236c8:	fef44703          	lbu	a4,-17(s0)
   236cc:	fcf44783          	lbu	a5,-49(s0)
   236d0:	08f77c63          	bgeu	a4,a5,23768 <get_long_int+0xc4>
   236d4:	184000ef          	jal	ra,23858 <get_hex>
   236d8:	00050793          	mv	a5,a0
   236dc:	fef403a3          	sb	a5,-25(s0)
   236e0:	fe744703          	lbu	a4,-25(s0)
   236e4:	00800793          	li	a5,8
   236e8:	04f71e63          	bne	a4,a5,23744 <get_long_int+0xa0>
   236ec:	fef44783          	lbu	a5,-17(s0)
   236f0:	0e078c63          	beqz	a5,237e8 <get_long_int+0x144>
   236f4:	fe744783          	lbu	a5,-25(s0)
   236f8:	00078513          	mv	a0,a5
   236fc:	cd5ff0ef          	jal	ra,233d0 <tx_uart>
   23700:	02000513          	li	a0,32
   23704:	ccdff0ef          	jal	ra,233d0 <tx_uart>
   23708:	fe744783          	lbu	a5,-25(s0)
   2370c:	00078513          	mv	a0,a5
   23710:	cc1ff0ef          	jal	ra,233d0 <tx_uart>
   23714:	fe744783          	lbu	a5,-25(s0)
   23718:	00078513          	mv	a0,a5
   2371c:	cb5ff0ef          	jal	ra,233d0 <tx_uart>
   23720:	02000513          	li	a0,32
   23724:	cadff0ef          	jal	ra,233d0 <tx_uart>
   23728:	fe744783          	lbu	a5,-25(s0)
   2372c:	00078513          	mv	a0,a5
   23730:	ca1ff0ef          	jal	ra,233d0 <tx_uart>
   23734:	fef44783          	lbu	a5,-17(s0)
   23738:	fff78793          	addi	a5,a5,-1
   2373c:	fef407a3          	sb	a5,-17(s0)
   23740:	0a80006f          	j	237e8 <get_long_int+0x144>
   23744:	fef44783          	lbu	a5,-17(s0)
   23748:	ff040713          	addi	a4,s0,-16
   2374c:	00f707b3          	add	a5,a4,a5
   23750:	fe744703          	lbu	a4,-25(s0)
   23754:	fee78223          	sb	a4,-28(a5)
   23758:	fef44783          	lbu	a5,-17(s0)
   2375c:	00178793          	addi	a5,a5,1
   23760:	fef407a3          	sb	a5,-17(s0)
   23764:	f65ff06f          	j	236c8 <get_long_int+0x24>
   23768:	fef44703          	lbu	a4,-17(s0)
   2376c:	fcf44783          	lbu	a5,-49(s0)
   23770:	f4f71ce3          	bne	a4,a5,236c8 <get_long_int+0x24>
   23774:	cc5ff0ef          	jal	ra,23438 <rx_uart>
   23778:	00050793          	mv	a5,a0
   2377c:	fef403a3          	sb	a5,-25(s0)
   23780:	fe744703          	lbu	a4,-25(s0)
   23784:	00d00793          	li	a5,13
   23788:	06f70463          	beq	a4,a5,237f0 <get_long_int+0x14c>
   2378c:	fe744703          	lbu	a4,-25(s0)
   23790:	00800793          	li	a5,8
   23794:	f2f71ae3          	bne	a4,a5,236c8 <get_long_int+0x24>
   23798:	fe744783          	lbu	a5,-25(s0)
   2379c:	00078513          	mv	a0,a5
   237a0:	c31ff0ef          	jal	ra,233d0 <tx_uart>
   237a4:	02000513          	li	a0,32
   237a8:	c29ff0ef          	jal	ra,233d0 <tx_uart>
   237ac:	fe744783          	lbu	a5,-25(s0)
   237b0:	00078513          	mv	a0,a5
   237b4:	c1dff0ef          	jal	ra,233d0 <tx_uart>
   237b8:	fe744783          	lbu	a5,-25(s0)
   237bc:	00078513          	mv	a0,a5
   237c0:	c11ff0ef          	jal	ra,233d0 <tx_uart>
   237c4:	02000513          	li	a0,32
   237c8:	c09ff0ef          	jal	ra,233d0 <tx_uart>
   237cc:	fe744783          	lbu	a5,-25(s0)
   237d0:	00078513          	mv	a0,a5
   237d4:	bfdff0ef          	jal	ra,233d0 <tx_uart>
   237d8:	fef44783          	lbu	a5,-17(s0)
   237dc:	fff78793          	addi	a5,a5,-1
   237e0:	fef407a3          	sb	a5,-17(s0)
   237e4:	0080006f          	j	237ec <get_long_int+0x148>
   237e8:	00000013          	nop
   237ec:	eddff06f          	j	236c8 <get_long_int+0x24>
   237f0:	00000013          	nop
   237f4:	fe0407a3          	sb	zero,-17(s0)
   237f8:	03c0006f          	j	23834 <get_long_int+0x190>
   237fc:	fe842783          	lw	a5,-24(s0)
   23800:	00879793          	slli	a5,a5,0x8
   23804:	fef42423          	sw	a5,-24(s0)
   23808:	fef44783          	lbu	a5,-17(s0)
   2380c:	ff040713          	addi	a4,s0,-16
   23810:	00f707b3          	add	a5,a4,a5
   23814:	fe47c783          	lbu	a5,-28(a5)
   23818:	00078713          	mv	a4,a5
   2381c:	fe842783          	lw	a5,-24(s0)
   23820:	00e7e7b3          	or	a5,a5,a4
   23824:	fef42423          	sw	a5,-24(s0)
   23828:	fef44783          	lbu	a5,-17(s0)
   2382c:	00178793          	addi	a5,a5,1
   23830:	fef407a3          	sb	a5,-17(s0)
   23834:	fef44703          	lbu	a4,-17(s0)
   23838:	fcf44783          	lbu	a5,-49(s0)
   2383c:	fcf760e3          	bltu	a4,a5,237fc <get_long_int+0x158>
   23840:	fe842783          	lw	a5,-24(s0)
   23844:	00078513          	mv	a0,a5
   23848:	03c12083          	lw	ra,60(sp)
   2384c:	03812403          	lw	s0,56(sp)
   23850:	04010113          	addi	sp,sp,64
   23854:	00008067          	ret

00023858 <get_hex>:
   23858:	fe010113          	addi	sp,sp,-32
   2385c:	00112e23          	sw	ra,28(sp)
   23860:	00812c23          	sw	s0,24(sp)
   23864:	02010413          	addi	s0,sp,32
   23868:	fe0405a3          	sb	zero,-21(s0)
   2386c:	00200793          	li	a5,2
   23870:	fef406a3          	sb	a5,-19(s0)
   23874:	1240006f          	j	23998 <get_hex+0x140>
   23878:	bc1ff0ef          	jal	ra,23438 <rx_uart>
   2387c:	00050793          	mv	a5,a0
   23880:	fef40623          	sb	a5,-20(s0)
   23884:	fec44703          	lbu	a4,-20(s0)
   23888:	00800793          	li	a5,8
   2388c:	04f71463          	bne	a4,a5,238d4 <get_hex+0x7c>
   23890:	fed44703          	lbu	a4,-19(s0)
   23894:	00100793          	li	a5,1
   23898:	02e7ea63          	bltu	a5,a4,238cc <get_hex+0x74>
   2389c:	fec44783          	lbu	a5,-20(s0)
   238a0:	00078513          	mv	a0,a5
   238a4:	b2dff0ef          	jal	ra,233d0 <tx_uart>
   238a8:	02000513          	li	a0,32
   238ac:	b25ff0ef          	jal	ra,233d0 <tx_uart>
   238b0:	fec44783          	lbu	a5,-20(s0)
   238b4:	00078513          	mv	a0,a5
   238b8:	b19ff0ef          	jal	ra,233d0 <tx_uart>
   238bc:	fed44783          	lbu	a5,-19(s0)
   238c0:	00178793          	addi	a5,a5,1
   238c4:	fef406a3          	sb	a5,-19(s0)
   238c8:	0d00006f          	j	23998 <get_hex+0x140>
   238cc:	fec44783          	lbu	a5,-20(s0)
   238d0:	0f00006f          	j	239c0 <get_hex+0x168>
   238d4:	fec44703          	lbu	a4,-20(s0)
   238d8:	02f00793          	li	a5,47
   238dc:	02e7f663          	bgeu	a5,a4,23908 <get_hex+0xb0>
   238e0:	fec44703          	lbu	a4,-20(s0)
   238e4:	03900793          	li	a5,57
   238e8:	02e7e063          	bltu	a5,a4,23908 <get_hex+0xb0>
   238ec:	fec44783          	lbu	a5,-20(s0)
   238f0:	00078513          	mv	a0,a5
   238f4:	addff0ef          	jal	ra,233d0 <tx_uart>
   238f8:	fec44783          	lbu	a5,-20(s0)
   238fc:	fd078793          	addi	a5,a5,-48
   23900:	fef40623          	sb	a5,-20(s0)
   23904:	0680006f          	j	2396c <get_hex+0x114>
   23908:	fec44703          	lbu	a4,-20(s0)
   2390c:	04000793          	li	a5,64
   23910:	02e7f663          	bgeu	a5,a4,2393c <get_hex+0xe4>
   23914:	fec44703          	lbu	a4,-20(s0)
   23918:	04600793          	li	a5,70
   2391c:	02e7e063          	bltu	a5,a4,2393c <get_hex+0xe4>
   23920:	fec44783          	lbu	a5,-20(s0)
   23924:	00078513          	mv	a0,a5
   23928:	aa9ff0ef          	jal	ra,233d0 <tx_uart>
   2392c:	fec44783          	lbu	a5,-20(s0)
   23930:	fc978793          	addi	a5,a5,-55
   23934:	fef40623          	sb	a5,-20(s0)
   23938:	0340006f          	j	2396c <get_hex+0x114>
   2393c:	fec44703          	lbu	a4,-20(s0)
   23940:	06000793          	li	a5,96
   23944:	04e7fa63          	bgeu	a5,a4,23998 <get_hex+0x140>
   23948:	fec44703          	lbu	a4,-20(s0)
   2394c:	06600793          	li	a5,102
   23950:	04e7e463          	bltu	a5,a4,23998 <get_hex+0x140>
   23954:	fec44783          	lbu	a5,-20(s0)
   23958:	00078513          	mv	a0,a5
   2395c:	a75ff0ef          	jal	ra,233d0 <tx_uart>
   23960:	fec44783          	lbu	a5,-20(s0)
   23964:	fa978793          	addi	a5,a5,-87
   23968:	fef40623          	sb	a5,-20(s0)
   2396c:	fed44703          	lbu	a4,-19(s0)
   23970:	00200793          	li	a5,2
   23974:	00f71863          	bne	a4,a5,23984 <get_hex+0x12c>
   23978:	fec44783          	lbu	a5,-20(s0)
   2397c:	fef407a3          	sb	a5,-17(s0)
   23980:	00c0006f          	j	2398c <get_hex+0x134>
   23984:	fec44783          	lbu	a5,-20(s0)
   23988:	fef40723          	sb	a5,-18(s0)
   2398c:	fed44783          	lbu	a5,-19(s0)
   23990:	fff78793          	addi	a5,a5,-1
   23994:	fef406a3          	sb	a5,-19(s0)
   23998:	fed44783          	lbu	a5,-19(s0)
   2399c:	ec079ee3          	bnez	a5,23878 <get_hex+0x20>
   239a0:	fef44783          	lbu	a5,-17(s0)
   239a4:	00479793          	slli	a5,a5,0x4
   239a8:	fef405a3          	sb	a5,-21(s0)
   239ac:	feb44703          	lbu	a4,-21(s0)
   239b0:	fee44783          	lbu	a5,-18(s0)
   239b4:	00f767b3          	or	a5,a4,a5
   239b8:	fef405a3          	sb	a5,-21(s0)
   239bc:	feb44783          	lbu	a5,-21(s0)
   239c0:	00078513          	mv	a0,a5
   239c4:	01c12083          	lw	ra,28(sp)
   239c8:	01812403          	lw	s0,24(sp)
   239cc:	02010113          	addi	sp,sp,32
   239d0:	00008067          	ret

000239d4 <memcpy>:
   239d4:	00a5c7b3          	xor	a5,a1,a0
   239d8:	0037f793          	andi	a5,a5,3
   239dc:	00c508b3          	add	a7,a0,a2
   239e0:	06079263          	bnez	a5,23a44 <memcpy+0x70>
   239e4:	00300793          	li	a5,3
   239e8:	04c7fe63          	bgeu	a5,a2,23a44 <memcpy+0x70>
   239ec:	00357793          	andi	a5,a0,3
   239f0:	00050713          	mv	a4,a0
   239f4:	06079863          	bnez	a5,23a64 <memcpy+0x90>
   239f8:	ffc8f613          	andi	a2,a7,-4
   239fc:	fe060793          	addi	a5,a2,-32
   23a00:	08f76c63          	bltu	a4,a5,23a98 <memcpy+0xc4>
   23a04:	02c77c63          	bgeu	a4,a2,23a3c <memcpy+0x68>
   23a08:	00058693          	mv	a3,a1
   23a0c:	00070793          	mv	a5,a4
   23a10:	0006a803          	lw	a6,0(a3)
   23a14:	00478793          	addi	a5,a5,4
   23a18:	00468693          	addi	a3,a3,4
   23a1c:	ff07ae23          	sw	a6,-4(a5)
   23a20:	fec7e8e3          	bltu	a5,a2,23a10 <memcpy+0x3c>
   23a24:	fff60793          	addi	a5,a2,-1
   23a28:	40e787b3          	sub	a5,a5,a4
   23a2c:	ffc7f793          	andi	a5,a5,-4
   23a30:	00478793          	addi	a5,a5,4
   23a34:	00f70733          	add	a4,a4,a5
   23a38:	00f585b3          	add	a1,a1,a5
   23a3c:	01176863          	bltu	a4,a7,23a4c <memcpy+0x78>
   23a40:	00008067          	ret
   23a44:	00050713          	mv	a4,a0
   23a48:	ff157ce3          	bgeu	a0,a7,23a40 <memcpy+0x6c>
   23a4c:	0005c783          	lbu	a5,0(a1)
   23a50:	00170713          	addi	a4,a4,1
   23a54:	00158593          	addi	a1,a1,1
   23a58:	fef70fa3          	sb	a5,-1(a4)
   23a5c:	ff1768e3          	bltu	a4,a7,23a4c <memcpy+0x78>
   23a60:	00008067          	ret
   23a64:	0005c683          	lbu	a3,0(a1)
   23a68:	00170713          	addi	a4,a4,1
   23a6c:	00377793          	andi	a5,a4,3
   23a70:	fed70fa3          	sb	a3,-1(a4)
   23a74:	00158593          	addi	a1,a1,1
   23a78:	f80780e3          	beqz	a5,239f8 <memcpy+0x24>
   23a7c:	0005c683          	lbu	a3,0(a1)
   23a80:	00170713          	addi	a4,a4,1
   23a84:	00377793          	andi	a5,a4,3
   23a88:	fed70fa3          	sb	a3,-1(a4)
   23a8c:	00158593          	addi	a1,a1,1
   23a90:	fc079ae3          	bnez	a5,23a64 <memcpy+0x90>
   23a94:	f65ff06f          	j	239f8 <memcpy+0x24>
   23a98:	0045a683          	lw	a3,4(a1)
   23a9c:	0005a283          	lw	t0,0(a1)
   23aa0:	0085af83          	lw	t6,8(a1)
   23aa4:	00c5af03          	lw	t5,12(a1)
   23aa8:	0105ae83          	lw	t4,16(a1)
   23aac:	0145ae03          	lw	t3,20(a1)
   23ab0:	0185a303          	lw	t1,24(a1)
   23ab4:	01c5a803          	lw	a6,28(a1)
   23ab8:	00d72223          	sw	a3,4(a4)
   23abc:	0205a683          	lw	a3,32(a1)
   23ac0:	00572023          	sw	t0,0(a4)
   23ac4:	01f72423          	sw	t6,8(a4)
   23ac8:	01e72623          	sw	t5,12(a4)
   23acc:	01d72823          	sw	t4,16(a4)
   23ad0:	01c72a23          	sw	t3,20(a4)
   23ad4:	00672c23          	sw	t1,24(a4)
   23ad8:	01072e23          	sw	a6,28(a4)
   23adc:	02d72023          	sw	a3,32(a4)
   23ae0:	02470713          	addi	a4,a4,36
   23ae4:	02458593          	addi	a1,a1,36
   23ae8:	faf768e3          	bltu	a4,a5,23a98 <memcpy+0xc4>
   23aec:	f19ff06f          	j	23a04 <memcpy+0x30>

00023af0 <memset>:
   23af0:	00f00313          	li	t1,15
   23af4:	00050713          	mv	a4,a0
   23af8:	02c37e63          	bgeu	t1,a2,23b34 <memset+0x44>
   23afc:	00f77793          	andi	a5,a4,15
   23b00:	0a079063          	bnez	a5,23ba0 <memset+0xb0>
   23b04:	08059263          	bnez	a1,23b88 <memset+0x98>
   23b08:	ff067693          	andi	a3,a2,-16
   23b0c:	00f67613          	andi	a2,a2,15
   23b10:	00e686b3          	add	a3,a3,a4
   23b14:	00b72023          	sw	a1,0(a4)
   23b18:	00b72223          	sw	a1,4(a4)
   23b1c:	00b72423          	sw	a1,8(a4)
   23b20:	00b72623          	sw	a1,12(a4)
   23b24:	01070713          	addi	a4,a4,16
   23b28:	fed766e3          	bltu	a4,a3,23b14 <memset+0x24>
   23b2c:	00061463          	bnez	a2,23b34 <memset+0x44>
   23b30:	00008067          	ret
   23b34:	40c306b3          	sub	a3,t1,a2
   23b38:	00269693          	slli	a3,a3,0x2
   23b3c:	00000297          	auipc	t0,0x0
   23b40:	005686b3          	add	a3,a3,t0
   23b44:	00c68067          	jr	12(a3)
   23b48:	00b70723          	sb	a1,14(a4)
   23b4c:	00b706a3          	sb	a1,13(a4)
   23b50:	00b70623          	sb	a1,12(a4)
   23b54:	00b705a3          	sb	a1,11(a4)
   23b58:	00b70523          	sb	a1,10(a4)
   23b5c:	00b704a3          	sb	a1,9(a4)
   23b60:	00b70423          	sb	a1,8(a4)
   23b64:	00b703a3          	sb	a1,7(a4)
   23b68:	00b70323          	sb	a1,6(a4)
   23b6c:	00b702a3          	sb	a1,5(a4)
   23b70:	00b70223          	sb	a1,4(a4)
   23b74:	00b701a3          	sb	a1,3(a4)
   23b78:	00b70123          	sb	a1,2(a4)
   23b7c:	00b700a3          	sb	a1,1(a4)
   23b80:	00b70023          	sb	a1,0(a4)
   23b84:	00008067          	ret
   23b88:	0ff5f593          	andi	a1,a1,255
   23b8c:	00859693          	slli	a3,a1,0x8
   23b90:	00d5e5b3          	or	a1,a1,a3
   23b94:	01059693          	slli	a3,a1,0x10
   23b98:	00d5e5b3          	or	a1,a1,a3
   23b9c:	f6dff06f          	j	23b08 <memset+0x18>
   23ba0:	00279693          	slli	a3,a5,0x2
   23ba4:	00000297          	auipc	t0,0x0
   23ba8:	005686b3          	add	a3,a3,t0
   23bac:	00008293          	mv	t0,ra
   23bb0:	fa0680e7          	jalr	-96(a3)
   23bb4:	00028093          	mv	ra,t0
   23bb8:	ff078793          	addi	a5,a5,-16
   23bbc:	40f70733          	sub	a4,a4,a5
   23bc0:	00f60633          	add	a2,a2,a5
   23bc4:	f6c378e3          	bgeu	t1,a2,23b34 <memset+0x44>
   23bc8:	f3dff06f          	j	23b04 <memset+0x14>

00023bcc <modf>:
   23bcc:	4145d693          	srai	a3,a1,0x14
   23bd0:	ff010113          	addi	sp,sp,-16
   23bd4:	7ff6f693          	andi	a3,a3,2047
   23bd8:	00112623          	sw	ra,12(sp)
   23bdc:	c0168813          	addi	a6,a3,-1023
   23be0:	01300893          	li	a7,19
   23be4:	00058793          	mv	a5,a1
   23be8:	00050713          	mv	a4,a0
   23bec:	0508c863          	blt	a7,a6,23c3c <modf+0x70>
   23bf0:	0a084863          	bltz	a6,23ca0 <modf+0xd4>
   23bf4:	001006b7          	lui	a3,0x100
   23bf8:	fff68693          	addi	a3,a3,-1 # fffff <__global_pointer$+0xd8593>
   23bfc:	4106d833          	sra	a6,a3,a6
   23c00:	00b876b3          	and	a3,a6,a1
   23c04:	00a6e6b3          	or	a3,a3,a0
   23c08:	04069e63          	bnez	a3,23c64 <modf+0x98>
   23c0c:	00c12083          	lw	ra,12(sp)
   23c10:	00070513          	mv	a0,a4
   23c14:	00078593          	mv	a1,a5
   23c18:	80000737          	lui	a4,0x80000
   23c1c:	00f777b3          	and	a5,a4,a5
   23c20:	00a62023          	sw	a0,0(a2)
   23c24:	00b62223          	sw	a1,4(a2)
   23c28:	00000713          	li	a4,0
   23c2c:	00070513          	mv	a0,a4
   23c30:	00078593          	mv	a1,a5
   23c34:	01010113          	addi	sp,sp,16
   23c38:	00008067          	ret
   23c3c:	03300893          	li	a7,51
   23c40:	fd08c6e3          	blt	a7,a6,23c0c <modf+0x40>
   23c44:	fff00813          	li	a6,-1
   23c48:	bed68693          	addi	a3,a3,-1043
   23c4c:	00d856b3          	srl	a3,a6,a3
   23c50:	00a6f833          	and	a6,a3,a0
   23c54:	fa080ce3          	beqz	a6,23c0c <modf+0x40>
   23c58:	fff6c693          	not	a3,a3
   23c5c:	00a6f733          	and	a4,a3,a0
   23c60:	0100006f          	j	23c70 <modf+0xa4>
   23c64:	fff84813          	not	a6,a6
   23c68:	00b877b3          	and	a5,a6,a1
   23c6c:	00000713          	li	a4,0
   23c70:	00e62023          	sw	a4,0(a2)
   23c74:	00f62223          	sw	a5,4(a2)
   23c78:	00078693          	mv	a3,a5
   23c7c:	00070613          	mv	a2,a4
   23c80:	7e8010ef          	jal	ra,25468 <__subdf3>
   23c84:	00c12083          	lw	ra,12(sp)
   23c88:	00050713          	mv	a4,a0
   23c8c:	00058793          	mv	a5,a1
   23c90:	00070513          	mv	a0,a4
   23c94:	00078593          	mv	a1,a5
   23c98:	01010113          	addi	sp,sp,16
   23c9c:	00008067          	ret
   23ca0:	00c12083          	lw	ra,12(sp)
   23ca4:	800006b7          	lui	a3,0x80000
   23ca8:	00b6f6b3          	and	a3,a3,a1
   23cac:	00000513          	li	a0,0
   23cb0:	00a62023          	sw	a0,0(a2)
   23cb4:	00d62223          	sw	a3,4(a2)
   23cb8:	00070513          	mv	a0,a4
   23cbc:	00078593          	mv	a1,a5
   23cc0:	01010113          	addi	sp,sp,16
   23cc4:	00008067          	ret

00023cc8 <strlen>:
   23cc8:	00357793          	andi	a5,a0,3
   23ccc:	00050713          	mv	a4,a0
   23cd0:	04079c63          	bnez	a5,23d28 <strlen+0x60>
   23cd4:	7f7f86b7          	lui	a3,0x7f7f8
   23cd8:	f7f68693          	addi	a3,a3,-129 # 7f7f7f7f <__global_pointer$+0x7f7d0513>
   23cdc:	fff00593          	li	a1,-1
   23ce0:	00072603          	lw	a2,0(a4) # 80000000 <__global_pointer$+0x7ffd8594>
   23ce4:	00470713          	addi	a4,a4,4
   23ce8:	00d677b3          	and	a5,a2,a3
   23cec:	00d787b3          	add	a5,a5,a3
   23cf0:	00c7e7b3          	or	a5,a5,a2
   23cf4:	00d7e7b3          	or	a5,a5,a3
   23cf8:	feb784e3          	beq	a5,a1,23ce0 <strlen+0x18>
   23cfc:	ffc74683          	lbu	a3,-4(a4)
   23d00:	ffd74603          	lbu	a2,-3(a4)
   23d04:	ffe74783          	lbu	a5,-2(a4)
   23d08:	40a70733          	sub	a4,a4,a0
   23d0c:	04068063          	beqz	a3,23d4c <strlen+0x84>
   23d10:	02060a63          	beqz	a2,23d44 <strlen+0x7c>
   23d14:	00f03533          	snez	a0,a5
   23d18:	00e50533          	add	a0,a0,a4
   23d1c:	ffe50513          	addi	a0,a0,-2
   23d20:	00008067          	ret
   23d24:	fa0688e3          	beqz	a3,23cd4 <strlen+0xc>
   23d28:	00074783          	lbu	a5,0(a4)
   23d2c:	00170713          	addi	a4,a4,1
   23d30:	00377693          	andi	a3,a4,3
   23d34:	fe0798e3          	bnez	a5,23d24 <strlen+0x5c>
   23d38:	40a70733          	sub	a4,a4,a0
   23d3c:	fff70513          	addi	a0,a4,-1
   23d40:	00008067          	ret
   23d44:	ffd70513          	addi	a0,a4,-3
   23d48:	00008067          	ret
   23d4c:	ffc70513          	addi	a0,a4,-4
   23d50:	00008067          	ret

00023d54 <strnlen>:
   23d54:	00b506b3          	add	a3,a0,a1
   23d58:	00050793          	mv	a5,a0
   23d5c:	00059863          	bnez	a1,23d6c <strnlen+0x18>
   23d60:	0240006f          	j	23d84 <strnlen+0x30>
   23d64:	00178793          	addi	a5,a5,1
   23d68:	00f68a63          	beq	a3,a5,23d7c <strnlen+0x28>
   23d6c:	0007c703          	lbu	a4,0(a5)
   23d70:	fe071ae3          	bnez	a4,23d64 <strnlen+0x10>
   23d74:	40a78533          	sub	a0,a5,a0
   23d78:	00008067          	ret
   23d7c:	40a68533          	sub	a0,a3,a0
   23d80:	00008067          	ret
   23d84:	00000513          	li	a0,0
   23d88:	00008067          	ret

00023d8c <__adddf3>:
   23d8c:	00100837          	lui	a6,0x100
   23d90:	fff80813          	addi	a6,a6,-1 # fffff <__global_pointer$+0xd8593>
   23d94:	fe010113          	addi	sp,sp,-32
   23d98:	00b877b3          	and	a5,a6,a1
   23d9c:	0145d713          	srli	a4,a1,0x14
   23da0:	00d87833          	and	a6,a6,a3
   23da4:	0146d313          	srli	t1,a3,0x14
   23da8:	00812c23          	sw	s0,24(sp)
   23dac:	00379793          	slli	a5,a5,0x3
   23db0:	7ff77413          	andi	s0,a4,2047
   23db4:	01d55713          	srli	a4,a0,0x1d
   23db8:	00381813          	slli	a6,a6,0x3
   23dbc:	00912a23          	sw	s1,20(sp)
   23dc0:	00f767b3          	or	a5,a4,a5
   23dc4:	01f5d493          	srli	s1,a1,0x1f
   23dc8:	01d65713          	srli	a4,a2,0x1d
   23dcc:	7ff37313          	andi	t1,t1,2047
   23dd0:	00112e23          	sw	ra,28(sp)
   23dd4:	01212823          	sw	s2,16(sp)
   23dd8:	01312623          	sw	s3,12(sp)
   23ddc:	01f6d693          	srli	a3,a3,0x1f
   23de0:	01076733          	or	a4,a4,a6
   23de4:	00351593          	slli	a1,a0,0x3
   23de8:	00361613          	slli	a2,a2,0x3
   23dec:	40640833          	sub	a6,s0,t1
   23df0:	2cd49863          	bne	s1,a3,240c0 <__adddf3+0x334>
   23df4:	13005063          	blez	a6,23f14 <__adddf3+0x188>
   23df8:	04031063          	bnez	t1,23e38 <__adddf3+0xac>
   23dfc:	00c766b3          	or	a3,a4,a2
   23e00:	70068c63          	beqz	a3,24518 <__adddf3+0x78c>
   23e04:	fff80513          	addi	a0,a6,-1
   23e08:	02051063          	bnez	a0,23e28 <__adddf3+0x9c>
   23e0c:	00c58633          	add	a2,a1,a2
   23e10:	00b63533          	sltu	a0,a2,a1
   23e14:	00e787b3          	add	a5,a5,a4
   23e18:	00a787b3          	add	a5,a5,a0
   23e1c:	00060593          	mv	a1,a2
   23e20:	00100413          	li	s0,1
   23e24:	0700006f          	j	23e94 <__adddf3+0x108>
   23e28:	7ff00693          	li	a3,2047
   23e2c:	02d81063          	bne	a6,a3,23e4c <__adddf3+0xc0>
   23e30:	7ff00413          	li	s0,2047
   23e34:	2140006f          	j	24048 <__adddf3+0x2bc>
   23e38:	7ff00693          	li	a3,2047
   23e3c:	20d40663          	beq	s0,a3,24048 <__adddf3+0x2bc>
   23e40:	008006b7          	lui	a3,0x800
   23e44:	00d76733          	or	a4,a4,a3
   23e48:	00080513          	mv	a0,a6
   23e4c:	03800693          	li	a3,56
   23e50:	0aa6cc63          	blt	a3,a0,23f08 <__adddf3+0x17c>
   23e54:	01f00693          	li	a3,31
   23e58:	06a6ce63          	blt	a3,a0,23ed4 <__adddf3+0x148>
   23e5c:	02000813          	li	a6,32
   23e60:	40a80833          	sub	a6,a6,a0
   23e64:	010716b3          	sll	a3,a4,a6
   23e68:	00a658b3          	srl	a7,a2,a0
   23e6c:	01061633          	sll	a2,a2,a6
   23e70:	0116e6b3          	or	a3,a3,a7
   23e74:	00c03633          	snez	a2,a2
   23e78:	00c6e633          	or	a2,a3,a2
   23e7c:	00a75733          	srl	a4,a4,a0
   23e80:	00b60633          	add	a2,a2,a1
   23e84:	00b63533          	sltu	a0,a2,a1
   23e88:	00f70733          	add	a4,a4,a5
   23e8c:	00a707b3          	add	a5,a4,a0
   23e90:	00060593          	mv	a1,a2
   23e94:	00800737          	lui	a4,0x800
   23e98:	00e7f733          	and	a4,a5,a4
   23e9c:	1a070663          	beqz	a4,24048 <__adddf3+0x2bc>
   23ea0:	00140413          	addi	s0,s0,1
   23ea4:	7ff00713          	li	a4,2047
   23ea8:	5ce40a63          	beq	s0,a4,2447c <__adddf3+0x6f0>
   23eac:	ff800737          	lui	a4,0xff800
   23eb0:	fff70713          	addi	a4,a4,-1 # ff7fffff <__global_pointer$+0xff7d8593>
   23eb4:	00e7f7b3          	and	a5,a5,a4
   23eb8:	0015f513          	andi	a0,a1,1
   23ebc:	0015d713          	srli	a4,a1,0x1
   23ec0:	00a76533          	or	a0,a4,a0
   23ec4:	01f79593          	slli	a1,a5,0x1f
   23ec8:	00a5e5b3          	or	a1,a1,a0
   23ecc:	0017d793          	srli	a5,a5,0x1
   23ed0:	1780006f          	j	24048 <__adddf3+0x2bc>
   23ed4:	fe050693          	addi	a3,a0,-32
   23ed8:	02000893          	li	a7,32
   23edc:	00d756b3          	srl	a3,a4,a3
   23ee0:	00000813          	li	a6,0
   23ee4:	01150863          	beq	a0,a7,23ef4 <__adddf3+0x168>
   23ee8:	04000813          	li	a6,64
   23eec:	40a80533          	sub	a0,a6,a0
   23ef0:	00a71833          	sll	a6,a4,a0
   23ef4:	00c86633          	or	a2,a6,a2
   23ef8:	00c03633          	snez	a2,a2
   23efc:	00c6e633          	or	a2,a3,a2
   23f00:	00000713          	li	a4,0
   23f04:	f7dff06f          	j	23e80 <__adddf3+0xf4>
   23f08:	00c76633          	or	a2,a4,a2
   23f0c:	00c03633          	snez	a2,a2
   23f10:	ff1ff06f          	j	23f00 <__adddf3+0x174>
   23f14:	0e080263          	beqz	a6,23ff8 <__adddf3+0x26c>
   23f18:	40830533          	sub	a0,t1,s0
   23f1c:	02041e63          	bnez	s0,23f58 <__adddf3+0x1cc>
   23f20:	00b7e6b3          	or	a3,a5,a1
   23f24:	52068c63          	beqz	a3,2445c <__adddf3+0x6d0>
   23f28:	fff50693          	addi	a3,a0,-1
   23f2c:	00069c63          	bnez	a3,23f44 <__adddf3+0x1b8>
   23f30:	00c585b3          	add	a1,a1,a2
   23f34:	00e787b3          	add	a5,a5,a4
   23f38:	00c5b633          	sltu	a2,a1,a2
   23f3c:	00c787b3          	add	a5,a5,a2
   23f40:	ee1ff06f          	j	23e20 <__adddf3+0x94>
   23f44:	7ff00813          	li	a6,2047
   23f48:	03051263          	bne	a0,a6,23f6c <__adddf3+0x1e0>
   23f4c:	00070793          	mv	a5,a4
   23f50:	00060593          	mv	a1,a2
   23f54:	eddff06f          	j	23e30 <__adddf3+0xa4>
   23f58:	7ff00693          	li	a3,2047
   23f5c:	fed308e3          	beq	t1,a3,23f4c <__adddf3+0x1c0>
   23f60:	008006b7          	lui	a3,0x800
   23f64:	00d7e7b3          	or	a5,a5,a3
   23f68:	00050693          	mv	a3,a0
   23f6c:	03800513          	li	a0,56
   23f70:	06d54e63          	blt	a0,a3,23fec <__adddf3+0x260>
   23f74:	01f00513          	li	a0,31
   23f78:	04d54063          	blt	a0,a3,23fb8 <__adddf3+0x22c>
   23f7c:	02000813          	li	a6,32
   23f80:	40d80833          	sub	a6,a6,a3
   23f84:	01079533          	sll	a0,a5,a6
   23f88:	00d5d8b3          	srl	a7,a1,a3
   23f8c:	010595b3          	sll	a1,a1,a6
   23f90:	01156533          	or	a0,a0,a7
   23f94:	00b035b3          	snez	a1,a1
   23f98:	00b56533          	or	a0,a0,a1
   23f9c:	00d7d7b3          	srl	a5,a5,a3
   23fa0:	00c505b3          	add	a1,a0,a2
   23fa4:	00e787b3          	add	a5,a5,a4
   23fa8:	00c5b633          	sltu	a2,a1,a2
   23fac:	00c787b3          	add	a5,a5,a2
   23fb0:	00030413          	mv	s0,t1
   23fb4:	ee1ff06f          	j	23e94 <__adddf3+0x108>
   23fb8:	fe068513          	addi	a0,a3,-32 # 7fffe0 <__global_pointer$+0x7d8574>
   23fbc:	02000893          	li	a7,32
   23fc0:	00a7d833          	srl	a6,a5,a0
   23fc4:	00000513          	li	a0,0
   23fc8:	01168863          	beq	a3,a7,23fd8 <__adddf3+0x24c>
   23fcc:	04000513          	li	a0,64
   23fd0:	40d50533          	sub	a0,a0,a3
   23fd4:	00a79533          	sll	a0,a5,a0
   23fd8:	00b56533          	or	a0,a0,a1
   23fdc:	00a03533          	snez	a0,a0
   23fe0:	00a86533          	or	a0,a6,a0
   23fe4:	00000793          	li	a5,0
   23fe8:	fb9ff06f          	j	23fa0 <__adddf3+0x214>
   23fec:	00b7e533          	or	a0,a5,a1
   23ff0:	00a03533          	snez	a0,a0
   23ff4:	ff1ff06f          	j	23fe4 <__adddf3+0x258>
   23ff8:	00140693          	addi	a3,s0,1
   23ffc:	7fe6f513          	andi	a0,a3,2046
   24000:	08051863          	bnez	a0,24090 <__adddf3+0x304>
   24004:	00b7e6b3          	or	a3,a5,a1
   24008:	06041463          	bnez	s0,24070 <__adddf3+0x2e4>
   2400c:	46068063          	beqz	a3,2446c <__adddf3+0x6e0>
   24010:	00c766b3          	or	a3,a4,a2
   24014:	02068a63          	beqz	a3,24048 <__adddf3+0x2bc>
   24018:	00c58633          	add	a2,a1,a2
   2401c:	00e787b3          	add	a5,a5,a4
   24020:	00b63533          	sltu	a0,a2,a1
   24024:	00a787b3          	add	a5,a5,a0
   24028:	00800737          	lui	a4,0x800
   2402c:	00e7f733          	and	a4,a5,a4
   24030:	00060593          	mv	a1,a2
   24034:	00070a63          	beqz	a4,24048 <__adddf3+0x2bc>
   24038:	ff800737          	lui	a4,0xff800
   2403c:	fff70713          	addi	a4,a4,-1 # ff7fffff <__global_pointer$+0xff7d8593>
   24040:	00e7f7b3          	and	a5,a5,a4
   24044:	00100413          	li	s0,1
   24048:	0075f713          	andi	a4,a1,7
   2404c:	42070c63          	beqz	a4,24484 <__adddf3+0x6f8>
   24050:	00f5f713          	andi	a4,a1,15
   24054:	00400693          	li	a3,4
   24058:	42d70663          	beq	a4,a3,24484 <__adddf3+0x6f8>
   2405c:	00458713          	addi	a4,a1,4
   24060:	00b73533          	sltu	a0,a4,a1
   24064:	00a787b3          	add	a5,a5,a0
   24068:	00070593          	mv	a1,a4
   2406c:	4180006f          	j	24484 <__adddf3+0x6f8>
   24070:	ec068ee3          	beqz	a3,23f4c <__adddf3+0x1c0>
   24074:	00c76633          	or	a2,a4,a2
   24078:	da060ce3          	beqz	a2,23e30 <__adddf3+0xa4>
   2407c:	00000493          	li	s1,0
   24080:	004007b7          	lui	a5,0x400
   24084:	00000593          	li	a1,0
   24088:	7ff00413          	li	s0,2047
   2408c:	3f80006f          	j	24484 <__adddf3+0x6f8>
   24090:	7ff00513          	li	a0,2047
   24094:	3ea68263          	beq	a3,a0,24478 <__adddf3+0x6ec>
   24098:	00c58633          	add	a2,a1,a2
   2409c:	00b63533          	sltu	a0,a2,a1
   240a0:	00e787b3          	add	a5,a5,a4
   240a4:	00a787b3          	add	a5,a5,a0
   240a8:	01f79513          	slli	a0,a5,0x1f
   240ac:	00165613          	srli	a2,a2,0x1
   240b0:	00c565b3          	or	a1,a0,a2
   240b4:	0017d793          	srli	a5,a5,0x1
   240b8:	00068413          	mv	s0,a3
   240bc:	f8dff06f          	j	24048 <__adddf3+0x2bc>
   240c0:	0f005c63          	blez	a6,241b8 <__adddf3+0x42c>
   240c4:	08031e63          	bnez	t1,24160 <__adddf3+0x3d4>
   240c8:	00c766b3          	or	a3,a4,a2
   240cc:	44068663          	beqz	a3,24518 <__adddf3+0x78c>
   240d0:	fff80513          	addi	a0,a6,-1
   240d4:	02051063          	bnez	a0,240f4 <__adddf3+0x368>
   240d8:	40c58633          	sub	a2,a1,a2
   240dc:	00c5b533          	sltu	a0,a1,a2
   240e0:	40e787b3          	sub	a5,a5,a4
   240e4:	40a787b3          	sub	a5,a5,a0
   240e8:	00060593          	mv	a1,a2
   240ec:	00100413          	li	s0,1
   240f0:	0540006f          	j	24144 <__adddf3+0x3b8>
   240f4:	7ff00693          	li	a3,2047
   240f8:	d2d80ce3          	beq	a6,a3,23e30 <__adddf3+0xa4>
   240fc:	03800693          	li	a3,56
   24100:	0aa6c663          	blt	a3,a0,241ac <__adddf3+0x420>
   24104:	01f00693          	li	a3,31
   24108:	06a6c863          	blt	a3,a0,24178 <__adddf3+0x3ec>
   2410c:	02000813          	li	a6,32
   24110:	40a80833          	sub	a6,a6,a0
   24114:	010716b3          	sll	a3,a4,a6
   24118:	00a658b3          	srl	a7,a2,a0
   2411c:	01061633          	sll	a2,a2,a6
   24120:	0116e6b3          	or	a3,a3,a7
   24124:	00c03633          	snez	a2,a2
   24128:	00c6e633          	or	a2,a3,a2
   2412c:	00a75733          	srl	a4,a4,a0
   24130:	40c58633          	sub	a2,a1,a2
   24134:	00c5b533          	sltu	a0,a1,a2
   24138:	40e78733          	sub	a4,a5,a4
   2413c:	40a707b3          	sub	a5,a4,a0
   24140:	00060593          	mv	a1,a2
   24144:	00800937          	lui	s2,0x800
   24148:	0127f733          	and	a4,a5,s2
   2414c:	ee070ee3          	beqz	a4,24048 <__adddf3+0x2bc>
   24150:	fff90913          	addi	s2,s2,-1 # 7fffff <__global_pointer$+0x7d8593>
   24154:	0127f933          	and	s2,a5,s2
   24158:	00058993          	mv	s3,a1
   2415c:	2140006f          	j	24370 <__adddf3+0x5e4>
   24160:	7ff00693          	li	a3,2047
   24164:	eed402e3          	beq	s0,a3,24048 <__adddf3+0x2bc>
   24168:	008006b7          	lui	a3,0x800
   2416c:	00d76733          	or	a4,a4,a3
   24170:	00080513          	mv	a0,a6
   24174:	f89ff06f          	j	240fc <__adddf3+0x370>
   24178:	fe050693          	addi	a3,a0,-32
   2417c:	02000893          	li	a7,32
   24180:	00d756b3          	srl	a3,a4,a3
   24184:	00000813          	li	a6,0
   24188:	01150863          	beq	a0,a7,24198 <__adddf3+0x40c>
   2418c:	04000813          	li	a6,64
   24190:	40a80533          	sub	a0,a6,a0
   24194:	00a71833          	sll	a6,a4,a0
   24198:	00c86633          	or	a2,a6,a2
   2419c:	00c03633          	snez	a2,a2
   241a0:	00c6e633          	or	a2,a3,a2
   241a4:	00000713          	li	a4,0
   241a8:	f89ff06f          	j	24130 <__adddf3+0x3a4>
   241ac:	00c76633          	or	a2,a4,a2
   241b0:	00c03633          	snez	a2,a2
   241b4:	ff1ff06f          	j	241a4 <__adddf3+0x418>
   241b8:	0e080863          	beqz	a6,242a8 <__adddf3+0x51c>
   241bc:	40830533          	sub	a0,t1,s0
   241c0:	04041263          	bnez	s0,24204 <__adddf3+0x478>
   241c4:	00b7e833          	or	a6,a5,a1
   241c8:	34080c63          	beqz	a6,24520 <__adddf3+0x794>
   241cc:	fff50813          	addi	a6,a0,-1
   241d0:	00081e63          	bnez	a6,241ec <__adddf3+0x460>
   241d4:	40b605b3          	sub	a1,a2,a1
   241d8:	40f707b3          	sub	a5,a4,a5
   241dc:	00b63633          	sltu	a2,a2,a1
   241e0:	40c787b3          	sub	a5,a5,a2
   241e4:	00068493          	mv	s1,a3
   241e8:	f05ff06f          	j	240ec <__adddf3+0x360>
   241ec:	7ff00893          	li	a7,2047
   241f0:	03151463          	bne	a0,a7,24218 <__adddf3+0x48c>
   241f4:	00070793          	mv	a5,a4
   241f8:	00060593          	mv	a1,a2
   241fc:	7ff00413          	li	s0,2047
   24200:	0d00006f          	j	242d0 <__adddf3+0x544>
   24204:	7ff00813          	li	a6,2047
   24208:	ff0306e3          	beq	t1,a6,241f4 <__adddf3+0x468>
   2420c:	00800837          	lui	a6,0x800
   24210:	0107e7b3          	or	a5,a5,a6
   24214:	00050813          	mv	a6,a0
   24218:	03800513          	li	a0,56
   2421c:	09054063          	blt	a0,a6,2429c <__adddf3+0x510>
   24220:	01f00513          	li	a0,31
   24224:	05054263          	blt	a0,a6,24268 <__adddf3+0x4dc>
   24228:	02000893          	li	a7,32
   2422c:	410888b3          	sub	a7,a7,a6
   24230:	01179533          	sll	a0,a5,a7
   24234:	0105de33          	srl	t3,a1,a6
   24238:	011595b3          	sll	a1,a1,a7
   2423c:	01c56533          	or	a0,a0,t3
   24240:	00b035b3          	snez	a1,a1
   24244:	00b56533          	or	a0,a0,a1
   24248:	0107d7b3          	srl	a5,a5,a6
   2424c:	40a605b3          	sub	a1,a2,a0
   24250:	40f707b3          	sub	a5,a4,a5
   24254:	00b63633          	sltu	a2,a2,a1
   24258:	40c787b3          	sub	a5,a5,a2
   2425c:	00030413          	mv	s0,t1
   24260:	00068493          	mv	s1,a3
   24264:	ee1ff06f          	j	24144 <__adddf3+0x3b8>
   24268:	fe080513          	addi	a0,a6,-32 # 7fffe0 <__global_pointer$+0x7d8574>
   2426c:	02000e13          	li	t3,32
   24270:	00a7d8b3          	srl	a7,a5,a0
   24274:	00000513          	li	a0,0
   24278:	01c80863          	beq	a6,t3,24288 <__adddf3+0x4fc>
   2427c:	04000513          	li	a0,64
   24280:	41050533          	sub	a0,a0,a6
   24284:	00a79533          	sll	a0,a5,a0
   24288:	00b56533          	or	a0,a0,a1
   2428c:	00a03533          	snez	a0,a0
   24290:	00a8e533          	or	a0,a7,a0
   24294:	00000793          	li	a5,0
   24298:	fb5ff06f          	j	2424c <__adddf3+0x4c0>
   2429c:	00b7e533          	or	a0,a5,a1
   242a0:	00a03533          	snez	a0,a0
   242a4:	ff1ff06f          	j	24294 <__adddf3+0x508>
   242a8:	00140513          	addi	a0,s0,1
   242ac:	7fe57513          	andi	a0,a0,2046
   242b0:	08051863          	bnez	a0,24340 <__adddf3+0x5b4>
   242b4:	00b7e833          	or	a6,a5,a1
   242b8:	00c76533          	or	a0,a4,a2
   242bc:	06041263          	bnez	s0,24320 <__adddf3+0x594>
   242c0:	00081c63          	bnez	a6,242d8 <__adddf3+0x54c>
   242c4:	26050663          	beqz	a0,24530 <__adddf3+0x7a4>
   242c8:	00070793          	mv	a5,a4
   242cc:	00060593          	mv	a1,a2
   242d0:	00068493          	mv	s1,a3
   242d4:	d75ff06f          	j	24048 <__adddf3+0x2bc>
   242d8:	d60508e3          	beqz	a0,24048 <__adddf3+0x2bc>
   242dc:	40c58833          	sub	a6,a1,a2
   242e0:	0105b8b3          	sltu	a7,a1,a6
   242e4:	40e78533          	sub	a0,a5,a4
   242e8:	41150533          	sub	a0,a0,a7
   242ec:	008008b7          	lui	a7,0x800
   242f0:	011578b3          	and	a7,a0,a7
   242f4:	00088c63          	beqz	a7,2430c <__adddf3+0x580>
   242f8:	40b605b3          	sub	a1,a2,a1
   242fc:	40f707b3          	sub	a5,a4,a5
   24300:	00b63633          	sltu	a2,a2,a1
   24304:	40c787b3          	sub	a5,a5,a2
   24308:	fc9ff06f          	j	242d0 <__adddf3+0x544>
   2430c:	00a865b3          	or	a1,a6,a0
   24310:	22058863          	beqz	a1,24540 <__adddf3+0x7b4>
   24314:	00050793          	mv	a5,a0
   24318:	00080593          	mv	a1,a6
   2431c:	d2dff06f          	j	24048 <__adddf3+0x2bc>
   24320:	00081c63          	bnez	a6,24338 <__adddf3+0x5ac>
   24324:	22050263          	beqz	a0,24548 <__adddf3+0x7bc>
   24328:	00070793          	mv	a5,a4
   2432c:	00060593          	mv	a1,a2
   24330:	00068493          	mv	s1,a3
   24334:	afdff06f          	j	23e30 <__adddf3+0xa4>
   24338:	ae050ce3          	beqz	a0,23e30 <__adddf3+0xa4>
   2433c:	d41ff06f          	j	2407c <__adddf3+0x2f0>
   24340:	40c589b3          	sub	s3,a1,a2
   24344:	0135b533          	sltu	a0,a1,s3
   24348:	40e78933          	sub	s2,a5,a4
   2434c:	40a90933          	sub	s2,s2,a0
   24350:	00800537          	lui	a0,0x800
   24354:	00a97533          	and	a0,s2,a0
   24358:	08050463          	beqz	a0,243e0 <__adddf3+0x654>
   2435c:	40b609b3          	sub	s3,a2,a1
   24360:	40f707b3          	sub	a5,a4,a5
   24364:	01363633          	sltu	a2,a2,s3
   24368:	40c78933          	sub	s2,a5,a2
   2436c:	00068493          	mv	s1,a3
   24370:	08090263          	beqz	s2,243f4 <__adddf3+0x668>
   24374:	00090513          	mv	a0,s2
   24378:	5fc020ef          	jal	ra,26974 <__clzsi2>
   2437c:	ff850713          	addi	a4,a0,-8 # 7ffff8 <__global_pointer$+0x7d858c>
   24380:	01f00793          	li	a5,31
   24384:	08e7c063          	blt	a5,a4,24404 <__adddf3+0x678>
   24388:	02000793          	li	a5,32
   2438c:	40e787b3          	sub	a5,a5,a4
   24390:	00e91933          	sll	s2,s2,a4
   24394:	00f9d7b3          	srl	a5,s3,a5
   24398:	0127e7b3          	or	a5,a5,s2
   2439c:	00e995b3          	sll	a1,s3,a4
   243a0:	0a874463          	blt	a4,s0,24448 <__adddf3+0x6bc>
   243a4:	40870733          	sub	a4,a4,s0
   243a8:	00170693          	addi	a3,a4,1
   243ac:	01f00613          	li	a2,31
   243b0:	06d64263          	blt	a2,a3,24414 <__adddf3+0x688>
   243b4:	02000713          	li	a4,32
   243b8:	40d70733          	sub	a4,a4,a3
   243bc:	00e79633          	sll	a2,a5,a4
   243c0:	00d5d533          	srl	a0,a1,a3
   243c4:	00e595b3          	sll	a1,a1,a4
   243c8:	00a66633          	or	a2,a2,a0
   243cc:	00b035b3          	snez	a1,a1
   243d0:	00b665b3          	or	a1,a2,a1
   243d4:	00d7d7b3          	srl	a5,a5,a3
   243d8:	00000413          	li	s0,0
   243dc:	c6dff06f          	j	24048 <__adddf3+0x2bc>
   243e0:	0129e5b3          	or	a1,s3,s2
   243e4:	f80596e3          	bnez	a1,24370 <__adddf3+0x5e4>
   243e8:	00000793          	li	a5,0
   243ec:	00000413          	li	s0,0
   243f0:	1480006f          	j	24538 <__adddf3+0x7ac>
   243f4:	00098513          	mv	a0,s3
   243f8:	57c020ef          	jal	ra,26974 <__clzsi2>
   243fc:	02050513          	addi	a0,a0,32
   24400:	f7dff06f          	j	2437c <__adddf3+0x5f0>
   24404:	fd850793          	addi	a5,a0,-40
   24408:	00f997b3          	sll	a5,s3,a5
   2440c:	00000593          	li	a1,0
   24410:	f91ff06f          	j	243a0 <__adddf3+0x614>
   24414:	fe170713          	addi	a4,a4,-31
   24418:	02000613          	li	a2,32
   2441c:	00e7d733          	srl	a4,a5,a4
   24420:	00000513          	li	a0,0
   24424:	00c68863          	beq	a3,a2,24434 <__adddf3+0x6a8>
   24428:	04000513          	li	a0,64
   2442c:	40d50533          	sub	a0,a0,a3
   24430:	00a79533          	sll	a0,a5,a0
   24434:	00a5e533          	or	a0,a1,a0
   24438:	00a03533          	snez	a0,a0
   2443c:	00a765b3          	or	a1,a4,a0
   24440:	00000793          	li	a5,0
   24444:	f95ff06f          	j	243d8 <__adddf3+0x64c>
   24448:	40e40433          	sub	s0,s0,a4
   2444c:	ff800737          	lui	a4,0xff800
   24450:	fff70713          	addi	a4,a4,-1 # ff7fffff <__global_pointer$+0xff7d8593>
   24454:	00e7f7b3          	and	a5,a5,a4
   24458:	bf1ff06f          	j	24048 <__adddf3+0x2bc>
   2445c:	00070793          	mv	a5,a4
   24460:	00060593          	mv	a1,a2
   24464:	00050413          	mv	s0,a0
   24468:	be1ff06f          	j	24048 <__adddf3+0x2bc>
   2446c:	00070793          	mv	a5,a4
   24470:	00060593          	mv	a1,a2
   24474:	bd5ff06f          	j	24048 <__adddf3+0x2bc>
   24478:	7ff00413          	li	s0,2047
   2447c:	00000793          	li	a5,0
   24480:	00000593          	li	a1,0
   24484:	00800737          	lui	a4,0x800
   24488:	00e7f733          	and	a4,a5,a4
   2448c:	00070e63          	beqz	a4,244a8 <__adddf3+0x71c>
   24490:	00140413          	addi	s0,s0,1
   24494:	7ff00713          	li	a4,2047
   24498:	0ce40063          	beq	s0,a4,24558 <__adddf3+0x7cc>
   2449c:	ff800737          	lui	a4,0xff800
   244a0:	fff70713          	addi	a4,a4,-1 # ff7fffff <__global_pointer$+0xff7d8593>
   244a4:	00e7f7b3          	and	a5,a5,a4
   244a8:	01d79713          	slli	a4,a5,0x1d
   244ac:	0035d513          	srli	a0,a1,0x3
   244b0:	00a76533          	or	a0,a4,a0
   244b4:	7ff00713          	li	a4,2047
   244b8:	0037d793          	srli	a5,a5,0x3
   244bc:	00e41e63          	bne	s0,a4,244d8 <__adddf3+0x74c>
   244c0:	00f56533          	or	a0,a0,a5
   244c4:	00000793          	li	a5,0
   244c8:	00050863          	beqz	a0,244d8 <__adddf3+0x74c>
   244cc:	000807b7          	lui	a5,0x80
   244d0:	00000513          	li	a0,0
   244d4:	00000493          	li	s1,0
   244d8:	01441713          	slli	a4,s0,0x14
   244dc:	7ff006b7          	lui	a3,0x7ff00
   244e0:	00c79793          	slli	a5,a5,0xc
   244e4:	01c12083          	lw	ra,28(sp)
   244e8:	01812403          	lw	s0,24(sp)
   244ec:	00d77733          	and	a4,a4,a3
   244f0:	00c7d793          	srli	a5,a5,0xc
   244f4:	01f49493          	slli	s1,s1,0x1f
   244f8:	00f767b3          	or	a5,a4,a5
   244fc:	0097e733          	or	a4,a5,s1
   24500:	01012903          	lw	s2,16(sp)
   24504:	01412483          	lw	s1,20(sp)
   24508:	00c12983          	lw	s3,12(sp)
   2450c:	00070593          	mv	a1,a4
   24510:	02010113          	addi	sp,sp,32
   24514:	00008067          	ret
   24518:	00080413          	mv	s0,a6
   2451c:	b2dff06f          	j	24048 <__adddf3+0x2bc>
   24520:	00070793          	mv	a5,a4
   24524:	00060593          	mv	a1,a2
   24528:	00050413          	mv	s0,a0
   2452c:	da5ff06f          	j	242d0 <__adddf3+0x544>
   24530:	00000793          	li	a5,0
   24534:	00000593          	li	a1,0
   24538:	00000493          	li	s1,0
   2453c:	f49ff06f          	j	24484 <__adddf3+0x6f8>
   24540:	00000793          	li	a5,0
   24544:	ff5ff06f          	j	24538 <__adddf3+0x7ac>
   24548:	00000593          	li	a1,0
   2454c:	00000493          	li	s1,0
   24550:	004007b7          	lui	a5,0x400
   24554:	b35ff06f          	j	24088 <__adddf3+0x2fc>
   24558:	00000793          	li	a5,0
   2455c:	00000593          	li	a1,0
   24560:	f49ff06f          	j	244a8 <__adddf3+0x71c>

00024564 <__divdf3>:
   24564:	fd010113          	addi	sp,sp,-48
   24568:	03212023          	sw	s2,32(sp)
   2456c:	0145d913          	srli	s2,a1,0x14
   24570:	02912223          	sw	s1,36(sp)
   24574:	01312e23          	sw	s3,28(sp)
   24578:	01412c23          	sw	s4,24(sp)
   2457c:	01612823          	sw	s6,16(sp)
   24580:	01812423          	sw	s8,8(sp)
   24584:	00c59493          	slli	s1,a1,0xc
   24588:	02112623          	sw	ra,44(sp)
   2458c:	02812423          	sw	s0,40(sp)
   24590:	01512a23          	sw	s5,20(sp)
   24594:	01712623          	sw	s7,12(sp)
   24598:	7ff97913          	andi	s2,s2,2047
   2459c:	00050a13          	mv	s4,a0
   245a0:	00060b13          	mv	s6,a2
   245a4:	00068c13          	mv	s8,a3
   245a8:	00c4d493          	srli	s1,s1,0xc
   245ac:	01f5d993          	srli	s3,a1,0x1f
   245b0:	0a090263          	beqz	s2,24654 <__divdf3+0xf0>
   245b4:	7ff00793          	li	a5,2047
   245b8:	10f90063          	beq	s2,a5,246b8 <__divdf3+0x154>
   245bc:	01d55a93          	srli	s5,a0,0x1d
   245c0:	00349493          	slli	s1,s1,0x3
   245c4:	009ae4b3          	or	s1,s5,s1
   245c8:	00800ab7          	lui	s5,0x800
   245cc:	0154eab3          	or	s5,s1,s5
   245d0:	00351413          	slli	s0,a0,0x3
   245d4:	c0190913          	addi	s2,s2,-1023
   245d8:	00000b93          	li	s7,0
   245dc:	00cc1513          	slli	a0,s8,0xc
   245e0:	00c55493          	srli	s1,a0,0xc
   245e4:	014c5513          	srli	a0,s8,0x14
   245e8:	7ff57593          	andi	a1,a0,2047
   245ec:	01fc5c13          	srli	s8,s8,0x1f
   245f0:	10058263          	beqz	a1,246f4 <__divdf3+0x190>
   245f4:	7ff00793          	li	a5,2047
   245f8:	16f58463          	beq	a1,a5,24760 <__divdf3+0x1fc>
   245fc:	00349513          	slli	a0,s1,0x3
   24600:	01db5793          	srli	a5,s6,0x1d
   24604:	00a7e533          	or	a0,a5,a0
   24608:	008004b7          	lui	s1,0x800
   2460c:	009564b3          	or	s1,a0,s1
   24610:	003b1f93          	slli	t6,s6,0x3
   24614:	c0158513          	addi	a0,a1,-1023
   24618:	00000793          	li	a5,0
   2461c:	002b9713          	slli	a4,s7,0x2
   24620:	00f76733          	or	a4,a4,a5
   24624:	fff70713          	addi	a4,a4,-1
   24628:	00e00613          	li	a2,14
   2462c:	0189c6b3          	xor	a3,s3,s8
   24630:	40a905b3          	sub	a1,s2,a0
   24634:	16e66263          	bltu	a2,a4,24798 <__divdf3+0x234>
   24638:	00003617          	auipc	a2,0x3
   2463c:	a0860613          	addi	a2,a2,-1528 # 27040 <main+0x680>
   24640:	00271713          	slli	a4,a4,0x2
   24644:	00c70733          	add	a4,a4,a2
   24648:	00072703          	lw	a4,0(a4)
   2464c:	00c70733          	add	a4,a4,a2
   24650:	00070067          	jr	a4
   24654:	00a4eab3          	or	s5,s1,a0
   24658:	060a8e63          	beqz	s5,246d4 <__divdf3+0x170>
   2465c:	04048063          	beqz	s1,2469c <__divdf3+0x138>
   24660:	00048513          	mv	a0,s1
   24664:	310020ef          	jal	ra,26974 <__clzsi2>
   24668:	ff550793          	addi	a5,a0,-11
   2466c:	01c00713          	li	a4,28
   24670:	02f74c63          	blt	a4,a5,246a8 <__divdf3+0x144>
   24674:	01d00a93          	li	s5,29
   24678:	ff850413          	addi	s0,a0,-8
   2467c:	40fa8ab3          	sub	s5,s5,a5
   24680:	008494b3          	sll	s1,s1,s0
   24684:	015a5ab3          	srl	s5,s4,s5
   24688:	009aeab3          	or	s5,s5,s1
   2468c:	008a1433          	sll	s0,s4,s0
   24690:	c0d00593          	li	a1,-1011
   24694:	40a58933          	sub	s2,a1,a0
   24698:	f41ff06f          	j	245d8 <__divdf3+0x74>
   2469c:	2d8020ef          	jal	ra,26974 <__clzsi2>
   246a0:	02050513          	addi	a0,a0,32
   246a4:	fc5ff06f          	j	24668 <__divdf3+0x104>
   246a8:	fd850493          	addi	s1,a0,-40
   246ac:	009a1ab3          	sll	s5,s4,s1
   246b0:	00000413          	li	s0,0
   246b4:	fddff06f          	j	24690 <__divdf3+0x12c>
   246b8:	00a4eab3          	or	s5,s1,a0
   246bc:	020a8463          	beqz	s5,246e4 <__divdf3+0x180>
   246c0:	00050413          	mv	s0,a0
   246c4:	00048a93          	mv	s5,s1
   246c8:	7ff00913          	li	s2,2047
   246cc:	00300b93          	li	s7,3
   246d0:	f0dff06f          	j	245dc <__divdf3+0x78>
   246d4:	00000413          	li	s0,0
   246d8:	00000913          	li	s2,0
   246dc:	00100b93          	li	s7,1
   246e0:	efdff06f          	j	245dc <__divdf3+0x78>
   246e4:	00000413          	li	s0,0
   246e8:	7ff00913          	li	s2,2047
   246ec:	00200b93          	li	s7,2
   246f0:	eedff06f          	j	245dc <__divdf3+0x78>
   246f4:	0164efb3          	or	t6,s1,s6
   246f8:	080f8063          	beqz	t6,24778 <__divdf3+0x214>
   246fc:	04048263          	beqz	s1,24740 <__divdf3+0x1dc>
   24700:	00048513          	mv	a0,s1
   24704:	270020ef          	jal	ra,26974 <__clzsi2>
   24708:	00050593          	mv	a1,a0
   2470c:	ff558793          	addi	a5,a1,-11
   24710:	01c00713          	li	a4,28
   24714:	02f74e63          	blt	a4,a5,24750 <__divdf3+0x1ec>
   24718:	01d00693          	li	a3,29
   2471c:	ff858f93          	addi	t6,a1,-8
   24720:	40f686b3          	sub	a3,a3,a5
   24724:	01f49533          	sll	a0,s1,t6
   24728:	00db56b3          	srl	a3,s6,a3
   2472c:	00a6e4b3          	or	s1,a3,a0
   24730:	01fb1fb3          	sll	t6,s6,t6
   24734:	c0d00693          	li	a3,-1011
   24738:	40b68533          	sub	a0,a3,a1
   2473c:	eddff06f          	j	24618 <__divdf3+0xb4>
   24740:	000b0513          	mv	a0,s6
   24744:	230020ef          	jal	ra,26974 <__clzsi2>
   24748:	02050593          	addi	a1,a0,32
   2474c:	fc1ff06f          	j	2470c <__divdf3+0x1a8>
   24750:	fd858513          	addi	a0,a1,-40
   24754:	00ab14b3          	sll	s1,s6,a0
   24758:	00000f93          	li	t6,0
   2475c:	fd9ff06f          	j	24734 <__divdf3+0x1d0>
   24760:	0164efb3          	or	t6,s1,s6
   24764:	020f8263          	beqz	t6,24788 <__divdf3+0x224>
   24768:	000b0f93          	mv	t6,s6
   2476c:	7ff00513          	li	a0,2047
   24770:	00300793          	li	a5,3
   24774:	ea9ff06f          	j	2461c <__divdf3+0xb8>
   24778:	00000493          	li	s1,0
   2477c:	00000513          	li	a0,0
   24780:	00100793          	li	a5,1
   24784:	e99ff06f          	j	2461c <__divdf3+0xb8>
   24788:	00000493          	li	s1,0
   2478c:	7ff00513          	li	a0,2047
   24790:	00200793          	li	a5,2
   24794:	e89ff06f          	j	2461c <__divdf3+0xb8>
   24798:	0154e663          	bltu	s1,s5,247a4 <__divdf3+0x240>
   2479c:	349a9e63          	bne	s5,s1,24af8 <__divdf3+0x594>
   247a0:	35f46c63          	bltu	s0,t6,24af8 <__divdf3+0x594>
   247a4:	01fa9613          	slli	a2,s5,0x1f
   247a8:	00145713          	srli	a4,s0,0x1
   247ac:	01f41793          	slli	a5,s0,0x1f
   247b0:	001ada93          	srli	s5,s5,0x1
   247b4:	00e66433          	or	s0,a2,a4
   247b8:	00849513          	slli	a0,s1,0x8
   247bc:	018fd893          	srli	a7,t6,0x18
   247c0:	00a8e8b3          	or	a7,a7,a0
   247c4:	01055513          	srli	a0,a0,0x10
   247c8:	02aade33          	divu	t3,s5,a0
   247cc:	01089e93          	slli	t4,a7,0x10
   247d0:	010ede93          	srli	t4,t4,0x10
   247d4:	01045713          	srli	a4,s0,0x10
   247d8:	008f9313          	slli	t1,t6,0x8
   247dc:	02aafab3          	remu	s5,s5,a0
   247e0:	000e0613          	mv	a2,t3
   247e4:	03ce8833          	mul	a6,t4,t3
   247e8:	010a9a93          	slli	s5,s5,0x10
   247ec:	01576733          	or	a4,a4,s5
   247f0:	01077e63          	bgeu	a4,a6,2480c <__divdf3+0x2a8>
   247f4:	01170733          	add	a4,a4,a7
   247f8:	fffe0613          	addi	a2,t3,-1
   247fc:	01176863          	bltu	a4,a7,2480c <__divdf3+0x2a8>
   24800:	01077663          	bgeu	a4,a6,2480c <__divdf3+0x2a8>
   24804:	ffee0613          	addi	a2,t3,-2
   24808:	01170733          	add	a4,a4,a7
   2480c:	41070733          	sub	a4,a4,a6
   24810:	02a75e33          	divu	t3,a4,a0
   24814:	01041413          	slli	s0,s0,0x10
   24818:	01045413          	srli	s0,s0,0x10
   2481c:	02a77733          	remu	a4,a4,a0
   24820:	000e0293          	mv	t0,t3
   24824:	03ce8833          	mul	a6,t4,t3
   24828:	01071713          	slli	a4,a4,0x10
   2482c:	00e46733          	or	a4,s0,a4
   24830:	01077e63          	bgeu	a4,a6,2484c <__divdf3+0x2e8>
   24834:	01170733          	add	a4,a4,a7
   24838:	fffe0293          	addi	t0,t3,-1
   2483c:	01176863          	bltu	a4,a7,2484c <__divdf3+0x2e8>
   24840:	01077663          	bgeu	a4,a6,2484c <__divdf3+0x2e8>
   24844:	ffee0293          	addi	t0,t3,-2
   24848:	01170733          	add	a4,a4,a7
   2484c:	41070433          	sub	s0,a4,a6
   24850:	01061613          	slli	a2,a2,0x10
   24854:	00010837          	lui	a6,0x10
   24858:	005662b3          	or	t0,a2,t0
   2485c:	fff80e13          	addi	t3,a6,-1 # ffff <_tbss_end+0xffff>
   24860:	0102d613          	srli	a2,t0,0x10
   24864:	01c2f733          	and	a4,t0,t3
   24868:	01035f13          	srli	t5,t1,0x10
   2486c:	01c37e33          	and	t3,t1,t3
   24870:	02ee03b3          	mul	t2,t3,a4
   24874:	03c604b3          	mul	s1,a2,t3
   24878:	02ef0733          	mul	a4,t5,a4
   2487c:	03e60fb3          	mul	t6,a2,t5
   24880:	00970633          	add	a2,a4,s1
   24884:	0103d713          	srli	a4,t2,0x10
   24888:	00c70733          	add	a4,a4,a2
   2488c:	00977463          	bgeu	a4,s1,24894 <__divdf3+0x330>
   24890:	010f8fb3          	add	t6,t6,a6
   24894:	01075613          	srli	a2,a4,0x10
   24898:	01f60633          	add	a2,a2,t6
   2489c:	00010fb7          	lui	t6,0x10
   248a0:	ffff8f93          	addi	t6,t6,-1 # ffff <_tbss_end+0xffff>
   248a4:	01f77833          	and	a6,a4,t6
   248a8:	01081813          	slli	a6,a6,0x10
   248ac:	01f3f3b3          	and	t2,t2,t6
   248b0:	00780833          	add	a6,a6,t2
   248b4:	00c46863          	bltu	s0,a2,248c4 <__divdf3+0x360>
   248b8:	00028493          	mv	s1,t0
   248bc:	04c41463          	bne	s0,a2,24904 <__divdf3+0x3a0>
   248c0:	0507f263          	bgeu	a5,a6,24904 <__divdf3+0x3a0>
   248c4:	006787b3          	add	a5,a5,t1
   248c8:	0067b733          	sltu	a4,a5,t1
   248cc:	01170733          	add	a4,a4,a7
   248d0:	00e40433          	add	s0,s0,a4
   248d4:	fff28493          	addi	s1,t0,-1 # 23ba3 <memset+0xb3>
   248d8:	0088e663          	bltu	a7,s0,248e4 <__divdf3+0x380>
   248dc:	02889463          	bne	a7,s0,24904 <__divdf3+0x3a0>
   248e0:	0267e263          	bltu	a5,t1,24904 <__divdf3+0x3a0>
   248e4:	00c46663          	bltu	s0,a2,248f0 <__divdf3+0x38c>
   248e8:	00861e63          	bne	a2,s0,24904 <__divdf3+0x3a0>
   248ec:	0107fc63          	bgeu	a5,a6,24904 <__divdf3+0x3a0>
   248f0:	006787b3          	add	a5,a5,t1
   248f4:	0067b733          	sltu	a4,a5,t1
   248f8:	01170733          	add	a4,a4,a7
   248fc:	ffe28493          	addi	s1,t0,-2
   24900:	00e40433          	add	s0,s0,a4
   24904:	41078833          	sub	a6,a5,a6
   24908:	40c40433          	sub	s0,s0,a2
   2490c:	0107b7b3          	sltu	a5,a5,a6
   24910:	40f40433          	sub	s0,s0,a5
   24914:	fff00f93          	li	t6,-1
   24918:	12888463          	beq	a7,s0,24a40 <__divdf3+0x4dc>
   2491c:	02a45fb3          	divu	t6,s0,a0
   24920:	01085713          	srli	a4,a6,0x10
   24924:	02a47433          	remu	s0,s0,a0
   24928:	000f8613          	mv	a2,t6
   2492c:	03fe87b3          	mul	a5,t4,t6
   24930:	01041413          	slli	s0,s0,0x10
   24934:	00876433          	or	s0,a4,s0
   24938:	00f47e63          	bgeu	s0,a5,24954 <__divdf3+0x3f0>
   2493c:	01140433          	add	s0,s0,a7
   24940:	ffff8613          	addi	a2,t6,-1
   24944:	01146863          	bltu	s0,a7,24954 <__divdf3+0x3f0>
   24948:	00f47663          	bgeu	s0,a5,24954 <__divdf3+0x3f0>
   2494c:	ffef8613          	addi	a2,t6,-2
   24950:	01140433          	add	s0,s0,a7
   24954:	40f40433          	sub	s0,s0,a5
   24958:	02a45733          	divu	a4,s0,a0
   2495c:	01081813          	slli	a6,a6,0x10
   24960:	01085813          	srli	a6,a6,0x10
   24964:	02a47433          	remu	s0,s0,a0
   24968:	00070793          	mv	a5,a4
   2496c:	02ee8eb3          	mul	t4,t4,a4
   24970:	01041413          	slli	s0,s0,0x10
   24974:	00886433          	or	s0,a6,s0
   24978:	01d47e63          	bgeu	s0,t4,24994 <__divdf3+0x430>
   2497c:	01140433          	add	s0,s0,a7
   24980:	fff70793          	addi	a5,a4,-1
   24984:	01146863          	bltu	s0,a7,24994 <__divdf3+0x430>
   24988:	01d47663          	bgeu	s0,t4,24994 <__divdf3+0x430>
   2498c:	ffe70793          	addi	a5,a4,-2
   24990:	01140433          	add	s0,s0,a7
   24994:	01061613          	slli	a2,a2,0x10
   24998:	00f66633          	or	a2,a2,a5
   2499c:	01061793          	slli	a5,a2,0x10
   249a0:	0107d793          	srli	a5,a5,0x10
   249a4:	01065713          	srli	a4,a2,0x10
   249a8:	02ef0833          	mul	a6,t5,a4
   249ac:	41d40433          	sub	s0,s0,t4
   249b0:	02ff0f33          	mul	t5,t5,a5
   249b4:	03c78eb3          	mul	t4,a5,t3
   249b8:	03c70e33          	mul	t3,a4,t3
   249bc:	010ed793          	srli	a5,t4,0x10
   249c0:	01cf0f33          	add	t5,t5,t3
   249c4:	01e787b3          	add	a5,a5,t5
   249c8:	01c7f663          	bgeu	a5,t3,249d4 <__divdf3+0x470>
   249cc:	00010737          	lui	a4,0x10
   249d0:	00e80833          	add	a6,a6,a4
   249d4:	0107d713          	srli	a4,a5,0x10
   249d8:	01070733          	add	a4,a4,a6
   249dc:	00010837          	lui	a6,0x10
   249e0:	fff80813          	addi	a6,a6,-1 # ffff <_tbss_end+0xffff>
   249e4:	0107f533          	and	a0,a5,a6
   249e8:	01051513          	slli	a0,a0,0x10
   249ec:	010efeb3          	and	t4,t4,a6
   249f0:	01d50533          	add	a0,a0,t4
   249f4:	00e46863          	bltu	s0,a4,24a04 <__divdf3+0x4a0>
   249f8:	24e41463          	bne	s0,a4,24c40 <__divdf3+0x6dc>
   249fc:	00060f93          	mv	t6,a2
   24a00:	04050063          	beqz	a0,24a40 <__divdf3+0x4dc>
   24a04:	00888433          	add	s0,a7,s0
   24a08:	fff60f93          	addi	t6,a2,-1
   24a0c:	03146463          	bltu	s0,a7,24a34 <__divdf3+0x4d0>
   24a10:	00e46663          	bltu	s0,a4,24a1c <__divdf3+0x4b8>
   24a14:	22e41463          	bne	s0,a4,24c3c <__divdf3+0x6d8>
   24a18:	02a37063          	bgeu	t1,a0,24a38 <__divdf3+0x4d4>
   24a1c:	00131793          	slli	a5,t1,0x1
   24a20:	0067b333          	sltu	t1,a5,t1
   24a24:	011308b3          	add	a7,t1,a7
   24a28:	ffe60f93          	addi	t6,a2,-2
   24a2c:	01140433          	add	s0,s0,a7
   24a30:	00078313          	mv	t1,a5
   24a34:	00e41463          	bne	s0,a4,24a3c <__divdf3+0x4d8>
   24a38:	00650463          	beq	a0,t1,24a40 <__divdf3+0x4dc>
   24a3c:	001fef93          	ori	t6,t6,1
   24a40:	3ff58793          	addi	a5,a1,1023
   24a44:	10f05a63          	blez	a5,24b58 <__divdf3+0x5f4>
   24a48:	007ff713          	andi	a4,t6,7
   24a4c:	02070063          	beqz	a4,24a6c <__divdf3+0x508>
   24a50:	00fff713          	andi	a4,t6,15
   24a54:	00400613          	li	a2,4
   24a58:	00c70a63          	beq	a4,a2,24a6c <__divdf3+0x508>
   24a5c:	004f8613          	addi	a2,t6,4
   24a60:	01f63fb3          	sltu	t6,a2,t6
   24a64:	01f484b3          	add	s1,s1,t6
   24a68:	00060f93          	mv	t6,a2
   24a6c:	01000737          	lui	a4,0x1000
   24a70:	00e4f733          	and	a4,s1,a4
   24a74:	00070a63          	beqz	a4,24a88 <__divdf3+0x524>
   24a78:	ff0007b7          	lui	a5,0xff000
   24a7c:	fff78793          	addi	a5,a5,-1 # feffffff <__global_pointer$+0xfefd8593>
   24a80:	00f4f4b3          	and	s1,s1,a5
   24a84:	40058793          	addi	a5,a1,1024
   24a88:	7fe00713          	li	a4,2046
   24a8c:	0af74063          	blt	a4,a5,24b2c <__divdf3+0x5c8>
   24a90:	003fdf93          	srli	t6,t6,0x3
   24a94:	01d49713          	slli	a4,s1,0x1d
   24a98:	01f76733          	or	a4,a4,t6
   24a9c:	0034d513          	srli	a0,s1,0x3
   24aa0:	01479793          	slli	a5,a5,0x14
   24aa4:	7ff00637          	lui	a2,0x7ff00
   24aa8:	00c51513          	slli	a0,a0,0xc
   24aac:	02c12083          	lw	ra,44(sp)
   24ab0:	02812403          	lw	s0,40(sp)
   24ab4:	00c7f7b3          	and	a5,a5,a2
   24ab8:	00c55513          	srli	a0,a0,0xc
   24abc:	00a7e533          	or	a0,a5,a0
   24ac0:	01f69693          	slli	a3,a3,0x1f
   24ac4:	00d567b3          	or	a5,a0,a3
   24ac8:	02412483          	lw	s1,36(sp)
   24acc:	02012903          	lw	s2,32(sp)
   24ad0:	01c12983          	lw	s3,28(sp)
   24ad4:	01812a03          	lw	s4,24(sp)
   24ad8:	01412a83          	lw	s5,20(sp)
   24adc:	01012b03          	lw	s6,16(sp)
   24ae0:	00c12b83          	lw	s7,12(sp)
   24ae4:	00812c03          	lw	s8,8(sp)
   24ae8:	00070513          	mv	a0,a4
   24aec:	00078593          	mv	a1,a5
   24af0:	03010113          	addi	sp,sp,48
   24af4:	00008067          	ret
   24af8:	fff58593          	addi	a1,a1,-1
   24afc:	00000793          	li	a5,0
   24b00:	cb9ff06f          	j	247b8 <__divdf3+0x254>
   24b04:	00098693          	mv	a3,s3
   24b08:	000a8493          	mv	s1,s5
   24b0c:	00040f93          	mv	t6,s0
   24b10:	000b8793          	mv	a5,s7
   24b14:	00300713          	li	a4,3
   24b18:	0ee78a63          	beq	a5,a4,24c0c <__divdf3+0x6a8>
   24b1c:	00100713          	li	a4,1
   24b20:	10e78063          	beq	a5,a4,24c20 <__divdf3+0x6bc>
   24b24:	00200713          	li	a4,2
   24b28:	f0e79ce3          	bne	a5,a4,24a40 <__divdf3+0x4dc>
   24b2c:	00000513          	li	a0,0
   24b30:	00000713          	li	a4,0
   24b34:	7ff00793          	li	a5,2047
   24b38:	f69ff06f          	j	24aa0 <__divdf3+0x53c>
   24b3c:	000c0693          	mv	a3,s8
   24b40:	fd5ff06f          	j	24b14 <__divdf3+0x5b0>
   24b44:	000804b7          	lui	s1,0x80
   24b48:	00000f93          	li	t6,0
   24b4c:	00000693          	li	a3,0
   24b50:	00300793          	li	a5,3
   24b54:	fc1ff06f          	j	24b14 <__divdf3+0x5b0>
   24b58:	00100513          	li	a0,1
   24b5c:	40f50533          	sub	a0,a0,a5
   24b60:	03800713          	li	a4,56
   24b64:	0aa74e63          	blt	a4,a0,24c20 <__divdf3+0x6bc>
   24b68:	01f00713          	li	a4,31
   24b6c:	06a74663          	blt	a4,a0,24bd8 <__divdf3+0x674>
   24b70:	41e58593          	addi	a1,a1,1054
   24b74:	00b497b3          	sll	a5,s1,a1
   24b78:	00afd733          	srl	a4,t6,a0
   24b7c:	00bf95b3          	sll	a1,t6,a1
   24b80:	00e7e7b3          	or	a5,a5,a4
   24b84:	00b035b3          	snez	a1,a1
   24b88:	00b7e7b3          	or	a5,a5,a1
   24b8c:	00a4d533          	srl	a0,s1,a0
   24b90:	0077f713          	andi	a4,a5,7
   24b94:	02070063          	beqz	a4,24bb4 <__divdf3+0x650>
   24b98:	00f7f713          	andi	a4,a5,15
   24b9c:	00400613          	li	a2,4
   24ba0:	00c70a63          	beq	a4,a2,24bb4 <__divdf3+0x650>
   24ba4:	00478713          	addi	a4,a5,4
   24ba8:	00f737b3          	sltu	a5,a4,a5
   24bac:	00f50533          	add	a0,a0,a5
   24bb0:	00070793          	mv	a5,a4
   24bb4:	00800737          	lui	a4,0x800
   24bb8:	00e57733          	and	a4,a0,a4
   24bbc:	06071863          	bnez	a4,24c2c <__divdf3+0x6c8>
   24bc0:	01d51713          	slli	a4,a0,0x1d
   24bc4:	0037d793          	srli	a5,a5,0x3
   24bc8:	00f76733          	or	a4,a4,a5
   24bcc:	00355513          	srli	a0,a0,0x3
   24bd0:	00000793          	li	a5,0
   24bd4:	ecdff06f          	j	24aa0 <__divdf3+0x53c>
   24bd8:	fe100713          	li	a4,-31
   24bdc:	40f707b3          	sub	a5,a4,a5
   24be0:	02000613          	li	a2,32
   24be4:	00f4d7b3          	srl	a5,s1,a5
   24be8:	00000713          	li	a4,0
   24bec:	00c50663          	beq	a0,a2,24bf8 <__divdf3+0x694>
   24bf0:	43e58713          	addi	a4,a1,1086
   24bf4:	00e49733          	sll	a4,s1,a4
   24bf8:	01f76733          	or	a4,a4,t6
   24bfc:	00e03733          	snez	a4,a4
   24c00:	00e7e7b3          	or	a5,a5,a4
   24c04:	00000513          	li	a0,0
   24c08:	f89ff06f          	j	24b90 <__divdf3+0x62c>
   24c0c:	00080537          	lui	a0,0x80
   24c10:	00000713          	li	a4,0
   24c14:	7ff00793          	li	a5,2047
   24c18:	00000693          	li	a3,0
   24c1c:	e85ff06f          	j	24aa0 <__divdf3+0x53c>
   24c20:	00000513          	li	a0,0
   24c24:	00000713          	li	a4,0
   24c28:	fa9ff06f          	j	24bd0 <__divdf3+0x66c>
   24c2c:	00000513          	li	a0,0
   24c30:	00000713          	li	a4,0
   24c34:	00100793          	li	a5,1
   24c38:	e69ff06f          	j	24aa0 <__divdf3+0x53c>
   24c3c:	000f8613          	mv	a2,t6
   24c40:	00060f93          	mv	t6,a2
   24c44:	df9ff06f          	j	24a3c <__divdf3+0x4d8>

00024c48 <__eqdf2>:
   24c48:	0145d713          	srli	a4,a1,0x14
   24c4c:	001007b7          	lui	a5,0x100
   24c50:	fff78793          	addi	a5,a5,-1 # fffff <__global_pointer$+0xd8593>
   24c54:	0146d813          	srli	a6,a3,0x14
   24c58:	00050313          	mv	t1,a0
   24c5c:	00050e93          	mv	t4,a0
   24c60:	7ff77713          	andi	a4,a4,2047
   24c64:	7ff00513          	li	a0,2047
   24c68:	00b7f8b3          	and	a7,a5,a1
   24c6c:	00060f13          	mv	t5,a2
   24c70:	00d7f7b3          	and	a5,a5,a3
   24c74:	01f5d593          	srli	a1,a1,0x1f
   24c78:	7ff87813          	andi	a6,a6,2047
   24c7c:	01f6d693          	srli	a3,a3,0x1f
   24c80:	00a71c63          	bne	a4,a0,24c98 <__eqdf2+0x50>
   24c84:	0068ee33          	or	t3,a7,t1
   24c88:	00100513          	li	a0,1
   24c8c:	000e1463          	bnez	t3,24c94 <__eqdf2+0x4c>
   24c90:	00e80663          	beq	a6,a4,24c9c <__eqdf2+0x54>
   24c94:	00008067          	ret
   24c98:	00a81863          	bne	a6,a0,24ca8 <__eqdf2+0x60>
   24c9c:	00c7e633          	or	a2,a5,a2
   24ca0:	00100513          	li	a0,1
   24ca4:	fe0618e3          	bnez	a2,24c94 <__eqdf2+0x4c>
   24ca8:	00100513          	li	a0,1
   24cac:	ff0714e3          	bne	a4,a6,24c94 <__eqdf2+0x4c>
   24cb0:	fef892e3          	bne	a7,a5,24c94 <__eqdf2+0x4c>
   24cb4:	ffee90e3          	bne	t4,t5,24c94 <__eqdf2+0x4c>
   24cb8:	00d58a63          	beq	a1,a3,24ccc <__eqdf2+0x84>
   24cbc:	fc071ce3          	bnez	a4,24c94 <__eqdf2+0x4c>
   24cc0:	0068e533          	or	a0,a7,t1
   24cc4:	00a03533          	snez	a0,a0
   24cc8:	00008067          	ret
   24ccc:	00000513          	li	a0,0
   24cd0:	00008067          	ret

00024cd4 <__gedf2>:
   24cd4:	00100737          	lui	a4,0x100
   24cd8:	fff70713          	addi	a4,a4,-1 # fffff <__global_pointer$+0xd8593>
   24cdc:	0145d813          	srli	a6,a1,0x14
   24ce0:	00b778b3          	and	a7,a4,a1
   24ce4:	00050793          	mv	a5,a0
   24ce8:	00050313          	mv	t1,a0
   24cec:	7ff87813          	andi	a6,a6,2047
   24cf0:	01f5d513          	srli	a0,a1,0x1f
   24cf4:	7ff00e93          	li	t4,2047
   24cf8:	0146d593          	srli	a1,a3,0x14
   24cfc:	00d77733          	and	a4,a4,a3
   24d00:	00060e13          	mv	t3,a2
   24d04:	7ff5f593          	andi	a1,a1,2047
   24d08:	01f6d693          	srli	a3,a3,0x1f
   24d0c:	01d81a63          	bne	a6,t4,24d20 <__gedf2+0x4c>
   24d10:	00f8eeb3          	or	t4,a7,a5
   24d14:	080e8a63          	beqz	t4,24da8 <__gedf2+0xd4>
   24d18:	ffe00513          	li	a0,-2
   24d1c:	00008067          	ret
   24d20:	01d59663          	bne	a1,t4,24d2c <__gedf2+0x58>
   24d24:	00c76eb3          	or	t4,a4,a2
   24d28:	fe0e98e3          	bnez	t4,24d18 <__gedf2+0x44>
   24d2c:	08081063          	bnez	a6,24dac <__gedf2+0xd8>
   24d30:	00f8e7b3          	or	a5,a7,a5
   24d34:	0017b793          	seqz	a5,a5
   24d38:	00059663          	bnez	a1,24d44 <__gedf2+0x70>
   24d3c:	00c76633          	or	a2,a4,a2
   24d40:	04060c63          	beqz	a2,24d98 <__gedf2+0xc4>
   24d44:	00079c63          	bnez	a5,24d5c <__gedf2+0x88>
   24d48:	00d51463          	bne	a0,a3,24d50 <__gedf2+0x7c>
   24d4c:	0305d063          	bge	a1,a6,24d6c <__gedf2+0x98>
   24d50:	04050063          	beqz	a0,24d90 <__gedf2+0xbc>
   24d54:	fff00513          	li	a0,-1
   24d58:	00008067          	ret
   24d5c:	fff00513          	li	a0,-1
   24d60:	00068a63          	beqz	a3,24d74 <__gedf2+0xa0>
   24d64:	00068513          	mv	a0,a3
   24d68:	00008067          	ret
   24d6c:	00b85663          	bge	a6,a1,24d78 <__gedf2+0xa4>
   24d70:	fe0502e3          	beqz	a0,24d54 <__gedf2+0x80>
   24d74:	00008067          	ret
   24d78:	fd176ce3          	bltu	a4,a7,24d50 <__gedf2+0x7c>
   24d7c:	02e89263          	bne	a7,a4,24da0 <__gedf2+0xcc>
   24d80:	fc6e68e3          	bltu	t3,t1,24d50 <__gedf2+0x7c>
   24d84:	ffc366e3          	bltu	t1,t3,24d70 <__gedf2+0x9c>
   24d88:	00000513          	li	a0,0
   24d8c:	00008067          	ret
   24d90:	00100513          	li	a0,1
   24d94:	00008067          	ret
   24d98:	fe0798e3          	bnez	a5,24d88 <__gedf2+0xb4>
   24d9c:	fb5ff06f          	j	24d50 <__gedf2+0x7c>
   24da0:	fce8e8e3          	bltu	a7,a4,24d70 <__gedf2+0x9c>
   24da4:	fe5ff06f          	j	24d88 <__gedf2+0xb4>
   24da8:	f7058ee3          	beq	a1,a6,24d24 <__gedf2+0x50>
   24dac:	f8059ee3          	bnez	a1,24d48 <__gedf2+0x74>
   24db0:	00000793          	li	a5,0
   24db4:	f89ff06f          	j	24d3c <__gedf2+0x68>

00024db8 <__ledf2>:
   24db8:	00100737          	lui	a4,0x100
   24dbc:	fff70713          	addi	a4,a4,-1 # fffff <__global_pointer$+0xd8593>
   24dc0:	0145d813          	srli	a6,a1,0x14
   24dc4:	00b778b3          	and	a7,a4,a1
   24dc8:	00050793          	mv	a5,a0
   24dcc:	00050313          	mv	t1,a0
   24dd0:	7ff87813          	andi	a6,a6,2047
   24dd4:	01f5d513          	srli	a0,a1,0x1f
   24dd8:	7ff00e93          	li	t4,2047
   24ddc:	0146d593          	srli	a1,a3,0x14
   24de0:	00d77733          	and	a4,a4,a3
   24de4:	00060e13          	mv	t3,a2
   24de8:	7ff5f593          	andi	a1,a1,2047
   24dec:	01f6d693          	srli	a3,a3,0x1f
   24df0:	01d81a63          	bne	a6,t4,24e04 <__ledf2+0x4c>
   24df4:	00f8eeb3          	or	t4,a7,a5
   24df8:	080e8a63          	beqz	t4,24e8c <__ledf2+0xd4>
   24dfc:	00200513          	li	a0,2
   24e00:	00008067          	ret
   24e04:	01d59663          	bne	a1,t4,24e10 <__ledf2+0x58>
   24e08:	00c76eb3          	or	t4,a4,a2
   24e0c:	fe0e98e3          	bnez	t4,24dfc <__ledf2+0x44>
   24e10:	08081063          	bnez	a6,24e90 <__ledf2+0xd8>
   24e14:	00f8e7b3          	or	a5,a7,a5
   24e18:	0017b793          	seqz	a5,a5
   24e1c:	00059663          	bnez	a1,24e28 <__ledf2+0x70>
   24e20:	00c76633          	or	a2,a4,a2
   24e24:	04060c63          	beqz	a2,24e7c <__ledf2+0xc4>
   24e28:	00079c63          	bnez	a5,24e40 <__ledf2+0x88>
   24e2c:	00d51463          	bne	a0,a3,24e34 <__ledf2+0x7c>
   24e30:	0305d063          	bge	a1,a6,24e50 <__ledf2+0x98>
   24e34:	04050063          	beqz	a0,24e74 <__ledf2+0xbc>
   24e38:	fff00513          	li	a0,-1
   24e3c:	00008067          	ret
   24e40:	fff00513          	li	a0,-1
   24e44:	00068a63          	beqz	a3,24e58 <__ledf2+0xa0>
   24e48:	00068513          	mv	a0,a3
   24e4c:	00008067          	ret
   24e50:	00b85663          	bge	a6,a1,24e5c <__ledf2+0xa4>
   24e54:	fe0502e3          	beqz	a0,24e38 <__ledf2+0x80>
   24e58:	00008067          	ret
   24e5c:	fd176ce3          	bltu	a4,a7,24e34 <__ledf2+0x7c>
   24e60:	02e89263          	bne	a7,a4,24e84 <__ledf2+0xcc>
   24e64:	fc6e68e3          	bltu	t3,t1,24e34 <__ledf2+0x7c>
   24e68:	ffc366e3          	bltu	t1,t3,24e54 <__ledf2+0x9c>
   24e6c:	00000513          	li	a0,0
   24e70:	00008067          	ret
   24e74:	00100513          	li	a0,1
   24e78:	00008067          	ret
   24e7c:	fe0798e3          	bnez	a5,24e6c <__ledf2+0xb4>
   24e80:	fb5ff06f          	j	24e34 <__ledf2+0x7c>
   24e84:	fce8e8e3          	bltu	a7,a4,24e54 <__ledf2+0x9c>
   24e88:	fe5ff06f          	j	24e6c <__ledf2+0xb4>
   24e8c:	f7058ee3          	beq	a1,a6,24e08 <__ledf2+0x50>
   24e90:	f8059ee3          	bnez	a1,24e2c <__ledf2+0x74>
   24e94:	00000793          	li	a5,0
   24e98:	f89ff06f          	j	24e20 <__ledf2+0x68>

00024e9c <__muldf3>:
   24e9c:	fd010113          	addi	sp,sp,-48
   24ea0:	01312e23          	sw	s3,28(sp)
   24ea4:	0145d993          	srli	s3,a1,0x14
   24ea8:	02812423          	sw	s0,40(sp)
   24eac:	02912223          	sw	s1,36(sp)
   24eb0:	01412c23          	sw	s4,24(sp)
   24eb4:	01512a23          	sw	s5,20(sp)
   24eb8:	01712623          	sw	s7,12(sp)
   24ebc:	00c59493          	slli	s1,a1,0xc
   24ec0:	02112623          	sw	ra,44(sp)
   24ec4:	03212023          	sw	s2,32(sp)
   24ec8:	01612823          	sw	s6,16(sp)
   24ecc:	7ff9f993          	andi	s3,s3,2047
   24ed0:	00050413          	mv	s0,a0
   24ed4:	00060b93          	mv	s7,a2
   24ed8:	00068a93          	mv	s5,a3
   24edc:	00c4d493          	srli	s1,s1,0xc
   24ee0:	01f5da13          	srli	s4,a1,0x1f
   24ee4:	0a098463          	beqz	s3,24f8c <__muldf3+0xf0>
   24ee8:	7ff00793          	li	a5,2047
   24eec:	10f98263          	beq	s3,a5,24ff0 <__muldf3+0x154>
   24ef0:	01d55793          	srli	a5,a0,0x1d
   24ef4:	00349493          	slli	s1,s1,0x3
   24ef8:	0097e4b3          	or	s1,a5,s1
   24efc:	008007b7          	lui	a5,0x800
   24f00:	00f4e4b3          	or	s1,s1,a5
   24f04:	00351913          	slli	s2,a0,0x3
   24f08:	c0198993          	addi	s3,s3,-1023
   24f0c:	00000b13          	li	s6,0
   24f10:	014ad513          	srli	a0,s5,0x14
   24f14:	00ca9413          	slli	s0,s5,0xc
   24f18:	7ff57513          	andi	a0,a0,2047
   24f1c:	00c45413          	srli	s0,s0,0xc
   24f20:	01fada93          	srli	s5,s5,0x1f
   24f24:	10050263          	beqz	a0,25028 <__muldf3+0x18c>
   24f28:	7ff00793          	li	a5,2047
   24f2c:	16f50263          	beq	a0,a5,25090 <__muldf3+0x1f4>
   24f30:	01dbd793          	srli	a5,s7,0x1d
   24f34:	00341413          	slli	s0,s0,0x3
   24f38:	0087e433          	or	s0,a5,s0
   24f3c:	008007b7          	lui	a5,0x800
   24f40:	00f46433          	or	s0,s0,a5
   24f44:	c0150513          	addi	a0,a0,-1023 # 7fc01 <__global_pointer$+0x58195>
   24f48:	003b9793          	slli	a5,s7,0x3
   24f4c:	00000713          	li	a4,0
   24f50:	002b1693          	slli	a3,s6,0x2
   24f54:	00e6e6b3          	or	a3,a3,a4
   24f58:	00a98533          	add	a0,s3,a0
   24f5c:	fff68693          	addi	a3,a3,-1 # 7fefffff <__global_pointer$+0x7fed8593>
   24f60:	00e00813          	li	a6,14
   24f64:	015a4633          	xor	a2,s4,s5
   24f68:	00150593          	addi	a1,a0,1
   24f6c:	14d86e63          	bltu	a6,a3,250c8 <__muldf3+0x22c>
   24f70:	00002517          	auipc	a0,0x2
   24f74:	10c50513          	addi	a0,a0,268 # 2707c <main+0x6bc>
   24f78:	00269693          	slli	a3,a3,0x2
   24f7c:	00a686b3          	add	a3,a3,a0
   24f80:	0006a683          	lw	a3,0(a3)
   24f84:	00a686b3          	add	a3,a3,a0
   24f88:	00068067          	jr	a3
   24f8c:	00a4e933          	or	s2,s1,a0
   24f90:	06090c63          	beqz	s2,25008 <__muldf3+0x16c>
   24f94:	04048063          	beqz	s1,24fd4 <__muldf3+0x138>
   24f98:	00048513          	mv	a0,s1
   24f9c:	1d9010ef          	jal	ra,26974 <__clzsi2>
   24fa0:	ff550713          	addi	a4,a0,-11
   24fa4:	01c00793          	li	a5,28
   24fa8:	02e7cc63          	blt	a5,a4,24fe0 <__muldf3+0x144>
   24fac:	01d00793          	li	a5,29
   24fb0:	ff850913          	addi	s2,a0,-8
   24fb4:	40e787b3          	sub	a5,a5,a4
   24fb8:	012494b3          	sll	s1,s1,s2
   24fbc:	00f457b3          	srl	a5,s0,a5
   24fc0:	0097e4b3          	or	s1,a5,s1
   24fc4:	01241933          	sll	s2,s0,s2
   24fc8:	c0d00993          	li	s3,-1011
   24fcc:	40a989b3          	sub	s3,s3,a0
   24fd0:	f3dff06f          	j	24f0c <__muldf3+0x70>
   24fd4:	1a1010ef          	jal	ra,26974 <__clzsi2>
   24fd8:	02050513          	addi	a0,a0,32
   24fdc:	fc5ff06f          	j	24fa0 <__muldf3+0x104>
   24fe0:	fd850493          	addi	s1,a0,-40
   24fe4:	009414b3          	sll	s1,s0,s1
   24fe8:	00000913          	li	s2,0
   24fec:	fddff06f          	j	24fc8 <__muldf3+0x12c>
   24ff0:	00a4e933          	or	s2,s1,a0
   24ff4:	02090263          	beqz	s2,25018 <__muldf3+0x17c>
   24ff8:	00050913          	mv	s2,a0
   24ffc:	7ff00993          	li	s3,2047
   25000:	00300b13          	li	s6,3
   25004:	f0dff06f          	j	24f10 <__muldf3+0x74>
   25008:	00000493          	li	s1,0
   2500c:	00000993          	li	s3,0
   25010:	00100b13          	li	s6,1
   25014:	efdff06f          	j	24f10 <__muldf3+0x74>
   25018:	00000493          	li	s1,0
   2501c:	7ff00993          	li	s3,2047
   25020:	00200b13          	li	s6,2
   25024:	eedff06f          	j	24f10 <__muldf3+0x74>
   25028:	017467b3          	or	a5,s0,s7
   2502c:	06078e63          	beqz	a5,250a8 <__muldf3+0x20c>
   25030:	04040063          	beqz	s0,25070 <__muldf3+0x1d4>
   25034:	00040513          	mv	a0,s0
   25038:	13d010ef          	jal	ra,26974 <__clzsi2>
   2503c:	ff550693          	addi	a3,a0,-11
   25040:	01c00793          	li	a5,28
   25044:	02d7ce63          	blt	a5,a3,25080 <__muldf3+0x1e4>
   25048:	01d00713          	li	a4,29
   2504c:	ff850793          	addi	a5,a0,-8
   25050:	40d70733          	sub	a4,a4,a3
   25054:	00f41433          	sll	s0,s0,a5
   25058:	00ebd733          	srl	a4,s7,a4
   2505c:	00876433          	or	s0,a4,s0
   25060:	00fb97b3          	sll	a5,s7,a5
   25064:	c0d00713          	li	a4,-1011
   25068:	40a70533          	sub	a0,a4,a0
   2506c:	ee1ff06f          	j	24f4c <__muldf3+0xb0>
   25070:	000b8513          	mv	a0,s7
   25074:	101010ef          	jal	ra,26974 <__clzsi2>
   25078:	02050513          	addi	a0,a0,32
   2507c:	fc1ff06f          	j	2503c <__muldf3+0x1a0>
   25080:	fd850413          	addi	s0,a0,-40
   25084:	008b9433          	sll	s0,s7,s0
   25088:	00000793          	li	a5,0
   2508c:	fd9ff06f          	j	25064 <__muldf3+0x1c8>
   25090:	017467b3          	or	a5,s0,s7
   25094:	02078263          	beqz	a5,250b8 <__muldf3+0x21c>
   25098:	000b8793          	mv	a5,s7
   2509c:	7ff00513          	li	a0,2047
   250a0:	00300713          	li	a4,3
   250a4:	eadff06f          	j	24f50 <__muldf3+0xb4>
   250a8:	00000413          	li	s0,0
   250ac:	00000513          	li	a0,0
   250b0:	00100713          	li	a4,1
   250b4:	e9dff06f          	j	24f50 <__muldf3+0xb4>
   250b8:	00000413          	li	s0,0
   250bc:	7ff00513          	li	a0,2047
   250c0:	00200713          	li	a4,2
   250c4:	e8dff06f          	j	24f50 <__muldf3+0xb4>
   250c8:	00010f37          	lui	t5,0x10
   250cc:	ffff0e93          	addi	t4,t5,-1 # ffff <_tbss_end+0xffff>
   250d0:	01095713          	srli	a4,s2,0x10
   250d4:	0107d893          	srli	a7,a5,0x10
   250d8:	01d97933          	and	s2,s2,t4
   250dc:	01d7f7b3          	and	a5,a5,t4
   250e0:	03288833          	mul	a6,a7,s2
   250e4:	02f906b3          	mul	a3,s2,a5
   250e8:	02f70fb3          	mul	t6,a4,a5
   250ec:	01f80333          	add	t1,a6,t6
   250f0:	0106d813          	srli	a6,a3,0x10
   250f4:	00680833          	add	a6,a6,t1
   250f8:	03170e33          	mul	t3,a4,a7
   250fc:	01f87463          	bgeu	a6,t6,25104 <__muldf3+0x268>
   25100:	01ee0e33          	add	t3,t3,t5
   25104:	01085393          	srli	t2,a6,0x10
   25108:	01d87833          	and	a6,a6,t4
   2510c:	01d6f6b3          	and	a3,a3,t4
   25110:	01045f13          	srli	t5,s0,0x10
   25114:	01d472b3          	and	t0,s0,t4
   25118:	01081813          	slli	a6,a6,0x10
   2511c:	00d80833          	add	a6,a6,a3
   25120:	02570eb3          	mul	t4,a4,t0
   25124:	025906b3          	mul	a3,s2,t0
   25128:	032f0933          	mul	s2,t5,s2
   2512c:	01d90333          	add	t1,s2,t4
   25130:	0106d913          	srli	s2,a3,0x10
   25134:	00690933          	add	s2,s2,t1
   25138:	03e70733          	mul	a4,a4,t5
   2513c:	01d97663          	bgeu	s2,t4,25148 <__muldf3+0x2ac>
   25140:	00010337          	lui	t1,0x10
   25144:	00670733          	add	a4,a4,t1
   25148:	01095e93          	srli	t4,s2,0x10
   2514c:	000109b7          	lui	s3,0x10
   25150:	00ee8eb3          	add	t4,t4,a4
   25154:	fff98713          	addi	a4,s3,-1 # ffff <_tbss_end+0xffff>
   25158:	00e97933          	and	s2,s2,a4
   2515c:	00e6f6b3          	and	a3,a3,a4
   25160:	0104d413          	srli	s0,s1,0x10
   25164:	01091913          	slli	s2,s2,0x10
   25168:	00e4f4b3          	and	s1,s1,a4
   2516c:	02978733          	mul	a4,a5,s1
   25170:	00d90933          	add	s2,s2,a3
   25174:	012383b3          	add	t2,t2,s2
   25178:	02f40333          	mul	t1,s0,a5
   2517c:	029886b3          	mul	a3,a7,s1
   25180:	028887b3          	mul	a5,a7,s0
   25184:	006688b3          	add	a7,a3,t1
   25188:	01075693          	srli	a3,a4,0x10
   2518c:	011686b3          	add	a3,a3,a7
   25190:	0066f463          	bgeu	a3,t1,25198 <__muldf3+0x2fc>
   25194:	013787b3          	add	a5,a5,s3
   25198:	0106d893          	srli	a7,a3,0x10
   2519c:	000109b7          	lui	s3,0x10
   251a0:	00f88fb3          	add	t6,a7,a5
   251a4:	fff98793          	addi	a5,s3,-1 # ffff <_tbss_end+0xffff>
   251a8:	029288b3          	mul	a7,t0,s1
   251ac:	00f6f6b3          	and	a3,a3,a5
   251b0:	00f77733          	and	a4,a4,a5
   251b4:	01069693          	slli	a3,a3,0x10
   251b8:	00e686b3          	add	a3,a3,a4
   251bc:	025407b3          	mul	a5,s0,t0
   251c0:	029f04b3          	mul	s1,t5,s1
   251c4:	028f0333          	mul	t1,t5,s0
   251c8:	00f484b3          	add	s1,s1,a5
   251cc:	0108d413          	srli	s0,a7,0x10
   251d0:	009404b3          	add	s1,s0,s1
   251d4:	00f4f463          	bgeu	s1,a5,251dc <__muldf3+0x340>
   251d8:	01330333          	add	t1,t1,s3
   251dc:	000107b7          	lui	a5,0x10
   251e0:	fff78793          	addi	a5,a5,-1 # ffff <_tbss_end+0xffff>
   251e4:	00f4f733          	and	a4,s1,a5
   251e8:	00f8f8b3          	and	a7,a7,a5
   251ec:	01071713          	slli	a4,a4,0x10
   251f0:	007e0e33          	add	t3,t3,t2
   251f4:	01170733          	add	a4,a4,a7
   251f8:	012e3933          	sltu	s2,t3,s2
   251fc:	01d70733          	add	a4,a4,t4
   25200:	01270433          	add	s0,a4,s2
   25204:	00de0e33          	add	t3,t3,a3
   25208:	00de36b3          	sltu	a3,t3,a3
   2520c:	01f408b3          	add	a7,s0,t6
   25210:	00d88f33          	add	t5,a7,a3
   25214:	01d73733          	sltu	a4,a4,t4
   25218:	01243433          	sltu	s0,s0,s2
   2521c:	00876433          	or	s0,a4,s0
   25220:	0104d493          	srli	s1,s1,0x10
   25224:	01f8b8b3          	sltu	a7,a7,t6
   25228:	00df36b3          	sltu	a3,t5,a3
   2522c:	00940433          	add	s0,s0,s1
   25230:	00d8e6b3          	or	a3,a7,a3
   25234:	00d40433          	add	s0,s0,a3
   25238:	00640433          	add	s0,s0,t1
   2523c:	017f5793          	srli	a5,t5,0x17
   25240:	00941413          	slli	s0,s0,0x9
   25244:	00f46433          	or	s0,s0,a5
   25248:	009e1793          	slli	a5,t3,0x9
   2524c:	0107e7b3          	or	a5,a5,a6
   25250:	00f037b3          	snez	a5,a5
   25254:	017e5e13          	srli	t3,t3,0x17
   25258:	009f1713          	slli	a4,t5,0x9
   2525c:	01c7e7b3          	or	a5,a5,t3
   25260:	00e7e7b3          	or	a5,a5,a4
   25264:	01000737          	lui	a4,0x1000
   25268:	00e47733          	and	a4,s0,a4
   2526c:	10070663          	beqz	a4,25378 <__muldf3+0x4dc>
   25270:	0017d713          	srli	a4,a5,0x1
   25274:	0017f793          	andi	a5,a5,1
   25278:	00f767b3          	or	a5,a4,a5
   2527c:	01f41713          	slli	a4,s0,0x1f
   25280:	00e7e7b3          	or	a5,a5,a4
   25284:	00145413          	srli	s0,s0,0x1
   25288:	3ff58693          	addi	a3,a1,1023
   2528c:	0ed05a63          	blez	a3,25380 <__muldf3+0x4e4>
   25290:	0077f713          	andi	a4,a5,7
   25294:	02070063          	beqz	a4,252b4 <__muldf3+0x418>
   25298:	00f7f713          	andi	a4,a5,15
   2529c:	00400513          	li	a0,4
   252a0:	00a70a63          	beq	a4,a0,252b4 <__muldf3+0x418>
   252a4:	00478713          	addi	a4,a5,4
   252a8:	00f737b3          	sltu	a5,a4,a5
   252ac:	00f40433          	add	s0,s0,a5
   252b0:	00070793          	mv	a5,a4
   252b4:	01000737          	lui	a4,0x1000
   252b8:	00e47733          	and	a4,s0,a4
   252bc:	00070a63          	beqz	a4,252d0 <__muldf3+0x434>
   252c0:	ff000737          	lui	a4,0xff000
   252c4:	fff70713          	addi	a4,a4,-1 # feffffff <__global_pointer$+0xfefd8593>
   252c8:	00e47433          	and	s0,s0,a4
   252cc:	40058693          	addi	a3,a1,1024
   252d0:	7fe00713          	li	a4,2046
   252d4:	16d74a63          	blt	a4,a3,25448 <__muldf3+0x5ac>
   252d8:	0037d713          	srli	a4,a5,0x3
   252dc:	01d41793          	slli	a5,s0,0x1d
   252e0:	00e7e7b3          	or	a5,a5,a4
   252e4:	00345413          	srli	s0,s0,0x3
   252e8:	01469713          	slli	a4,a3,0x14
   252ec:	00c41413          	slli	s0,s0,0xc
   252f0:	7ff006b7          	lui	a3,0x7ff00
   252f4:	00d77733          	and	a4,a4,a3
   252f8:	00c45413          	srli	s0,s0,0xc
   252fc:	00876433          	or	s0,a4,s0
   25300:	01f61613          	slli	a2,a2,0x1f
   25304:	02c12083          	lw	ra,44(sp)
   25308:	00c46733          	or	a4,s0,a2
   2530c:	02812403          	lw	s0,40(sp)
   25310:	02412483          	lw	s1,36(sp)
   25314:	02012903          	lw	s2,32(sp)
   25318:	01c12983          	lw	s3,28(sp)
   2531c:	01812a03          	lw	s4,24(sp)
   25320:	01412a83          	lw	s5,20(sp)
   25324:	01012b03          	lw	s6,16(sp)
   25328:	00c12b83          	lw	s7,12(sp)
   2532c:	00078513          	mv	a0,a5
   25330:	00070593          	mv	a1,a4
   25334:	03010113          	addi	sp,sp,48
   25338:	00008067          	ret
   2533c:	000a0613          	mv	a2,s4
   25340:	00048413          	mv	s0,s1
   25344:	00090793          	mv	a5,s2
   25348:	000b0713          	mv	a4,s6
   2534c:	00200693          	li	a3,2
   25350:	0ed70c63          	beq	a4,a3,25448 <__muldf3+0x5ac>
   25354:	00300693          	li	a3,3
   25358:	0cd70e63          	beq	a4,a3,25434 <__muldf3+0x598>
   2535c:	00100693          	li	a3,1
   25360:	f2d714e3          	bne	a4,a3,25288 <__muldf3+0x3ec>
   25364:	00000413          	li	s0,0
   25368:	00000793          	li	a5,0
   2536c:	08c0006f          	j	253f8 <__muldf3+0x55c>
   25370:	000a8613          	mv	a2,s5
   25374:	fd9ff06f          	j	2534c <__muldf3+0x4b0>
   25378:	00050593          	mv	a1,a0
   2537c:	f0dff06f          	j	25288 <__muldf3+0x3ec>
   25380:	00100513          	li	a0,1
   25384:	40d50533          	sub	a0,a0,a3
   25388:	03800713          	li	a4,56
   2538c:	fca74ce3          	blt	a4,a0,25364 <__muldf3+0x4c8>
   25390:	01f00713          	li	a4,31
   25394:	06a74663          	blt	a4,a0,25400 <__muldf3+0x564>
   25398:	41e58593          	addi	a1,a1,1054
   2539c:	00b41733          	sll	a4,s0,a1
   253a0:	00a7d6b3          	srl	a3,a5,a0
   253a4:	00b797b3          	sll	a5,a5,a1
   253a8:	00d76733          	or	a4,a4,a3
   253ac:	00f037b3          	snez	a5,a5
   253b0:	00f767b3          	or	a5,a4,a5
   253b4:	00a45433          	srl	s0,s0,a0
   253b8:	0077f713          	andi	a4,a5,7
   253bc:	02070063          	beqz	a4,253dc <__muldf3+0x540>
   253c0:	00f7f713          	andi	a4,a5,15
   253c4:	00400693          	li	a3,4
   253c8:	00d70a63          	beq	a4,a3,253dc <__muldf3+0x540>
   253cc:	00478713          	addi	a4,a5,4
   253d0:	00f737b3          	sltu	a5,a4,a5
   253d4:	00f40433          	add	s0,s0,a5
   253d8:	00070793          	mv	a5,a4
   253dc:	00800737          	lui	a4,0x800
   253e0:	00e47733          	and	a4,s0,a4
   253e4:	06071a63          	bnez	a4,25458 <__muldf3+0x5bc>
   253e8:	01d41713          	slli	a4,s0,0x1d
   253ec:	0037d793          	srli	a5,a5,0x3
   253f0:	00f767b3          	or	a5,a4,a5
   253f4:	00345413          	srli	s0,s0,0x3
   253f8:	00000693          	li	a3,0
   253fc:	eedff06f          	j	252e8 <__muldf3+0x44c>
   25400:	fe100713          	li	a4,-31
   25404:	40d70733          	sub	a4,a4,a3
   25408:	02000813          	li	a6,32
   2540c:	00e45733          	srl	a4,s0,a4
   25410:	00000693          	li	a3,0
   25414:	01050663          	beq	a0,a6,25420 <__muldf3+0x584>
   25418:	43e58593          	addi	a1,a1,1086
   2541c:	00b416b3          	sll	a3,s0,a1
   25420:	00f6e7b3          	or	a5,a3,a5
   25424:	00f037b3          	snez	a5,a5
   25428:	00f767b3          	or	a5,a4,a5
   2542c:	00000413          	li	s0,0
   25430:	f89ff06f          	j	253b8 <__muldf3+0x51c>
   25434:	00080437          	lui	s0,0x80
   25438:	00000793          	li	a5,0
   2543c:	7ff00693          	li	a3,2047
   25440:	00000613          	li	a2,0
   25444:	ea5ff06f          	j	252e8 <__muldf3+0x44c>
   25448:	00000413          	li	s0,0
   2544c:	00000793          	li	a5,0
   25450:	7ff00693          	li	a3,2047
   25454:	e95ff06f          	j	252e8 <__muldf3+0x44c>
   25458:	00000413          	li	s0,0
   2545c:	00000793          	li	a5,0
   25460:	00100693          	li	a3,1
   25464:	e85ff06f          	j	252e8 <__muldf3+0x44c>

00025468 <__subdf3>:
   25468:	00100837          	lui	a6,0x100
   2546c:	fff80813          	addi	a6,a6,-1 # fffff <__global_pointer$+0xd8593>
   25470:	fe010113          	addi	sp,sp,-32
   25474:	00b877b3          	and	a5,a6,a1
   25478:	0145d713          	srli	a4,a1,0x14
   2547c:	00d87833          	and	a6,a6,a3
   25480:	0146d313          	srli	t1,a3,0x14
   25484:	00812c23          	sw	s0,24(sp)
   25488:	00379793          	slli	a5,a5,0x3
   2548c:	7ff77413          	andi	s0,a4,2047
   25490:	01d55713          	srli	a4,a0,0x1d
   25494:	00912a23          	sw	s1,20(sp)
   25498:	00f767b3          	or	a5,a4,a5
   2549c:	01f5d493          	srli	s1,a1,0x1f
   254a0:	01d65713          	srli	a4,a2,0x1d
   254a4:	00351593          	slli	a1,a0,0x3
   254a8:	00381813          	slli	a6,a6,0x3
   254ac:	00112e23          	sw	ra,28(sp)
   254b0:	01212823          	sw	s2,16(sp)
   254b4:	01312623          	sw	s3,12(sp)
   254b8:	7ff37313          	andi	t1,t1,2047
   254bc:	7ff00513          	li	a0,2047
   254c0:	01f6d693          	srli	a3,a3,0x1f
   254c4:	01076733          	or	a4,a4,a6
   254c8:	00361613          	slli	a2,a2,0x3
   254cc:	00a31663          	bne	t1,a0,254d8 <__subdf3+0x70>
   254d0:	00c76533          	or	a0,a4,a2
   254d4:	00051463          	bnez	a0,254dc <__subdf3+0x74>
   254d8:	0016c693          	xori	a3,a3,1
   254dc:	40640833          	sub	a6,s0,t1
   254e0:	2c969863          	bne	a3,s1,257b0 <__subdf3+0x348>
   254e4:	13005063          	blez	a6,25604 <__subdf3+0x19c>
   254e8:	04031063          	bnez	t1,25528 <__subdf3+0xc0>
   254ec:	00c766b3          	or	a3,a4,a2
   254f0:	70068c63          	beqz	a3,25c08 <__subdf3+0x7a0>
   254f4:	fff80513          	addi	a0,a6,-1
   254f8:	02051063          	bnez	a0,25518 <__subdf3+0xb0>
   254fc:	00c58633          	add	a2,a1,a2
   25500:	00b63533          	sltu	a0,a2,a1
   25504:	00e787b3          	add	a5,a5,a4
   25508:	00a787b3          	add	a5,a5,a0
   2550c:	00060593          	mv	a1,a2
   25510:	00100413          	li	s0,1
   25514:	0700006f          	j	25584 <__subdf3+0x11c>
   25518:	7ff00693          	li	a3,2047
   2551c:	02d81063          	bne	a6,a3,2553c <__subdf3+0xd4>
   25520:	7ff00413          	li	s0,2047
   25524:	2140006f          	j	25738 <__subdf3+0x2d0>
   25528:	7ff00693          	li	a3,2047
   2552c:	20d40663          	beq	s0,a3,25738 <__subdf3+0x2d0>
   25530:	008006b7          	lui	a3,0x800
   25534:	00d76733          	or	a4,a4,a3
   25538:	00080513          	mv	a0,a6
   2553c:	03800693          	li	a3,56
   25540:	0aa6cc63          	blt	a3,a0,255f8 <__subdf3+0x190>
   25544:	01f00693          	li	a3,31
   25548:	06a6ce63          	blt	a3,a0,255c4 <__subdf3+0x15c>
   2554c:	02000813          	li	a6,32
   25550:	40a80833          	sub	a6,a6,a0
   25554:	010716b3          	sll	a3,a4,a6
   25558:	00a658b3          	srl	a7,a2,a0
   2555c:	01061633          	sll	a2,a2,a6
   25560:	0116e6b3          	or	a3,a3,a7
   25564:	00c03633          	snez	a2,a2
   25568:	00c6e633          	or	a2,a3,a2
   2556c:	00a75733          	srl	a4,a4,a0
   25570:	00b60633          	add	a2,a2,a1
   25574:	00b63533          	sltu	a0,a2,a1
   25578:	00f70733          	add	a4,a4,a5
   2557c:	00a707b3          	add	a5,a4,a0
   25580:	00060593          	mv	a1,a2
   25584:	00800737          	lui	a4,0x800
   25588:	00e7f733          	and	a4,a5,a4
   2558c:	1a070663          	beqz	a4,25738 <__subdf3+0x2d0>
   25590:	00140413          	addi	s0,s0,1 # 80001 <__global_pointer$+0x58595>
   25594:	7ff00713          	li	a4,2047
   25598:	5ce40a63          	beq	s0,a4,25b6c <__subdf3+0x704>
   2559c:	ff800737          	lui	a4,0xff800
   255a0:	fff70713          	addi	a4,a4,-1 # ff7fffff <__global_pointer$+0xff7d8593>
   255a4:	00e7f7b3          	and	a5,a5,a4
   255a8:	0015f513          	andi	a0,a1,1
   255ac:	0015d713          	srli	a4,a1,0x1
   255b0:	00a76533          	or	a0,a4,a0
   255b4:	01f79593          	slli	a1,a5,0x1f
   255b8:	00a5e5b3          	or	a1,a1,a0
   255bc:	0017d793          	srli	a5,a5,0x1
   255c0:	1780006f          	j	25738 <__subdf3+0x2d0>
   255c4:	fe050693          	addi	a3,a0,-32
   255c8:	02000893          	li	a7,32
   255cc:	00d756b3          	srl	a3,a4,a3
   255d0:	00000813          	li	a6,0
   255d4:	01150863          	beq	a0,a7,255e4 <__subdf3+0x17c>
   255d8:	04000813          	li	a6,64
   255dc:	40a80533          	sub	a0,a6,a0
   255e0:	00a71833          	sll	a6,a4,a0
   255e4:	00c86633          	or	a2,a6,a2
   255e8:	00c03633          	snez	a2,a2
   255ec:	00c6e633          	or	a2,a3,a2
   255f0:	00000713          	li	a4,0
   255f4:	f7dff06f          	j	25570 <__subdf3+0x108>
   255f8:	00c76633          	or	a2,a4,a2
   255fc:	00c03633          	snez	a2,a2
   25600:	ff1ff06f          	j	255f0 <__subdf3+0x188>
   25604:	0e080263          	beqz	a6,256e8 <__subdf3+0x280>
   25608:	40830533          	sub	a0,t1,s0
   2560c:	02041e63          	bnez	s0,25648 <__subdf3+0x1e0>
   25610:	00b7e6b3          	or	a3,a5,a1
   25614:	52068c63          	beqz	a3,25b4c <__subdf3+0x6e4>
   25618:	fff50693          	addi	a3,a0,-1
   2561c:	00069c63          	bnez	a3,25634 <__subdf3+0x1cc>
   25620:	00c585b3          	add	a1,a1,a2
   25624:	00e787b3          	add	a5,a5,a4
   25628:	00c5b633          	sltu	a2,a1,a2
   2562c:	00c787b3          	add	a5,a5,a2
   25630:	ee1ff06f          	j	25510 <__subdf3+0xa8>
   25634:	7ff00813          	li	a6,2047
   25638:	03051263          	bne	a0,a6,2565c <__subdf3+0x1f4>
   2563c:	00070793          	mv	a5,a4
   25640:	00060593          	mv	a1,a2
   25644:	eddff06f          	j	25520 <__subdf3+0xb8>
   25648:	7ff00693          	li	a3,2047
   2564c:	fed308e3          	beq	t1,a3,2563c <__subdf3+0x1d4>
   25650:	008006b7          	lui	a3,0x800
   25654:	00d7e7b3          	or	a5,a5,a3
   25658:	00050693          	mv	a3,a0
   2565c:	03800513          	li	a0,56
   25660:	06d54e63          	blt	a0,a3,256dc <__subdf3+0x274>
   25664:	01f00513          	li	a0,31
   25668:	04d54063          	blt	a0,a3,256a8 <__subdf3+0x240>
   2566c:	02000813          	li	a6,32
   25670:	40d80833          	sub	a6,a6,a3
   25674:	01079533          	sll	a0,a5,a6
   25678:	00d5d8b3          	srl	a7,a1,a3
   2567c:	010595b3          	sll	a1,a1,a6
   25680:	01156533          	or	a0,a0,a7
   25684:	00b035b3          	snez	a1,a1
