
build/uart_led.elf:     file format elf32-littleriscv
build/uart_led.elf
architecture: riscv:rv32, flags 0x00000112:
EXEC_P, HAS_SYMS, D_PAGED
start address 0x00020000

Program Header:
    LOAD off    0x00001000 vaddr 0x00020000 paddr 0x00020000 align 2**12
         filesz 0x0000734c memsz 0x000073a0 flags rwx

Sections:
Idx Name              Size      VMA       LMA       File off  Algn  Flags
  0 .text.init        000001f0  00020000  00020000  00001000  2**2  CONTENTS, ALLOC, LOAD, READONLY, CODE
  1 .text             000069bc  000201f0  000201f0  000011f0  2**2  CONTENTS, ALLOC, LOAD, READONLY, CODE
  2 .text.main        00000250  00026bac  00026bac  00007bac  2**2  CONTENTS, ALLOC, LOAD, READONLY, CODE
  3 .rodata           00000508  00026e00  00026e00  00007e00  2**3  CONTENTS, ALLOC, LOAD, READONLY, DATA
  4 .rela.dyn         00000024  00027308  00027308  00008308  2**2  CONTENTS, ALLOC, LOAD, READONLY, DATA
  5 .got              00000010  0002732c  0002732c  0000832c  2**2  CONTENTS, ALLOC, LOAD, DATA
  6 .got.plt          00000008  0002733c  0002733c  0000833c  2**2  CONTENTS, ALLOC, LOAD, DATA
  7 .sdata            00000008  00027344  00027344  00008344  2**2  CONTENTS, ALLOC, LOAD, DATA
  8 .sbss             00000004  0002734c  0002734c  0000834c  2**2  ALLOC
  9 .bss              00000050  00027350  00027350  0000834c  2**2  ALLOC
 10 .comment          00000012  00000000  00000000  0000834c  2**0  CONTENTS, READONLY
 11 .riscv.attributes 00000025  00000000  00000000  0000835e  2**0  CONTENTS, READONLY
 12 .debug_info       000035a1  00000000  00000000  00008383  2**0  CONTENTS, READONLY, DEBUGGING, OCTETS
 13 .debug_abbrev     000014d6  00000000  00000000  0000b924  2**0  CONTENTS, READONLY, DEBUGGING, OCTETS
 14 .debug_loc        0000641e  00000000  00000000  0000cdfa  2**0  CONTENTS, READONLY, DEBUGGING, OCTETS
 15 .debug_aranges    000001f8  00000000  00000000  00013218  2**0  CONTENTS, READONLY, DEBUGGING, OCTETS
 16 .debug_ranges     00000ce0  00000000  00000000  00013410  2**0  CONTENTS, READONLY, DEBUGGING, OCTETS
 17 .debug_line       00006a22  00000000  00000000  000140f0  2**0  CONTENTS, READONLY, DEBUGGING, OCTETS
 18 .debug_str        00000b1d  00000000  00000000  0001ab12  2**0  CONTENTS, READONLY, DEBUGGING, OCTETS
 19 .debug_frame      00000334  00000000  00000000  0001b630  2**2  CONTENTS, READONLY, DEBUGGING, OCTETS
SYMBOL TABLE:
00020000 l    d  .text.init	00000000 .text.init
000201f0 l    d  .text	00000000 .text
00026bac l    d  .text.main	00000000 .text.main
00026e00 l    d  .rodata	00000000 .rodata
00027308 l    d  .rela.dyn	00000000 .rela.dyn
0002732c l    d  .got	00000000 .got
0002733c l    d  .got.plt	00000000 .got.plt
00027344 l    d  .sdata	00000000 .sdata
0002734c l    d  .sbss	00000000 .sbss
00027350 l    d  .bss	00000000 .bss
00000000 l    d  .comment	00000000 .comment
00000000 l    d  .riscv.attributes	00000000 .riscv.attributes
00000000 l    d  .debug_info	00000000 .debug_info
00000000 l    d  .debug_abbrev	00000000 .debug_abbrev
00000000 l    d  .debug_loc	00000000 .debug_loc
00000000 l    d  .debug_aranges	00000000 .debug_aranges
00000000 l    d  .debug_ranges	00000000 .debug_ranges
00000000 l    d  .debug_line	00000000 .debug_line
00000000 l    d  .debug_str	00000000 .debug_str
00000000 l    d  .debug_frame	00000000 .debug_frame
00000000 l    df *ABS*	00000000 uart.c
00000000 l    df *ABS*	00000000 gpio.c
00000000 l    df *ABS*	00000000 stdlib.c
00020d64 l     F .text	0000009c init_tls
00020f40 l     F .text	000000a8 getuint
00020fe8 l     F .text	000000b0 getint
00027344 l     O .sdata	00000004 digits
00027348 l     O .sdata	00000004 upper_digits
00021098 l     F .text	00000090 skip_atoi
00021334 l       .text	00000000 loop_us
00021400 l       .text	00000000 final
000213f0 l       .text	00000000 cycle_loop
000213dc l       .text	00000000 loop
000213f8 l       .text	00000000 loop1
00021440 l     F .text	0000038c number
000217cc l     F .text	000001c4 eaddr
00021990 l     F .text	0000028c iaddr
00021c1c l     F .text	0000006c ee_bufcpy
00021c88 l     F .text	00000494 parse_float
0002211c l     F .text	00000100 decimal_point
0002221c l     F .text	0000010c cropzeros
00022328 l     F .text	0000029c flt
000225c4 l     F .text	00000670 ee_vsprintf
00000000 l    df *ABS*	00000000 rawfloat.c
00027350 l     O .bss	00000050 CVTBUF
00022e20 l     F .text	000004c4 cvt
00000000 l    df *ABS*	00000000 debug_uart.c
00000000 l    df *ABS*	00000000 memcpy.c
00000000 l    df *ABS*	00000000 s_modf.c
00000000 l    df *ABS*	00000000 strnlen.c
00000000 l    df *ABS*	00000000 adddf3.c
00000000 l    df *ABS*	00000000 divdf3.c
00000000 l    df *ABS*	00000000 eqdf2.c
00000000 l    df *ABS*	00000000 gedf2.c
00000000 l    df *ABS*	00000000 ledf2.c
00000000 l    df *ABS*	00000000 muldf3.c
00000000 l    df *ABS*	00000000 subdf3.c
00000000 l    df *ABS*	00000000 fixdfsi.c
00000000 l    df *ABS*	00000000 fixunsdfsi.c
00000000 l    df *ABS*	00000000 floatunsidf.c
00000000 l    df *ABS*	00000000 addsf3.c
00000000 l    df *ABS*	00000000 divsf3.c
00000000 l    df *ABS*	00000000 mulsf3.c
00000000 l    df *ABS*	00000000 floatsisf.c
00000000 l    df *ABS*	00000000 libgcc2.c
00000000 l    df *ABS*	00000000 uart_led.c
00000000 l    df *ABS*	00000000 libgcc2.c
00000000 l    df *ABS*	00000000 
0002732c l     O .got	00000000 _GLOBAL_OFFSET_TABLE_
00020e40 g     F .text	00000050 putchar
000203ac g     F .text	00000138 uart_configure
00024e34 g     F .text	0000008c .hidden __eqdf2
00020b08 g     F .text	0000004c pinClear
00020cc4 g     F .text	00000034 printstr
00022cbc g     F .text	000000cc printf
00027b44 g       .sdata	00000000 __global_pointer$
00023404 g     F .text	00000060 fcvtbuf
00026418 g     F .text	00000338 .hidden __divsf3
00024ec0 g     F .text	000000e4 .hidden __gtdf2
00023954 g     F .text	0000017c get_hex
000213b4 g     F .text	0000005c usleep
00020a90 g     F .text	0000002c digitalRead
00021410 g     F .text	00000030 get_time
00020a08 g     F .text	00000044 digitalSet
00023ad0 g     F .text	0000011c memcpy
00024fa4 g     F .text	000000e4 .hidden __ltdf2
00022c34 g     F .text	00000088 puts
0002734c g     O .sbss	00000004 loop_count
00020bc0  w    F .text	000000b0 handle_trap
00025ec0 g     F .text	0000007c .hidden __fixunsdfsi
00023464 g     F .text	00000068 init_uart
000209a8 g     F .text	00000060 digitalWrite
00023f78 g     F .text	000007d8 .hidden __adddf3
000273a0 g       .bss	00000000 _tls_data
00020c94 g     F .text	00000030 abort
00025f3c g     F .text	00000080 .hidden __floatunsidf
00022dfc g     F .text	00000024 _sbrk
00020e00 g     F .text	00000040 _init
00023f40 g     F .text	00000038 strnlen
000212f0 g     F .text	0000006c accurate_udelay
00020798 g     F .text	000001a4 uart_getchar_async
00025e40 g     F .text	00000080 .hidden __fixdfsi
000234cc g     F .text	00000068 tx_uart
00020670 g     F .text	00000128 uart_getchar
00020abc g     F .text	0000004c pinSet
000211ac g     F .text	00000144 atof
00024fa4 g     F .text	000000e4 .hidden __ledf2
00023cc8 g     F .text	000000fc modf
00026b60 g     F .text	0000004c .hidden __clzsi2
000201f0 g     F .text	000000c8 uart_init
00020000 g       .text.init	00000000 _start
000237a0 g     F .text	000001b4 get_long_int
00026a58 g     F .text	00000108 .hidden __floatsisf
0002093c g     F .text	0000006c uart_intr_enable
0002135c g     F .text	00000058 udelay
000202b8 g     F .text	000000f4 uart_set_baud_rate
00024750 g     F .text	000006e4 .hidden __divdf3
00020a4c g     F .text	00000044 digitalClear
00025088 g     F .text	000005cc .hidden __muldf3
00020b54 g     F .text	0000006c pinRead
00023bec g     F .text	000000dc memset
00026bac g     F .text.main	00000250 main
000233a4 g     F .text	00000060 fcvt
000200cc g       .text.init	00000000 trap_entry
00023344 g     F .text	00000060 ecvtbuf
00026750 g     F .text	00000308 .hidden __mulsf3
00023534 g     F .text	00000054 rx_uart
00023dc4 g     F .text	0000017c strcmp
00024e34 g     F .text	0000008c .hidden __nedf2
00022d88 g     F .text	00000074 sprintf
00027208 g     O .rodata	00000100 .hidden __clz_tab
00020e90 g     F .text	000000b0 printhex
000232e4 g     F .text	00000060 ecvt
00000000 g       .bss	00000000 _tdata_end
000273a0 g       .bss	00000000 _end
00000000 g       .bss	00000000 _tdata_begin
00020c70 g     F .text	00000024 exit
00021128 g     F .text	00000084 atoi
00000000 g       .bss	00000000 _tbss_end
00023588 g     F .text	00000218 get_decimal
00024ec0 g     F .text	000000e4 .hidden __gedf2
00025654 g     F .text	000007ec .hidden __subdf3
00020cf8  w    F .text	00000030 thread_entry
000204e4 g     F .text	0000018c uart_putchar
00025fbc g     F .text	0000045c .hidden __addsf3



Disassembly of section .text.init:

00020000 <_start>:
_start():
   20000:	00000093          	li	ra,0
   20004:	00000113          	li	sp,0
   20008:	00000193          	li	gp,0
   2000c:	00000213          	li	tp,0
   20010:	00000293          	li	t0,0
   20014:	00000313          	li	t1,0
   20018:	00000393          	li	t2,0
   2001c:	00000413          	li	s0,0
   20020:	00000493          	li	s1,0
   20024:	00000513          	li	a0,0
   20028:	00000593          	li	a1,0
   2002c:	00000613          	li	a2,0
   20030:	00000693          	li	a3,0
   20034:	00000713          	li	a4,0
   20038:	00000793          	li	a5,0
   2003c:	00000813          	li	a6,0
   20040:	00000893          	li	a7,0
   20044:	00000913          	li	s2,0
   20048:	00000993          	li	s3,0
   2004c:	00000a13          	li	s4,0
   20050:	00000a93          	li	s5,0
   20054:	00000b13          	li	s6,0
   20058:	00000b93          	li	s7,0
   2005c:	00000c13          	li	s8,0
   20060:	00000c93          	li	s9,0
   20064:	00000d13          	li	s10,0
   20068:	00000d93          	li	s11,0
   2006c:	00000e13          	li	t3,0
   20070:	00000e93          	li	t4,0
   20074:	00000f13          	li	t5,0
   20078:	00000f93          	li	t6,0
   2007c:	00100293          	li	t0,1
   20080:	01f29293          	slli	t0,t0,0x1f
   20084:	0002c463          	bltz	t0,2008c <_start+0x8c>
   20088:	0000006f          	j	20088 <_start+0x88>
   2008c:	00000297          	auipc	t0,0x0
   20090:	04028293          	addi	t0,t0,64 # 200cc <trap_entry>
   20094:	30529073          	csrw	mtvec,t0
   20098:	00008197          	auipc	gp,0x8
   2009c:	aac18193          	addi	gp,gp,-1364 # 27b44 <__global_pointer$>
   200a0:	89b18213          	addi	tp,gp,-1893 # 273df <_end+0x3f>
   200a4:	fc027213          	andi	tp,tp,-64
   200a8:	f1402573          	csrr	a0,mhartid
   200ac:	00100593          	li	a1,1
   200b0:	00b57063          	bgeu	a0,a1,200b0 <_start+0xb0>
   200b4:	00f51613          	slli	a2,a0,0xf
   200b8:	00c20233          	add	tp,tp,a2
   200bc:	00150113          	addi	sp,a0,1
   200c0:	00f11113          	slli	sp,sp,0xf
   200c4:	00410133          	add	sp,sp,tp
   200c8:	5390006f          	j	20e00 <_init>

000200cc <trap_entry>:
trap_entry():
   200cc:	ef010113          	addi	sp,sp,-272
   200d0:	00112223          	sw	ra,4(sp)
   200d4:	00212423          	sw	sp,8(sp)
   200d8:	00312623          	sw	gp,12(sp)
   200dc:	00412823          	sw	tp,16(sp)
   200e0:	00512a23          	sw	t0,20(sp)
   200e4:	00612c23          	sw	t1,24(sp)
   200e8:	00712e23          	sw	t2,28(sp)
   200ec:	02812023          	sw	s0,32(sp)
   200f0:	02912223          	sw	s1,36(sp)
   200f4:	02a12423          	sw	a0,40(sp)
   200f8:	02b12623          	sw	a1,44(sp)
   200fc:	02c12823          	sw	a2,48(sp)
   20100:	02d12a23          	sw	a3,52(sp)
   20104:	02e12c23          	sw	a4,56(sp)
   20108:	02f12e23          	sw	a5,60(sp)
   2010c:	05012023          	sw	a6,64(sp)
   20110:	05112223          	sw	a7,68(sp)
   20114:	05212423          	sw	s2,72(sp)
   20118:	05312623          	sw	s3,76(sp)
   2011c:	05412823          	sw	s4,80(sp)
   20120:	05512a23          	sw	s5,84(sp)
   20124:	05612c23          	sw	s6,88(sp)
   20128:	05712e23          	sw	s7,92(sp)
   2012c:	07812023          	sw	s8,96(sp)
   20130:	07912223          	sw	s9,100(sp)
   20134:	07a12423          	sw	s10,104(sp)
   20138:	07b12623          	sw	s11,108(sp)
   2013c:	07c12823          	sw	t3,112(sp)
   20140:	07d12a23          	sw	t4,116(sp)
   20144:	07e12c23          	sw	t5,120(sp)
   20148:	07f12e23          	sw	t6,124(sp)
   2014c:	34202573          	csrr	a0,mcause
   20150:	341025f3          	csrr	a1,mepc
   20154:	00010613          	mv	a2,sp
   20158:	269000ef          	jal	ra,20bc0 <handle_trap>
   2015c:	34151073          	csrw	mepc,a0
   20160:	000022b7          	lui	t0,0x2
   20164:	80028293          	addi	t0,t0,-2048 # 1800 <_tbss_end+0x1800>
   20168:	3002a073          	csrs	mstatus,t0
   2016c:	00412083          	lw	ra,4(sp)
   20170:	00812103          	lw	sp,8(sp)
   20174:	00c12183          	lw	gp,12(sp)
   20178:	01012203          	lw	tp,16(sp)
   2017c:	01412283          	lw	t0,20(sp)
   20180:	01812303          	lw	t1,24(sp)
   20184:	01c12383          	lw	t2,28(sp)
   20188:	02012403          	lw	s0,32(sp)
   2018c:	02412483          	lw	s1,36(sp)
   20190:	02812503          	lw	a0,40(sp)
   20194:	02c12583          	lw	a1,44(sp)
   20198:	03012603          	lw	a2,48(sp)
   2019c:	03412683          	lw	a3,52(sp)
   201a0:	03812703          	lw	a4,56(sp)
   201a4:	03c12783          	lw	a5,60(sp)
   201a8:	04012803          	lw	a6,64(sp)
   201ac:	04412883          	lw	a7,68(sp)
   201b0:	04812903          	lw	s2,72(sp)
   201b4:	04c12983          	lw	s3,76(sp)
   201b8:	05012a03          	lw	s4,80(sp)
   201bc:	05412a83          	lw	s5,84(sp)
   201c0:	05812b03          	lw	s6,88(sp)
   201c4:	05c12b83          	lw	s7,92(sp)
   201c8:	06012c03          	lw	s8,96(sp)
   201cc:	06412c83          	lw	s9,100(sp)
   201d0:	06812d03          	lw	s10,104(sp)
   201d4:	06c12d83          	lw	s11,108(sp)
   201d8:	07012e03          	lw	t3,112(sp)
   201dc:	07412e83          	lw	t4,116(sp)
   201e0:	07812f03          	lw	t5,120(sp)
   201e4:	07c12f83          	lw	t6,124(sp)
   201e8:	11010113          	addi	sp,sp,272
   201ec:	30200073          	mret

Disassembly of section .text:

000201f0 <uart_init>:
uart_init():
   201f0:	fe010113          	addi	sp,sp,-32
   201f4:	00812e23          	sw	s0,28(sp)
   201f8:	02010413          	addi	s0,sp,32
   201fc:	00050793          	mv	a5,a0
   20200:	fef407a3          	sb	a5,-17(s0)
   20204:	fef44783          	lbu	a5,-17(s0)
   20208:	00879793          	slli	a5,a5,0x8
   2020c:	00078713          	mv	a4,a5
   20210:	100007b7          	lui	a5,0x10000
   20214:	10078793          	addi	a5,a5,256 # 10000100 <__global_pointer$+0xffd85bc>
   20218:	00f707b3          	add	a5,a4,a5
   2021c:	00078713          	mv	a4,a5
   20220:	08300793          	li	a5,131
   20224:	00f72623          	sw	a5,12(a4)
   20228:	fef44783          	lbu	a5,-17(s0)
   2022c:	00879793          	slli	a5,a5,0x8
   20230:	00078713          	mv	a4,a5
   20234:	100007b7          	lui	a5,0x10000
   20238:	10078793          	addi	a5,a5,256 # 10000100 <__global_pointer$+0xffd85bc>
   2023c:	00f707b3          	add	a5,a4,a5
   20240:	00078713          	mv	a4,a5
   20244:	00e00793          	li	a5,14
   20248:	00f72023          	sw	a5,0(a4)
   2024c:	fef44783          	lbu	a5,-17(s0)
   20250:	00879793          	slli	a5,a5,0x8
   20254:	00078713          	mv	a4,a5
   20258:	100007b7          	lui	a5,0x10000
   2025c:	10078793          	addi	a5,a5,256 # 10000100 <__global_pointer$+0xffd85bc>
   20260:	00f707b3          	add	a5,a4,a5
   20264:	0007a223          	sw	zero,4(a5)
   20268:	fef44783          	lbu	a5,-17(s0)
   2026c:	00879793          	slli	a5,a5,0x8
   20270:	00078713          	mv	a4,a5
   20274:	100007b7          	lui	a5,0x10000
   20278:	10078793          	addi	a5,a5,256 # 10000100 <__global_pointer$+0xffd85bc>
   2027c:	00f707b3          	add	a5,a4,a5
   20280:	00078713          	mv	a4,a5
   20284:	00300793          	li	a5,3
   20288:	00f72623          	sw	a5,12(a4)
   2028c:	fef44783          	lbu	a5,-17(s0)
   20290:	00879793          	slli	a5,a5,0x8
   20294:	00078713          	mv	a4,a5
   20298:	100007b7          	lui	a5,0x10000
   2029c:	10078793          	addi	a5,a5,256 # 10000100 <__global_pointer$+0xffd85bc>
   202a0:	00f707b3          	add	a5,a4,a5
   202a4:	0007a223          	sw	zero,4(a5)
   202a8:	00000013          	nop
   202ac:	01c12403          	lw	s0,28(sp)
   202b0:	02010113          	addi	sp,sp,32
   202b4:	00008067          	ret

000202b8 <uart_set_baud_rate>:
uart_set_baud_rate():
   202b8:	fd010113          	addi	sp,sp,-48
   202bc:	02812623          	sw	s0,44(sp)
   202c0:	03010413          	addi	s0,sp,48
   202c4:	00050793          	mv	a5,a0
   202c8:	fcb42c23          	sw	a1,-40(s0)
   202cc:	fcc42a23          	sw	a2,-44(s0)
   202d0:	fcf40fa3          	sb	a5,-33(s0)
   202d4:	fd842783          	lw	a5,-40(s0)
   202d8:	00479793          	slli	a5,a5,0x4
   202dc:	fd442703          	lw	a4,-44(s0)
   202e0:	02f757b3          	divu	a5,a4,a5
   202e4:	fef42623          	sw	a5,-20(s0)
   202e8:	fdf44783          	lbu	a5,-33(s0)
   202ec:	00879793          	slli	a5,a5,0x8
   202f0:	00078713          	mv	a4,a5
   202f4:	100007b7          	lui	a5,0x10000
   202f8:	10078793          	addi	a5,a5,256 # 10000100 <__global_pointer$+0xffd85bc>
   202fc:	00f707b3          	add	a5,a4,a5
   20300:	00078713          	mv	a4,a5
   20304:	08300793          	li	a5,131
   20308:	00f72623          	sw	a5,12(a4)
   2030c:	fdf44783          	lbu	a5,-33(s0)
   20310:	00879793          	slli	a5,a5,0x8
   20314:	00078713          	mv	a4,a5
   20318:	100007b7          	lui	a5,0x10000
   2031c:	10078793          	addi	a5,a5,256 # 10000100 <__global_pointer$+0xffd85bc>
   20320:	00f707b3          	add	a5,a4,a5
   20324:	00078713          	mv	a4,a5
   20328:	fec42783          	lw	a5,-20(s0)
   2032c:	0ff7f793          	andi	a5,a5,255
   20330:	00f72023          	sw	a5,0(a4)
   20334:	fec42783          	lw	a5,-20(s0)
   20338:	0087d793          	srli	a5,a5,0x8
   2033c:	fdf44703          	lbu	a4,-33(s0)
   20340:	00871713          	slli	a4,a4,0x8
   20344:	00070693          	mv	a3,a4
   20348:	10000737          	lui	a4,0x10000
   2034c:	10070713          	addi	a4,a4,256 # 10000100 <__global_pointer$+0xffd85bc>
   20350:	00e68733          	add	a4,a3,a4
   20354:	0ff7f793          	andi	a5,a5,255
   20358:	00f72223          	sw	a5,4(a4)
   2035c:	fdf44783          	lbu	a5,-33(s0)
   20360:	00879793          	slli	a5,a5,0x8
   20364:	00078713          	mv	a4,a5
   20368:	100007b7          	lui	a5,0x10000
   2036c:	10078793          	addi	a5,a5,256 # 10000100 <__global_pointer$+0xffd85bc>
   20370:	00f707b3          	add	a5,a4,a5
   20374:	00078713          	mv	a4,a5
   20378:	00300793          	li	a5,3
   2037c:	00f72623          	sw	a5,12(a4)
   20380:	fdf44783          	lbu	a5,-33(s0)
   20384:	00879793          	slli	a5,a5,0x8
   20388:	00078713          	mv	a4,a5
   2038c:	100007b7          	lui	a5,0x10000
   20390:	10078793          	addi	a5,a5,256 # 10000100 <__global_pointer$+0xffd85bc>
   20394:	00f707b3          	add	a5,a4,a5
   20398:	0007a223          	sw	zero,4(a5)
   2039c:	00000013          	nop
   203a0:	02c12403          	lw	s0,44(sp)
   203a4:	03010113          	addi	sp,sp,48
   203a8:	00008067          	ret

000203ac <uart_configure>:
uart_configure():
   203ac:	fd010113          	addi	sp,sp,-48
   203b0:	02812623          	sw	s0,44(sp)
   203b4:	03010413          	addi	s0,sp,48
   203b8:	00050793          	mv	a5,a0
   203bc:	fcb42c23          	sw	a1,-40(s0)
   203c0:	fcc42a23          	sw	a2,-44(s0)
   203c4:	fcd42823          	sw	a3,-48(s0)
   203c8:	fcf40fa3          	sb	a5,-33(s0)
   203cc:	fd842783          	lw	a5,-40(s0)
   203d0:	00479793          	slli	a5,a5,0x4
   203d4:	fd042703          	lw	a4,-48(s0)
   203d8:	02f757b3          	divu	a5,a4,a5
   203dc:	fef42623          	sw	a5,-20(s0)
   203e0:	fdf44783          	lbu	a5,-33(s0)
   203e4:	00879793          	slli	a5,a5,0x8
   203e8:	00078713          	mv	a4,a5
   203ec:	100007b7          	lui	a5,0x10000
   203f0:	10078793          	addi	a5,a5,256 # 10000100 <__global_pointer$+0xffd85bc>
   203f4:	00f707b3          	add	a5,a4,a5
   203f8:	00078713          	mv	a4,a5
   203fc:	fd442783          	lw	a5,-44(s0)
   20400:	00f72623          	sw	a5,12(a4)
   20404:	fdf44783          	lbu	a5,-33(s0)
   20408:	00879793          	slli	a5,a5,0x8
   2040c:	00078713          	mv	a4,a5
   20410:	100007b7          	lui	a5,0x10000
   20414:	10078793          	addi	a5,a5,256 # 10000100 <__global_pointer$+0xffd85bc>
   20418:	00f707b3          	add	a5,a4,a5
   2041c:	00078713          	mv	a4,a5
   20420:	fec42783          	lw	a5,-20(s0)
   20424:	0ff7f793          	andi	a5,a5,255
   20428:	00f72023          	sw	a5,0(a4)
   2042c:	fec42783          	lw	a5,-20(s0)
   20430:	0087d793          	srli	a5,a5,0x8
   20434:	fdf44703          	lbu	a4,-33(s0)
   20438:	00871713          	slli	a4,a4,0x8
   2043c:	00070693          	mv	a3,a4
   20440:	10000737          	lui	a4,0x10000
   20444:	10070713          	addi	a4,a4,256 # 10000100 <__global_pointer$+0xffd85bc>
   20448:	00e68733          	add	a4,a3,a4
   2044c:	0ff7f793          	andi	a5,a5,255
   20450:	00f72223          	sw	a5,4(a4)
   20454:	fdf44783          	lbu	a5,-33(s0)
   20458:	00879793          	slli	a5,a5,0x8
   2045c:	00078713          	mv	a4,a5
   20460:	100007b7          	lui	a5,0x10000
   20464:	10078793          	addi	a5,a5,256 # 10000100 <__global_pointer$+0xffd85bc>
   20468:	00f707b3          	add	a5,a4,a5
   2046c:	00c7a783          	lw	a5,12(a5)
   20470:	fdf44703          	lbu	a4,-33(s0)
   20474:	00871713          	slli	a4,a4,0x8
   20478:	00070693          	mv	a3,a4
   2047c:	10000737          	lui	a4,0x10000
   20480:	10070713          	addi	a4,a4,256 # 10000100 <__global_pointer$+0xffd85bc>
   20484:	00e68733          	add	a4,a3,a4
   20488:	07f7f793          	andi	a5,a5,127
   2048c:	00f72623          	sw	a5,12(a4)
   20490:	fdf44783          	lbu	a5,-33(s0)
   20494:	00879793          	slli	a5,a5,0x8
   20498:	00078713          	mv	a4,a5
   2049c:	100007b7          	lui	a5,0x10000
   204a0:	10078793          	addi	a5,a5,256 # 10000100 <__global_pointer$+0xffd85bc>
   204a4:	00f707b3          	add	a5,a4,a5
   204a8:	00078713          	mv	a4,a5
   204ac:	00100793          	li	a5,1
   204b0:	00f72223          	sw	a5,4(a4)
   204b4:	fdf44783          	lbu	a5,-33(s0)
   204b8:	00879793          	slli	a5,a5,0x8
   204bc:	00078713          	mv	a4,a5
   204c0:	100007b7          	lui	a5,0x10000
   204c4:	10078793          	addi	a5,a5,256 # 10000100 <__global_pointer$+0xffd85bc>
   204c8:	00f707b3          	add	a5,a4,a5
   204cc:	0007a423          	sw	zero,8(a5)
   204d0:	0ff0000f          	fence
   204d4:	00000013          	nop
   204d8:	02c12403          	lw	s0,44(sp)
   204dc:	03010113          	addi	sp,sp,48
   204e0:	00008067          	ret

000204e4 <uart_putchar>:
uart_putchar():
   204e4:	fe010113          	addi	sp,sp,-32
   204e8:	00812e23          	sw	s0,28(sp)
   204ec:	02010413          	addi	s0,sp,32
   204f0:	00050793          	mv	a5,a0
   204f4:	00058713          	mv	a4,a1
   204f8:	fec42423          	sw	a2,-24(s0)
   204fc:	fef407a3          	sb	a5,-17(s0)
   20500:	00070793          	mv	a5,a4
   20504:	fef40723          	sb	a5,-18(s0)
   20508:	00000013          	nop
   2050c:	fef44783          	lbu	a5,-17(s0)
   20510:	00879793          	slli	a5,a5,0x8
   20514:	00078713          	mv	a4,a5
   20518:	100007b7          	lui	a5,0x10000
   2051c:	10078793          	addi	a5,a5,256 # 10000100 <__global_pointer$+0xffd85bc>
   20520:	00f707b3          	add	a5,a4,a5
   20524:	0147a783          	lw	a5,20(a5)
   20528:	0207f713          	andi	a4,a5,32
   2052c:	02000793          	li	a5,32
   20530:	02f70663          	beq	a4,a5,2055c <uart_putchar+0x78>
   20534:	fef44783          	lbu	a5,-17(s0)
   20538:	00879793          	slli	a5,a5,0x8
   2053c:	00078713          	mv	a4,a5
   20540:	100007b7          	lui	a5,0x10000
   20544:	10078793          	addi	a5,a5,256 # 10000100 <__global_pointer$+0xffd85bc>
   20548:	00f707b3          	add	a5,a4,a5
   2054c:	0147a783          	lw	a5,20(a5)
   20550:	0407f713          	andi	a4,a5,64
   20554:	04000793          	li	a5,64
   20558:	faf71ae3          	bne	a4,a5,2050c <uart_putchar+0x28>
   2055c:	fef44783          	lbu	a5,-17(s0)
   20560:	00879793          	slli	a5,a5,0x8
   20564:	00078713          	mv	a4,a5
   20568:	100007b7          	lui	a5,0x10000
   2056c:	10078793          	addi	a5,a5,256 # 10000100 <__global_pointer$+0xffd85bc>
   20570:	00f707b3          	add	a5,a4,a5
   20574:	00078713          	mv	a4,a5
   20578:	fee44783          	lbu	a5,-18(s0)
   2057c:	00f72023          	sw	a5,0(a4)
   20580:	0ff0000f          	fence
   20584:	00000013          	nop
   20588:	fef44783          	lbu	a5,-17(s0)
   2058c:	00879793          	slli	a5,a5,0x8
   20590:	00078713          	mv	a4,a5
   20594:	100007b7          	lui	a5,0x10000
   20598:	10078793          	addi	a5,a5,256 # 10000100 <__global_pointer$+0xffd85bc>
   2059c:	00f707b3          	add	a5,a4,a5
   205a0:	0147a783          	lw	a5,20(a5)
   205a4:	0207f713          	andi	a4,a5,32
   205a8:	02000793          	li	a5,32
   205ac:	fcf71ee3          	bne	a4,a5,20588 <uart_putchar+0xa4>
   205b0:	fef44783          	lbu	a5,-17(s0)
   205b4:	00879793          	slli	a5,a5,0x8
   205b8:	00078713          	mv	a4,a5
   205bc:	100007b7          	lui	a5,0x10000
   205c0:	10078793          	addi	a5,a5,256 # 10000100 <__global_pointer$+0xffd85bc>
   205c4:	00f707b3          	add	a5,a4,a5
   205c8:	0147a783          	lw	a5,20(a5)
   205cc:	0047f713          	andi	a4,a5,4
   205d0:	00400793          	li	a5,4
   205d4:	00f71a63          	bne	a4,a5,205e8 <uart_putchar+0x104>
   205d8:	fe842783          	lw	a5,-24(s0)
   205dc:	fff00713          	li	a4,-1
   205e0:	00e78023          	sb	a4,0(a5)
   205e4:	07c0006f          	j	20660 <uart_putchar+0x17c>
   205e8:	fef44783          	lbu	a5,-17(s0)
   205ec:	00879793          	slli	a5,a5,0x8
   205f0:	00078713          	mv	a4,a5
   205f4:	100007b7          	lui	a5,0x10000
   205f8:	10078793          	addi	a5,a5,256 # 10000100 <__global_pointer$+0xffd85bc>
   205fc:	00f707b3          	add	a5,a4,a5
   20600:	0147a783          	lw	a5,20(a5)
   20604:	0027f713          	andi	a4,a5,2
   20608:	00200793          	li	a5,2
   2060c:	00f71a63          	bne	a4,a5,20620 <uart_putchar+0x13c>
   20610:	fe842783          	lw	a5,-24(s0)
   20614:	ffe00713          	li	a4,-2
   20618:	00e78023          	sb	a4,0(a5)
   2061c:	0440006f          	j	20660 <uart_putchar+0x17c>
   20620:	fef44783          	lbu	a5,-17(s0)
   20624:	00879793          	slli	a5,a5,0x8
   20628:	00078713          	mv	a4,a5
   2062c:	100007b7          	lui	a5,0x10000
   20630:	10078793          	addi	a5,a5,256 # 10000100 <__global_pointer$+0xffd85bc>
   20634:	00f707b3          	add	a5,a4,a5
   20638:	0147a783          	lw	a5,20(a5)
   2063c:	0087f713          	andi	a4,a5,8
   20640:	00800793          	li	a5,8
   20644:	00f71a63          	bne	a4,a5,20658 <uart_putchar+0x174>
   20648:	fe842783          	lw	a5,-24(s0)
   2064c:	ffd00713          	li	a4,-3
   20650:	00e78023          	sb	a4,0(a5)
   20654:	00c0006f          	j	20660 <uart_putchar+0x17c>
   20658:	fe842783          	lw	a5,-24(s0)
   2065c:	00078023          	sb	zero,0(a5)
   20660:	00000013          	nop
   20664:	01c12403          	lw	s0,28(sp)
   20668:	02010113          	addi	sp,sp,32
   2066c:	00008067          	ret

00020670 <uart_getchar>:
uart_getchar():
   20670:	fd010113          	addi	sp,sp,-48
   20674:	02812623          	sw	s0,44(sp)
   20678:	03010413          	addi	s0,sp,48
   2067c:	00050793          	mv	a5,a0
   20680:	fcb42c23          	sw	a1,-40(s0)
   20684:	fcf40fa3          	sb	a5,-33(s0)
   20688:	00000013          	nop
   2068c:	fdf44783          	lbu	a5,-33(s0)
   20690:	00879793          	slli	a5,a5,0x8
   20694:	00078713          	mv	a4,a5
   20698:	100007b7          	lui	a5,0x10000
   2069c:	10078793          	addi	a5,a5,256 # 10000100 <__global_pointer$+0xffd85bc>
   206a0:	00f707b3          	add	a5,a4,a5
   206a4:	0147a783          	lw	a5,20(a5)
   206a8:	0017f713          	andi	a4,a5,1
   206ac:	00100793          	li	a5,1
   206b0:	fcf71ee3          	bne	a4,a5,2068c <uart_getchar+0x1c>
   206b4:	fdf44783          	lbu	a5,-33(s0)
   206b8:	00879793          	slli	a5,a5,0x8
   206bc:	00078713          	mv	a4,a5
   206c0:	100007b7          	lui	a5,0x10000
   206c4:	10078793          	addi	a5,a5,256 # 10000100 <__global_pointer$+0xffd85bc>
   206c8:	00f707b3          	add	a5,a4,a5
   206cc:	0007a783          	lw	a5,0(a5)
   206d0:	fef407a3          	sb	a5,-17(s0)
   206d4:	fdf44783          	lbu	a5,-33(s0)
   206d8:	00879793          	slli	a5,a5,0x8
   206dc:	00078713          	mv	a4,a5
   206e0:	100007b7          	lui	a5,0x10000
   206e4:	10078793          	addi	a5,a5,256 # 10000100 <__global_pointer$+0xffd85bc>
   206e8:	00f707b3          	add	a5,a4,a5
   206ec:	0147a783          	lw	a5,20(a5)
   206f0:	0047f713          	andi	a4,a5,4
   206f4:	00400793          	li	a5,4
   206f8:	00f71a63          	bne	a4,a5,2070c <uart_getchar+0x9c>
   206fc:	fd842783          	lw	a5,-40(s0)
   20700:	fff00713          	li	a4,-1
   20704:	00e78023          	sb	a4,0(a5)
   20708:	07c0006f          	j	20784 <uart_getchar+0x114>
   2070c:	fdf44783          	lbu	a5,-33(s0)
   20710:	00879793          	slli	a5,a5,0x8
   20714:	00078713          	mv	a4,a5
   20718:	100007b7          	lui	a5,0x10000
   2071c:	10078793          	addi	a5,a5,256 # 10000100 <__global_pointer$+0xffd85bc>
   20720:	00f707b3          	add	a5,a4,a5
   20724:	0147a783          	lw	a5,20(a5)
   20728:	0027f713          	andi	a4,a5,2
   2072c:	00200793          	li	a5,2
   20730:	00f71a63          	bne	a4,a5,20744 <uart_getchar+0xd4>
   20734:	fd842783          	lw	a5,-40(s0)
   20738:	ffe00713          	li	a4,-2
   2073c:	00e78023          	sb	a4,0(a5)
   20740:	0440006f          	j	20784 <uart_getchar+0x114>
   20744:	fdf44783          	lbu	a5,-33(s0)
   20748:	00879793          	slli	a5,a5,0x8
   2074c:	00078713          	mv	a4,a5
   20750:	100007b7          	lui	a5,0x10000
   20754:	10078793          	addi	a5,a5,256 # 10000100 <__global_pointer$+0xffd85bc>
   20758:	00f707b3          	add	a5,a4,a5
   2075c:	0147a783          	lw	a5,20(a5)
   20760:	0087f713          	andi	a4,a5,8
   20764:	00800793          	li	a5,8
   20768:	00f71a63          	bne	a4,a5,2077c <uart_getchar+0x10c>
   2076c:	fd842783          	lw	a5,-40(s0)
   20770:	ffd00713          	li	a4,-3
   20774:	00e78023          	sb	a4,0(a5)
   20778:	00c0006f          	j	20784 <uart_getchar+0x114>
   2077c:	fd842783          	lw	a5,-40(s0)
   20780:	00078023          	sb	zero,0(a5)
   20784:	fef44783          	lbu	a5,-17(s0)
   20788:	00078513          	mv	a0,a5
   2078c:	02c12403          	lw	s0,44(sp)
   20790:	03010113          	addi	sp,sp,48
   20794:	00008067          	ret

00020798 <uart_getchar_async>:
uart_getchar_async():
   20798:	fd010113          	addi	sp,sp,-48
   2079c:	02112623          	sw	ra,44(sp)
   207a0:	02812423          	sw	s0,40(sp)
   207a4:	03010413          	addi	s0,sp,48
   207a8:	00050793          	mv	a5,a0
   207ac:	fcb42c23          	sw	a1,-40(s0)
   207b0:	fcf40fa3          	sb	a5,-33(s0)
   207b4:	fe042623          	sw	zero,-20(s0)
   207b8:	fe042423          	sw	zero,-24(s0)
   207bc:	455000ef          	jal	ra,21410 <get_time>
   207c0:	fea42623          	sw	a0,-20(s0)
   207c4:	fec42503          	lw	a0,-20(s0)
   207c8:	774050ef          	jal	ra,25f3c <__floatunsidf>
   207cc:	00050713          	mv	a4,a0
   207d0:	00058793          	mv	a5,a1
   207d4:	00006697          	auipc	a3,0x6
   207d8:	71c68693          	addi	a3,a3,1820 # 26ef0 <main+0x344>
   207dc:	0006a603          	lw	a2,0(a3)
   207e0:	0046a683          	lw	a3,4(a3)
   207e4:	00070513          	mv	a0,a4
   207e8:	00078593          	mv	a1,a5
   207ec:	78c030ef          	jal	ra,23f78 <__adddf3>
   207f0:	00050713          	mv	a4,a0
   207f4:	00058793          	mv	a5,a1
   207f8:	00070513          	mv	a0,a4
   207fc:	00078593          	mv	a1,a5
   20800:	6c0050ef          	jal	ra,25ec0 <__fixunsdfsi>
   20804:	00050793          	mv	a5,a0
   20808:	fef42423          	sw	a5,-24(s0)
   2080c:	0180006f          	j	20824 <uart_getchar_async+0x8c>
   20810:	401000ef          	jal	ra,21410 <get_time>
   20814:	fea42623          	sw	a0,-20(s0)
   20818:	fec42703          	lw	a4,-20(s0)
   2081c:	fe842783          	lw	a5,-24(s0)
   20820:	02e7e863          	bltu	a5,a4,20850 <uart_getchar_async+0xb8>
   20824:	fdf44783          	lbu	a5,-33(s0)
   20828:	00879793          	slli	a5,a5,0x8
   2082c:	00078713          	mv	a4,a5
   20830:	100007b7          	lui	a5,0x10000
   20834:	10078793          	addi	a5,a5,256 # 10000100 <__global_pointer$+0xffd85bc>
   20838:	00f707b3          	add	a5,a4,a5
   2083c:	0147a783          	lw	a5,20(a5)
   20840:	0017f713          	andi	a4,a5,1
   20844:	00100793          	li	a5,1
   20848:	fcf714e3          	bne	a4,a5,20810 <uart_getchar_async+0x78>
   2084c:	0080006f          	j	20854 <uart_getchar_async+0xbc>
   20850:	00000013          	nop
   20854:	fdf44783          	lbu	a5,-33(s0)
   20858:	00879793          	slli	a5,a5,0x8
   2085c:	00078713          	mv	a4,a5
   20860:	100007b7          	lui	a5,0x10000
   20864:	10078793          	addi	a5,a5,256 # 10000100 <__global_pointer$+0xffd85bc>
   20868:	00f707b3          	add	a5,a4,a5
   2086c:	0007a783          	lw	a5,0(a5)
   20870:	fef403a3          	sb	a5,-25(s0)
   20874:	fdf44783          	lbu	a5,-33(s0)
   20878:	00879793          	slli	a5,a5,0x8
   2087c:	00078713          	mv	a4,a5
   20880:	100007b7          	lui	a5,0x10000
   20884:	10078793          	addi	a5,a5,256 # 10000100 <__global_pointer$+0xffd85bc>
   20888:	00f707b3          	add	a5,a4,a5
   2088c:	0147a783          	lw	a5,20(a5)
   20890:	0047f713          	andi	a4,a5,4
   20894:	00400793          	li	a5,4
   20898:	00f71a63          	bne	a4,a5,208ac <uart_getchar_async+0x114>
   2089c:	fd842783          	lw	a5,-40(s0)
   208a0:	fff00713          	li	a4,-1
   208a4:	00e78023          	sb	a4,0(a5)
   208a8:	07c0006f          	j	20924 <uart_getchar_async+0x18c>
   208ac:	fdf44783          	lbu	a5,-33(s0)
   208b0:	00879793          	slli	a5,a5,0x8
   208b4:	00078713          	mv	a4,a5
   208b8:	100007b7          	lui	a5,0x10000
   208bc:	10078793          	addi	a5,a5,256 # 10000100 <__global_pointer$+0xffd85bc>
   208c0:	00f707b3          	add	a5,a4,a5
   208c4:	0147a783          	lw	a5,20(a5)
   208c8:	0027f713          	andi	a4,a5,2
   208cc:	00200793          	li	a5,2
   208d0:	00f71a63          	bne	a4,a5,208e4 <uart_getchar_async+0x14c>
   208d4:	fd842783          	lw	a5,-40(s0)
   208d8:	ffe00713          	li	a4,-2
   208dc:	00e78023          	sb	a4,0(a5)
   208e0:	0440006f          	j	20924 <uart_getchar_async+0x18c>
   208e4:	fdf44783          	lbu	a5,-33(s0)
   208e8:	00879793          	slli	a5,a5,0x8
   208ec:	00078713          	mv	a4,a5
   208f0:	100007b7          	lui	a5,0x10000
   208f4:	10078793          	addi	a5,a5,256 # 10000100 <__global_pointer$+0xffd85bc>
   208f8:	00f707b3          	add	a5,a4,a5
   208fc:	0147a783          	lw	a5,20(a5)
   20900:	0087f713          	andi	a4,a5,8
   20904:	00800793          	li	a5,8
   20908:	00f71a63          	bne	a4,a5,2091c <uart_getchar_async+0x184>
   2090c:	fd842783          	lw	a5,-40(s0)
   20910:	ffd00713          	li	a4,-3
   20914:	00e78023          	sb	a4,0(a5)
   20918:	00c0006f          	j	20924 <uart_getchar_async+0x18c>
   2091c:	fd842783          	lw	a5,-40(s0)
   20920:	00078023          	sb	zero,0(a5)
   20924:	fe744783          	lbu	a5,-25(s0)
   20928:	00078513          	mv	a0,a5
   2092c:	02c12083          	lw	ra,44(sp)
   20930:	02812403          	lw	s0,40(sp)
   20934:	03010113          	addi	sp,sp,48
   20938:	00008067          	ret

0002093c <uart_intr_enable>:
uart_intr_enable():
   2093c:	fe010113          	addi	sp,sp,-32
   20940:	00812e23          	sw	s0,28(sp)
   20944:	02010413          	addi	s0,sp,32
   20948:	00050793          	mv	a5,a0
   2094c:	00058693          	mv	a3,a1
   20950:	00060713          	mv	a4,a2
   20954:	fef407a3          	sb	a5,-17(s0)
   20958:	00068793          	mv	a5,a3
   2095c:	fef40723          	sb	a5,-18(s0)
   20960:	00070793          	mv	a5,a4
   20964:	fef406a3          	sb	a5,-19(s0)
   20968:	fee44783          	lbu	a5,-18(s0)
   2096c:	00179713          	slli	a4,a5,0x1
   20970:	fed44783          	lbu	a5,-19(s0)
   20974:	00f76733          	or	a4,a4,a5
   20978:	fef44783          	lbu	a5,-17(s0)
   2097c:	00879793          	slli	a5,a5,0x8
   20980:	00078693          	mv	a3,a5
   20984:	100007b7          	lui	a5,0x10000
   20988:	10078793          	addi	a5,a5,256 # 10000100 <__global_pointer$+0xffd85bc>
   2098c:	00f687b3          	add	a5,a3,a5
   20990:	00e7a223          	sw	a4,4(a5)
   20994:	0ff0000f          	fence
   20998:	00000013          	nop
   2099c:	01c12403          	lw	s0,28(sp)
   209a0:	02010113          	addi	sp,sp,32
   209a4:	00008067          	ret

000209a8 <digitalWrite>:
digitalWrite():
   209a8:	fe010113          	addi	sp,sp,-32
   209ac:	00812e23          	sw	s0,28(sp)
   209b0:	02010413          	addi	s0,sp,32
   209b4:	00050793          	mv	a5,a0
   209b8:	00058693          	mv	a3,a1
   209bc:	00060713          	mv	a4,a2
   209c0:	fef41723          	sh	a5,-18(s0)
   209c4:	00068793          	mv	a5,a3
   209c8:	fef41623          	sh	a5,-20(s0)
   209cc:	00070793          	mv	a5,a4
   209d0:	fef41523          	sh	a5,-22(s0)
   209d4:	100807b7          	lui	a5,0x10080
   209d8:	fee45703          	lhu	a4,-18(s0)
   209dc:	00e7a023          	sw	a4,0(a5) # 10080000 <__global_pointer$+0x100584bc>
   209e0:	100807b7          	lui	a5,0x10080
   209e4:	fec45703          	lhu	a4,-20(s0)
   209e8:	00e7a223          	sw	a4,4(a5) # 10080004 <__global_pointer$+0x100584c0>
   209ec:	100807b7          	lui	a5,0x10080
   209f0:	fea45703          	lhu	a4,-22(s0)
   209f4:	00e7a423          	sw	a4,8(a5) # 10080008 <__global_pointer$+0x100584c4>
   209f8:	00000013          	nop
   209fc:	01c12403          	lw	s0,28(sp)
   20a00:	02010113          	addi	sp,sp,32
   20a04:	00008067          	ret

00020a08 <digitalSet>:
digitalSet():
   20a08:	fe010113          	addi	sp,sp,-32
   20a0c:	00112e23          	sw	ra,28(sp)
   20a10:	00812c23          	sw	s0,24(sp)
   20a14:	02010413          	addi	s0,sp,32
   20a18:	00050793          	mv	a5,a0
   20a1c:	fef41723          	sh	a5,-18(s0)
   20a20:	fee45703          	lhu	a4,-18(s0)
   20a24:	fee45783          	lhu	a5,-18(s0)
   20a28:	00000613          	li	a2,0
   20a2c:	00070593          	mv	a1,a4
   20a30:	00078513          	mv	a0,a5
   20a34:	f75ff0ef          	jal	ra,209a8 <digitalWrite>
   20a38:	00000013          	nop
   20a3c:	01c12083          	lw	ra,28(sp)
   20a40:	01812403          	lw	s0,24(sp)
   20a44:	02010113          	addi	sp,sp,32
   20a48:	00008067          	ret

00020a4c <digitalClear>:
digitalClear():
   20a4c:	fe010113          	addi	sp,sp,-32
   20a50:	00112e23          	sw	ra,28(sp)
   20a54:	00812c23          	sw	s0,24(sp)
   20a58:	02010413          	addi	s0,sp,32
   20a5c:	00050793          	mv	a5,a0
   20a60:	fef41723          	sh	a5,-18(s0)
   20a64:	fee45703          	lhu	a4,-18(s0)
   20a68:	fee45783          	lhu	a5,-18(s0)
   20a6c:	00070613          	mv	a2,a4
   20a70:	00000593          	li	a1,0
   20a74:	00078513          	mv	a0,a5
   20a78:	f31ff0ef          	jal	ra,209a8 <digitalWrite>
   20a7c:	00000013          	nop
   20a80:	01c12083          	lw	ra,28(sp)
   20a84:	01812403          	lw	s0,24(sp)
   20a88:	02010113          	addi	sp,sp,32
   20a8c:	00008067          	ret

00020a90 <digitalRead>:
digitalRead():
   20a90:	ff010113          	addi	sp,sp,-16
   20a94:	00812623          	sw	s0,12(sp)
   20a98:	01010413          	addi	s0,sp,16
   20a9c:	100807b7          	lui	a5,0x10080
   20aa0:	00c7a783          	lw	a5,12(a5) # 1008000c <__global_pointer$+0x100584c8>
   20aa4:	01079793          	slli	a5,a5,0x10
   20aa8:	0107d793          	srli	a5,a5,0x10
   20aac:	00078513          	mv	a0,a5
   20ab0:	00c12403          	lw	s0,12(sp)
   20ab4:	01010113          	addi	sp,sp,16
   20ab8:	00008067          	ret

00020abc <pinSet>:
pinSet():
   20abc:	fd010113          	addi	sp,sp,-48
   20ac0:	02112623          	sw	ra,44(sp)
   20ac4:	02812423          	sw	s0,40(sp)
   20ac8:	03010413          	addi	s0,sp,48
   20acc:	00050793          	mv	a5,a0
   20ad0:	fcf41f23          	sh	a5,-34(s0)
   20ad4:	fde45783          	lhu	a5,-34(s0)
   20ad8:	fff78793          	addi	a5,a5,-1
   20adc:	00100713          	li	a4,1
   20ae0:	00f717b3          	sll	a5,a4,a5
   20ae4:	fef41723          	sh	a5,-18(s0)
   20ae8:	fee45783          	lhu	a5,-18(s0)
   20aec:	00078513          	mv	a0,a5
   20af0:	f19ff0ef          	jal	ra,20a08 <digitalSet>
   20af4:	00000013          	nop
   20af8:	02c12083          	lw	ra,44(sp)
   20afc:	02812403          	lw	s0,40(sp)
   20b00:	03010113          	addi	sp,sp,48
   20b04:	00008067          	ret

00020b08 <pinClear>:
pinClear():
   20b08:	fd010113          	addi	sp,sp,-48
   20b0c:	02112623          	sw	ra,44(sp)
   20b10:	02812423          	sw	s0,40(sp)
   20b14:	03010413          	addi	s0,sp,48
   20b18:	00050793          	mv	a5,a0
   20b1c:	fcf41f23          	sh	a5,-34(s0)
   20b20:	fde45783          	lhu	a5,-34(s0)
   20b24:	fff78793          	addi	a5,a5,-1
   20b28:	00100713          	li	a4,1
   20b2c:	00f717b3          	sll	a5,a4,a5
   20b30:	fef41723          	sh	a5,-18(s0)
   20b34:	fee45783          	lhu	a5,-18(s0)
   20b38:	00078513          	mv	a0,a5
   20b3c:	f11ff0ef          	jal	ra,20a4c <digitalClear>
   20b40:	00000013          	nop
   20b44:	02c12083          	lw	ra,44(sp)
   20b48:	02812403          	lw	s0,40(sp)
   20b4c:	03010113          	addi	sp,sp,48
   20b50:	00008067          	ret

00020b54 <pinRead>:
pinRead():
   20b54:	fd010113          	addi	sp,sp,-48
   20b58:	02112623          	sw	ra,44(sp)
   20b5c:	02812423          	sw	s0,40(sp)
   20b60:	03010413          	addi	s0,sp,48
   20b64:	00050793          	mv	a5,a0
   20b68:	fcf41f23          	sh	a5,-34(s0)
   20b6c:	fde45783          	lhu	a5,-34(s0)
   20b70:	fff78793          	addi	a5,a5,-1
   20b74:	00100713          	li	a4,1
   20b78:	00f717b3          	sll	a5,a4,a5
   20b7c:	fef41723          	sh	a5,-18(s0)
   20b80:	f11ff0ef          	jal	ra,20a90 <digitalRead>
   20b84:	00050793          	mv	a5,a0
   20b88:	00078713          	mv	a4,a5
   20b8c:	fee45783          	lhu	a5,-18(s0)
   20b90:	00f777b3          	and	a5,a4,a5
   20b94:	01079793          	slli	a5,a5,0x10
   20b98:	0107d793          	srli	a5,a5,0x10
   20b9c:	00f037b3          	snez	a5,a5
   20ba0:	0ff7f793          	andi	a5,a5,255
   20ba4:	01079793          	slli	a5,a5,0x10
   20ba8:	0107d793          	srli	a5,a5,0x10
   20bac:	00078513          	mv	a0,a5
   20bb0:	02c12083          	lw	ra,44(sp)
   20bb4:	02812403          	lw	s0,40(sp)
   20bb8:	03010113          	addi	sp,sp,48
   20bbc:	00008067          	ret

00020bc0 <handle_trap>:
handle_trap():
   20bc0:	fd010113          	addi	sp,sp,-48
   20bc4:	02112623          	sw	ra,44(sp)
   20bc8:	02812423          	sw	s0,40(sp)
   20bcc:	03010413          	addi	s0,sp,48
   20bd0:	fca42e23          	sw	a0,-36(s0)
   20bd4:	fcb42c23          	sw	a1,-40(s0)
   20bd8:	fcc42a23          	sw	a2,-44(s0)
   20bdc:	00006517          	auipc	a0,0x6
   20be0:	31c50513          	addi	a0,a0,796 # 26ef8 <main+0x34c>
   20be4:	0d8020ef          	jal	ra,22cbc <printf>
   20be8:	fd842583          	lw	a1,-40(s0)
   20bec:	00006517          	auipc	a0,0x6
   20bf0:	31850513          	addi	a0,a0,792 # 26f04 <main+0x358>
   20bf4:	0c8020ef          	jal	ra,22cbc <printf>
   20bf8:	fdc42583          	lw	a1,-36(s0)
   20bfc:	00006517          	auipc	a0,0x6
   20c00:	31450513          	addi	a0,a0,788 # 26f10 <main+0x364>
   20c04:	0b8020ef          	jal	ra,22cbc <printf>
   20c08:	343027f3          	csrr	a5,mtval
   20c0c:	fef42423          	sw	a5,-24(s0)
   20c10:	fe842783          	lw	a5,-24(s0)
   20c14:	00078593          	mv	a1,a5
   20c18:	00006517          	auipc	a0,0x6
   20c1c:	30850513          	addi	a0,a0,776 # 26f20 <main+0x374>
   20c20:	09c020ef          	jal	ra,22cbc <printf>
   20c24:	fe042623          	sw	zero,-20(s0)
   20c28:	0380006f          	j	20c60 <handle_trap+0xa0>
   20c2c:	fec42783          	lw	a5,-20(s0)
   20c30:	00279793          	slli	a5,a5,0x2
   20c34:	fd442703          	lw	a4,-44(s0)
   20c38:	00f707b3          	add	a5,a4,a5
   20c3c:	0007a783          	lw	a5,0(a5)
   20c40:	00078613          	mv	a2,a5
   20c44:	fec42583          	lw	a1,-20(s0)
   20c48:	00006517          	auipc	a0,0x6
   20c4c:	2ec50513          	addi	a0,a0,748 # 26f34 <main+0x388>
   20c50:	06c020ef          	jal	ra,22cbc <printf>
   20c54:	fec42783          	lw	a5,-20(s0)
   20c58:	00178793          	addi	a5,a5,1
   20c5c:	fef42623          	sw	a5,-20(s0)
   20c60:	fec42703          	lw	a4,-20(s0)
   20c64:	01f00793          	li	a5,31
   20c68:	fce7d2e3          	bge	a5,a4,20c2c <handle_trap+0x6c>
   20c6c:	0000006f          	j	20c6c <handle_trap+0xac>

00020c70 <exit>:
exit():
   20c70:	fe010113          	addi	sp,sp,-32
   20c74:	00112e23          	sw	ra,28(sp)
   20c78:	00812c23          	sw	s0,24(sp)
   20c7c:	02010413          	addi	s0,sp,32
   20c80:	fea42623          	sw	a0,-20(s0)
   20c84:	00006517          	auipc	a0,0x6
   20c88:	2c050513          	addi	a0,a0,704 # 26f44 <main+0x398>
   20c8c:	030020ef          	jal	ra,22cbc <printf>
   20c90:	0000006f          	j	20c90 <exit+0x20>

00020c94 <abort>:
abort():
   20c94:	ff010113          	addi	sp,sp,-16
   20c98:	00112623          	sw	ra,12(sp)
   20c9c:	00812423          	sw	s0,8(sp)
   20ca0:	01010413          	addi	s0,sp,16
   20ca4:	00006517          	auipc	a0,0x6
   20ca8:	2ac50513          	addi	a0,a0,684 # 26f50 <main+0x3a4>
   20cac:	010020ef          	jal	ra,22cbc <printf>
   20cb0:	00000013          	nop
   20cb4:	00c12083          	lw	ra,12(sp)
   20cb8:	00812403          	lw	s0,8(sp)
   20cbc:	01010113          	addi	sp,sp,16
   20cc0:	00008067          	ret

00020cc4 <printstr>:
printstr():
   20cc4:	fe010113          	addi	sp,sp,-32
   20cc8:	00112e23          	sw	ra,28(sp)
   20ccc:	00812c23          	sw	s0,24(sp)
   20cd0:	02010413          	addi	s0,sp,32
   20cd4:	fea42623          	sw	a0,-20(s0)
   20cd8:	00006517          	auipc	a0,0x6
   20cdc:	26c50513          	addi	a0,a0,620 # 26f44 <main+0x398>
   20ce0:	7dd010ef          	jal	ra,22cbc <printf>
   20ce4:	00000013          	nop
   20ce8:	01c12083          	lw	ra,28(sp)
   20cec:	01812403          	lw	s0,24(sp)
   20cf0:	02010113          	addi	sp,sp,32
   20cf4:	00008067          	ret

00020cf8 <thread_entry>:
thread_entry():
   20cf8:	fe010113          	addi	sp,sp,-32
   20cfc:	00812e23          	sw	s0,28(sp)
   20d00:	02010413          	addi	s0,sp,32
   20d04:	fea42623          	sw	a0,-20(s0)
   20d08:	feb42423          	sw	a1,-24(s0)
   20d0c:	fec42783          	lw	a5,-20(s0)
   20d10:	fe079ee3          	bnez	a5,20d0c <thread_entry+0x14>
   20d14:	00000013          	nop
   20d18:	00000013          	nop
   20d1c:	01c12403          	lw	s0,28(sp)
   20d20:	02010113          	addi	sp,sp,32
   20d24:	00008067          	ret
   20d28:	fe010113          	addi	sp,sp,-32
   20d2c:	00112e23          	sw	ra,28(sp)
   20d30:	00812c23          	sw	s0,24(sp)
   20d34:	02010413          	addi	s0,sp,32
   20d38:	fea42623          	sw	a0,-20(s0)
   20d3c:	feb42423          	sw	a1,-24(s0)
   20d40:	00006517          	auipc	a0,0x6
   20d44:	21c50513          	addi	a0,a0,540 # 26f5c <main+0x3b0>
   20d48:	f7dff0ef          	jal	ra,20cc4 <printstr>
   20d4c:	fff00793          	li	a5,-1
   20d50:	00078513          	mv	a0,a5
   20d54:	01c12083          	lw	ra,28(sp)
   20d58:	01812403          	lw	s0,24(sp)
   20d5c:	02010113          	addi	sp,sp,32
   20d60:	00008067          	ret

00020d64 <init_tls>:
init_tls():
   20d64:	fe010113          	addi	sp,sp,-32
   20d68:	00112e23          	sw	ra,28(sp)
   20d6c:	00812c23          	sw	s0,24(sp)
   20d70:	02010413          	addi	s0,sp,32
   20d74:	00006797          	auipc	a5,0x6
   20d78:	5bc7a783          	lw	a5,1468(a5) # 27330 <_GLOBAL_OFFSET_TABLE_+0x4>
   20d7c:	004787b3          	add	a5,a5,tp
   20d80:	00078713          	mv	a4,a5
   20d84:	00006797          	auipc	a5,0x6
   20d88:	5b07a783          	lw	a5,1456(a5) # 27334 <_GLOBAL_OFFSET_TABLE_+0x8>
   20d8c:	004787b3          	add	a5,a5,tp
   20d90:	40f707b3          	sub	a5,a4,a5
   20d94:	fef42623          	sw	a5,-20(s0)
   20d98:	00020793          	mv	a5,tp
   20d9c:	fec42603          	lw	a2,-20(s0)
   20da0:	85c18593          	addi	a1,gp,-1956 # 273a0 <_end>
   20da4:	00078513          	mv	a0,a5
   20da8:	529020ef          	jal	ra,23ad0 <memcpy>
   20dac:	00006797          	auipc	a5,0x6
   20db0:	58c7a783          	lw	a5,1420(a5) # 27338 <_GLOBAL_OFFSET_TABLE_+0xc>
   20db4:	004787b3          	add	a5,a5,tp
   20db8:	00078713          	mv	a4,a5
   20dbc:	00006797          	auipc	a5,0x6
   20dc0:	5747a783          	lw	a5,1396(a5) # 27330 <_GLOBAL_OFFSET_TABLE_+0x4>
   20dc4:	004787b3          	add	a5,a5,tp
   20dc8:	40f707b3          	sub	a5,a4,a5
   20dcc:	fef42423          	sw	a5,-24(s0)
   20dd0:	00020713          	mv	a4,tp
   20dd4:	fec42783          	lw	a5,-20(s0)
   20dd8:	00f707b3          	add	a5,a4,a5
   20ddc:	fe842603          	lw	a2,-24(s0)
   20de0:	00000593          	li	a1,0
   20de4:	00078513          	mv	a0,a5
   20de8:	605020ef          	jal	ra,23bec <memset>
   20dec:	00000013          	nop
   20df0:	01c12083          	lw	ra,28(sp)
   20df4:	01812403          	lw	s0,24(sp)
   20df8:	02010113          	addi	sp,sp,32
   20dfc:	00008067          	ret

00020e00 <_init>:
_init():
   20e00:	fd010113          	addi	sp,sp,-48
   20e04:	02112623          	sw	ra,44(sp)
   20e08:	02812423          	sw	s0,40(sp)
   20e0c:	03010413          	addi	s0,sp,48
   20e10:	fca42e23          	sw	a0,-36(s0)
   20e14:	fcb42c23          	sw	a1,-40(s0)
   20e18:	f4dff0ef          	jal	ra,20d64 <init_tls>
   20e1c:	fd842583          	lw	a1,-40(s0)
   20e20:	fdc42503          	lw	a0,-36(s0)
   20e24:	ed5ff0ef          	jal	ra,20cf8 <thread_entry>
   20e28:	00000593          	li	a1,0
   20e2c:	00000513          	li	a0,0
   20e30:	57d050ef          	jal	ra,26bac <main>
   20e34:	fea42623          	sw	a0,-20(s0)
   20e38:	00000513          	li	a0,0
   20e3c:	e35ff0ef          	jal	ra,20c70 <exit>

00020e40 <putchar>:
putchar():
   20e40:	fe010113          	addi	sp,sp,-32
   20e44:	00112e23          	sw	ra,28(sp)
   20e48:	00812c23          	sw	s0,24(sp)
   20e4c:	02010413          	addi	s0,sp,32
   20e50:	fea42623          	sw	a0,-20(s0)
   20e54:	fec42783          	lw	a5,-20(s0)
   20e58:	0ff7f793          	andi	a5,a5,255
   20e5c:	00078513          	mv	a0,a5
   20e60:	66c020ef          	jal	ra,234cc <tx_uart>
   20e64:	fec42703          	lw	a4,-20(s0)
   20e68:	00a00793          	li	a5,10
   20e6c:	00f71663          	bne	a4,a5,20e78 <putchar+0x38>
   20e70:	00d00513          	li	a0,13
   20e74:	658020ef          	jal	ra,234cc <tx_uart>
   20e78:	00000793          	li	a5,0
   20e7c:	00078513          	mv	a0,a5
   20e80:	01c12083          	lw	ra,28(sp)
   20e84:	01812403          	lw	s0,24(sp)
   20e88:	02010113          	addi	sp,sp,32
   20e8c:	00008067          	ret

00020e90 <printhex>:
printhex():
   20e90:	fc010113          	addi	sp,sp,-64
   20e94:	02112e23          	sw	ra,60(sp)
   20e98:	02812c23          	sw	s0,56(sp)
   20e9c:	04010413          	addi	s0,sp,64
   20ea0:	fca42623          	sw	a0,-52(s0)
   20ea4:	fe042623          	sw	zero,-20(s0)
   20ea8:	0680006f          	j	20f10 <printhex+0x80>
   20eac:	fcc42783          	lw	a5,-52(s0)
   20eb0:	0ff7f793          	andi	a5,a5,255
   20eb4:	00f7f793          	andi	a5,a5,15
   20eb8:	0ff7f713          	andi	a4,a5,255
   20ebc:	fcc42783          	lw	a5,-52(s0)
   20ec0:	00f7f693          	andi	a3,a5,15
   20ec4:	00900793          	li	a5,9
   20ec8:	00d7e663          	bltu	a5,a3,20ed4 <printhex+0x44>
   20ecc:	03000793          	li	a5,48
   20ed0:	0080006f          	j	20ed8 <printhex+0x48>
   20ed4:	05700793          	li	a5,87
   20ed8:	00f00613          	li	a2,15
   20edc:	fec42683          	lw	a3,-20(s0)
   20ee0:	40d606b3          	sub	a3,a2,a3
   20ee4:	00e787b3          	add	a5,a5,a4
   20ee8:	0ff7f713          	andi	a4,a5,255
   20eec:	ff040793          	addi	a5,s0,-16
   20ef0:	00d787b3          	add	a5,a5,a3
   20ef4:	fee78423          	sb	a4,-24(a5)
   20ef8:	fcc42783          	lw	a5,-52(s0)
   20efc:	0047d793          	srli	a5,a5,0x4
   20f00:	fcf42623          	sw	a5,-52(s0)
   20f04:	fec42783          	lw	a5,-20(s0)
   20f08:	00178793          	addi	a5,a5,1
   20f0c:	fef42623          	sw	a5,-20(s0)
   20f10:	fec42703          	lw	a4,-20(s0)
   20f14:	00f00793          	li	a5,15
   20f18:	f8e7dae3          	bge	a5,a4,20eac <printhex+0x1c>
   20f1c:	fe040423          	sb	zero,-24(s0)
   20f20:	fd840793          	addi	a5,s0,-40
   20f24:	00078513          	mv	a0,a5
   20f28:	d9dff0ef          	jal	ra,20cc4 <printstr>
   20f2c:	00000013          	nop
   20f30:	03c12083          	lw	ra,60(sp)
   20f34:	03812403          	lw	s0,56(sp)
   20f38:	04010113          	addi	sp,sp,64
   20f3c:	00008067          	ret

00020f40 <getuint>:
getuint():
   20f40:	fe010113          	addi	sp,sp,-32
   20f44:	00812e23          	sw	s0,28(sp)
   20f48:	02010413          	addi	s0,sp,32
   20f4c:	fea42623          	sw	a0,-20(s0)
   20f50:	feb42423          	sw	a1,-24(s0)
   20f54:	fe842603          	lw	a2,-24(s0)
   20f58:	00100693          	li	a3,1
   20f5c:	02c6d663          	bge	a3,a2,20f88 <getuint+0x48>
   20f60:	fec42783          	lw	a5,-20(s0)
   20f64:	0007a783          	lw	a5,0(a5)
   20f68:	00778793          	addi	a5,a5,7
   20f6c:	ff87f793          	andi	a5,a5,-8
   20f70:	00878693          	addi	a3,a5,8
   20f74:	fec42703          	lw	a4,-20(s0)
   20f78:	00d72023          	sw	a3,0(a4)
   20f7c:	0007a703          	lw	a4,0(a5)
   20f80:	0047a783          	lw	a5,4(a5)
   20f84:	0500006f          	j	20fd4 <getuint+0x94>
   20f88:	fe842683          	lw	a3,-24(s0)
   20f8c:	02068463          	beqz	a3,20fb4 <getuint+0x74>
   20f90:	fec42683          	lw	a3,-20(s0)
   20f94:	0006a683          	lw	a3,0(a3)
   20f98:	00468593          	addi	a1,a3,4
   20f9c:	fec42603          	lw	a2,-20(s0)
   20fa0:	00b62023          	sw	a1,0(a2)
   20fa4:	0006a683          	lw	a3,0(a3)
   20fa8:	00068713          	mv	a4,a3
   20fac:	00000793          	li	a5,0
   20fb0:	0240006f          	j	20fd4 <getuint+0x94>
   20fb4:	fec42683          	lw	a3,-20(s0)
   20fb8:	0006a683          	lw	a3,0(a3)
   20fbc:	00468593          	addi	a1,a3,4
   20fc0:	fec42603          	lw	a2,-20(s0)
   20fc4:	00b62023          	sw	a1,0(a2)
   20fc8:	0006a683          	lw	a3,0(a3)
   20fcc:	00068713          	mv	a4,a3
   20fd0:	00000793          	li	a5,0
   20fd4:	00070513          	mv	a0,a4
   20fd8:	00078593          	mv	a1,a5
   20fdc:	01c12403          	lw	s0,28(sp)
   20fe0:	02010113          	addi	sp,sp,32
   20fe4:	00008067          	ret

00020fe8 <getint>:
getint():
   20fe8:	fe010113          	addi	sp,sp,-32
   20fec:	00812e23          	sw	s0,28(sp)
   20ff0:	02010413          	addi	s0,sp,32
   20ff4:	fea42623          	sw	a0,-20(s0)
   20ff8:	feb42423          	sw	a1,-24(s0)
   20ffc:	fe842603          	lw	a2,-24(s0)
   21000:	00100693          	li	a3,1
   21004:	02c6d663          	bge	a3,a2,21030 <getint+0x48>
   21008:	fec42783          	lw	a5,-20(s0)
   2100c:	0007a783          	lw	a5,0(a5)
   21010:	00778793          	addi	a5,a5,7
   21014:	ff87f793          	andi	a5,a5,-8
   21018:	00878693          	addi	a3,a5,8
   2101c:	fec42703          	lw	a4,-20(s0)
   21020:	00d72023          	sw	a3,0(a4)
   21024:	0007a703          	lw	a4,0(a5)
   21028:	0047a783          	lw	a5,4(a5)
   2102c:	0580006f          	j	21084 <getint+0x9c>
   21030:	fe842683          	lw	a3,-24(s0)
   21034:	02068663          	beqz	a3,21060 <getint+0x78>
   21038:	fec42683          	lw	a3,-20(s0)
   2103c:	0006a683          	lw	a3,0(a3)
   21040:	00468593          	addi	a1,a3,4
   21044:	fec42603          	lw	a2,-20(s0)
   21048:	00b62023          	sw	a1,0(a2)
   2104c:	0006a683          	lw	a3,0(a3)
   21050:	00068713          	mv	a4,a3
   21054:	41f6d693          	srai	a3,a3,0x1f
   21058:	00068793          	mv	a5,a3
   2105c:	0280006f          	j	21084 <getint+0x9c>
   21060:	fec42683          	lw	a3,-20(s0)
   21064:	0006a683          	lw	a3,0(a3)
   21068:	00468593          	addi	a1,a3,4
   2106c:	fec42603          	lw	a2,-20(s0)
   21070:	00b62023          	sw	a1,0(a2)
   21074:	0006a683          	lw	a3,0(a3)
   21078:	00068713          	mv	a4,a3
   2107c:	41f6d693          	srai	a3,a3,0x1f
   21080:	00068793          	mv	a5,a3
   21084:	00070513          	mv	a0,a4
   21088:	00078593          	mv	a1,a5
   2108c:	01c12403          	lw	s0,28(sp)
   21090:	02010113          	addi	sp,sp,32
   21094:	00008067          	ret

00021098 <skip_atoi>:
skip_atoi():
   21098:	fd010113          	addi	sp,sp,-48
   2109c:	02812623          	sw	s0,44(sp)
   210a0:	03010413          	addi	s0,sp,48
   210a4:	fca42e23          	sw	a0,-36(s0)
   210a8:	fe042623          	sw	zero,-20(s0)
   210ac:	0400006f          	j	210ec <skip_atoi+0x54>
   210b0:	fec42703          	lw	a4,-20(s0)
   210b4:	00070793          	mv	a5,a4
   210b8:	00279793          	slli	a5,a5,0x2
   210bc:	00e787b3          	add	a5,a5,a4
   210c0:	00179793          	slli	a5,a5,0x1
   210c4:	00078613          	mv	a2,a5
   210c8:	fdc42783          	lw	a5,-36(s0)
   210cc:	0007a783          	lw	a5,0(a5)
   210d0:	00178693          	addi	a3,a5,1
   210d4:	fdc42703          	lw	a4,-36(s0)
   210d8:	00d72023          	sw	a3,0(a4)
   210dc:	0007c783          	lbu	a5,0(a5)
   210e0:	00f607b3          	add	a5,a2,a5
   210e4:	fd078793          	addi	a5,a5,-48
   210e8:	fef42623          	sw	a5,-20(s0)
   210ec:	fdc42783          	lw	a5,-36(s0)
   210f0:	0007a783          	lw	a5,0(a5)
   210f4:	0007c703          	lbu	a4,0(a5)
   210f8:	02f00793          	li	a5,47
   210fc:	00e7fc63          	bgeu	a5,a4,21114 <skip_atoi+0x7c>
   21100:	fdc42783          	lw	a5,-36(s0)
   21104:	0007a783          	lw	a5,0(a5)
   21108:	0007c703          	lbu	a4,0(a5)
   2110c:	03900793          	li	a5,57
   21110:	fae7f0e3          	bgeu	a5,a4,210b0 <skip_atoi+0x18>
   21114:	fec42783          	lw	a5,-20(s0)
   21118:	00078513          	mv	a0,a5
   2111c:	02c12403          	lw	s0,44(sp)
   21120:	03010113          	addi	sp,sp,48
   21124:	00008067          	ret

00021128 <atoi>:
atoi():
   21128:	fd010113          	addi	sp,sp,-48
   2112c:	02812623          	sw	s0,44(sp)
   21130:	03010413          	addi	s0,sp,48
   21134:	fca42e23          	sw	a0,-36(s0)
   21138:	fe042623          	sw	zero,-20(s0)
   2113c:	fe042423          	sw	zero,-24(s0)
   21140:	0440006f          	j	21184 <atoi+0x5c>
   21144:	fec42703          	lw	a4,-20(s0)
   21148:	00070793          	mv	a5,a4
   2114c:	00279793          	slli	a5,a5,0x2
   21150:	00e787b3          	add	a5,a5,a4
   21154:	00179793          	slli	a5,a5,0x1
   21158:	00078693          	mv	a3,a5
   2115c:	fe842783          	lw	a5,-24(s0)
   21160:	fdc42703          	lw	a4,-36(s0)
   21164:	00f707b3          	add	a5,a4,a5
   21168:	0007c783          	lbu	a5,0(a5)
   2116c:	00f687b3          	add	a5,a3,a5
   21170:	fd078793          	addi	a5,a5,-48
   21174:	fef42623          	sw	a5,-20(s0)
   21178:	fe842783          	lw	a5,-24(s0)
   2117c:	00178793          	addi	a5,a5,1
   21180:	fef42423          	sw	a5,-24(s0)
   21184:	fe842783          	lw	a5,-24(s0)
   21188:	fdc42703          	lw	a4,-36(s0)
   2118c:	00f707b3          	add	a5,a4,a5
   21190:	0007c783          	lbu	a5,0(a5)
   21194:	fa0798e3          	bnez	a5,21144 <atoi+0x1c>
   21198:	fec42783          	lw	a5,-20(s0)
   2119c:	00078513          	mv	a0,a5
   211a0:	02c12403          	lw	s0,44(sp)
   211a4:	03010113          	addi	sp,sp,48
   211a8:	00008067          	ret

000211ac <atof>:
atof():
   211ac:	fd010113          	addi	sp,sp,-48
   211b0:	02112623          	sw	ra,44(sp)
   211b4:	02812423          	sw	s0,40(sp)
   211b8:	02912223          	sw	s1,36(sp)
   211bc:	03010413          	addi	s0,sp,48
   211c0:	fca42e23          	sw	a0,-36(s0)
   211c4:	00000793          	li	a5,0
   211c8:	fef42623          	sw	a5,-20(s0)
   211cc:	00006797          	auipc	a5,0x6
   211d0:	f2478793          	addi	a5,a5,-220 # 270f0 <main+0x544>
   211d4:	0007a783          	lw	a5,0(a5)
   211d8:	fef42423          	sw	a5,-24(s0)
   211dc:	fdc42783          	lw	a5,-36(s0)
   211e0:	0007c703          	lbu	a4,0(a5)
   211e4:	02d00793          	li	a5,45
   211e8:	02f71063          	bne	a4,a5,21208 <atof+0x5c>
   211ec:	fdc42783          	lw	a5,-36(s0)
   211f0:	00178793          	addi	a5,a5,1
   211f4:	fcf42e23          	sw	a5,-36(s0)
   211f8:	00006797          	auipc	a5,0x6
   211fc:	efc78793          	addi	a5,a5,-260 # 270f4 <main+0x548>
   21200:	0007a783          	lw	a5,0(a5)
   21204:	fef42423          	sw	a5,-24(s0)
   21208:	fe042223          	sw	zero,-28(s0)
   2120c:	0b00006f          	j	212bc <atof+0x110>
   21210:	fdc42783          	lw	a5,-36(s0)
   21214:	0007c703          	lbu	a4,0(a5)
   21218:	02e00793          	li	a5,46
   2121c:	00f71863          	bne	a4,a5,2122c <atof+0x80>
   21220:	00100793          	li	a5,1
   21224:	fef42223          	sw	a5,-28(s0)
   21228:	0880006f          	j	212b0 <atof+0x104>
   2122c:	fdc42783          	lw	a5,-36(s0)
   21230:	0007c783          	lbu	a5,0(a5)
   21234:	fd078793          	addi	a5,a5,-48
   21238:	fef42023          	sw	a5,-32(s0)
   2123c:	fe042783          	lw	a5,-32(s0)
   21240:	0607c863          	bltz	a5,212b0 <atof+0x104>
   21244:	fe042703          	lw	a4,-32(s0)
   21248:	00900793          	li	a5,9
   2124c:	06e7c263          	blt	a5,a4,212b0 <atof+0x104>
   21250:	fe442783          	lw	a5,-28(s0)
   21254:	02078063          	beqz	a5,21274 <atof+0xc8>
   21258:	00006797          	auipc	a5,0x6
   2125c:	ea078793          	addi	a5,a5,-352 # 270f8 <main+0x54c>
   21260:	0007a583          	lw	a1,0(a5)
   21264:	fe842503          	lw	a0,-24(s0)
   21268:	1b0050ef          	jal	ra,26418 <__divsf3>
   2126c:	00050793          	mv	a5,a0
   21270:	fef42423          	sw	a5,-24(s0)
   21274:	00006797          	auipc	a5,0x6
   21278:	e8478793          	addi	a5,a5,-380 # 270f8 <main+0x54c>
   2127c:	0007a583          	lw	a1,0(a5)
   21280:	fec42503          	lw	a0,-20(s0)
   21284:	4cc050ef          	jal	ra,26750 <__mulsf3>
   21288:	00050793          	mv	a5,a0
   2128c:	00078493          	mv	s1,a5
   21290:	fe042503          	lw	a0,-32(s0)
   21294:	7c4050ef          	jal	ra,26a58 <__floatsisf>
   21298:	00050793          	mv	a5,a0
   2129c:	00078593          	mv	a1,a5
   212a0:	00048513          	mv	a0,s1
   212a4:	519040ef          	jal	ra,25fbc <__addsf3>
   212a8:	00050793          	mv	a5,a0
   212ac:	fef42623          	sw	a5,-20(s0)
   212b0:	fdc42783          	lw	a5,-36(s0)
   212b4:	00178793          	addi	a5,a5,1
   212b8:	fcf42e23          	sw	a5,-36(s0)
   212bc:	fdc42783          	lw	a5,-36(s0)
   212c0:	0007c783          	lbu	a5,0(a5)
   212c4:	f40796e3          	bnez	a5,21210 <atof+0x64>
   212c8:	fe842583          	lw	a1,-24(s0)
   212cc:	fec42503          	lw	a0,-20(s0)
   212d0:	480050ef          	jal	ra,26750 <__mulsf3>
   212d4:	00050793          	mv	a5,a0
   212d8:	00078513          	mv	a0,a5
   212dc:	02c12083          	lw	ra,44(sp)
   212e0:	02812403          	lw	s0,40(sp)
   212e4:	02412483          	lw	s1,36(sp)
   212e8:	03010113          	addi	sp,sp,48
   212ec:	00008067          	ret

000212f0 <accurate_udelay>:
accurate_udelay():
   212f0:	fe010113          	addi	sp,sp,-32
   212f4:	00812e23          	sw	s0,28(sp)
   212f8:	02010413          	addi	s0,sp,32
   212fc:	fea42623          	sw	a0,-20(s0)
   21300:	fec42703          	lw	a4,-20(s0)
   21304:	017d87b7          	lui	a5,0x17d8
   21308:	84078793          	addi	a5,a5,-1984 # 17d7840 <__global_pointer$+0x17afcfc>
   2130c:	02f70733          	mul	a4,a4,a5
   21310:	00006797          	auipc	a5,0x6
   21314:	03c78793          	addi	a5,a5,60 # 2734c <loop_count>
   21318:	00e7a023          	sw	a4,0(a5)
   2131c:	ff810113          	addi	sp,sp,-8
   21320:	00a12023          	sw	a0,0(sp)
   21324:	00b12223          	sw	a1,4(sp)
   21328:	00006517          	auipc	a0,0x6
   2132c:	02450513          	addi	a0,a0,36 # 2734c <loop_count>
   21330:	00052583          	lw	a1,0(a0)

00021334 <loop_us>:
   21334:	fff58593          	addi	a1,a1,-1
   21338:	fe059ee3          	bnez	a1,21334 <loop_us>
   2133c:	00012503          	lw	a0,0(sp)
   21340:	00412583          	lw	a1,4(sp)
   21344:	00810113          	addi	sp,sp,8
   21348:	00000013          	nop
   2134c:	00078513          	mv	a0,a5
   21350:	01c12403          	lw	s0,28(sp)
   21354:	02010113          	addi	sp,sp,32
   21358:	00008067          	ret

0002135c <udelay>:
udelay():
   2135c:	fd010113          	addi	sp,sp,-48
   21360:	02812623          	sw	s0,44(sp)
   21364:	03010413          	addi	s0,sp,48
   21368:	fca42e23          	sw	a0,-36(s0)
   2136c:	fe042623          	sw	zero,-20(s0)
   21370:	0100006f          	j	21380 <udelay+0x24>
   21374:	fec42783          	lw	a5,-20(s0)
   21378:	00178793          	addi	a5,a5,1
   2137c:	fef42623          	sw	a5,-20(s0)
   21380:	fdc42703          	lw	a4,-36(s0)
   21384:	00070793          	mv	a5,a4
   21388:	00379793          	slli	a5,a5,0x3
   2138c:	00e787b3          	add	a5,a5,a4
   21390:	00279793          	slli	a5,a5,0x2
   21394:	40e78733          	sub	a4,a5,a4
   21398:	fec42783          	lw	a5,-20(s0)
   2139c:	fce7ece3          	bltu	a5,a4,21374 <udelay+0x18>
   213a0:	00000013          	nop
   213a4:	00078513          	mv	a0,a5
   213a8:	02c12403          	lw	s0,44(sp)
   213ac:	03010113          	addi	sp,sp,48
   213b0:	00008067          	ret

000213b4 <usleep>:
usleep():
   213b4:	fe010113          	addi	sp,sp,-32
   213b8:	00812e23          	sw	s0,28(sp)
   213bc:	02010413          	addi	s0,sp,32
   213c0:	fea42623          	sw	a0,-20(s0)
   213c4:	fec42703          	lw	a4,-20(s0)
   213c8:	00070793          	mv	a5,a4
   213cc:	00100813          	li	a6,1
   213d0:	03078863          	beq	a5,a6,21400 <final>
   213d4:	00300813          	li	a6,3
   213d8:	0107dc63          	bge	a5,a6,213f0 <cycle_loop>

000213dc <loop>:
   213dc:	fff78793          	addi	a5,a5,-1
   213e0:	00000013          	nop
   213e4:	00000013          	nop
   213e8:	fe079ae3          	bnez	a5,213dc <loop>
   213ec:	0140006f          	j	21400 <final>

000213f0 <cycle_loop>:
   213f0:	01200713          	li	a4,18
   213f4:	02e78733          	mul	a4,a5,a4

000213f8 <loop1>:
   213f8:	fff70713          	addi	a4,a4,-1
   213fc:	fe071ee3          	bnez	a4,213f8 <loop1>

00021400 <final>:
   21400:	00000013          	nop
   21404:	01c12403          	lw	s0,28(sp)
   21408:	02010113          	addi	sp,sp,32
   2140c:	00008067          	ret

00021410 <get_time>:
get_time():
   21410:	fe010113          	addi	sp,sp,-32
   21414:	00812e23          	sw	s0,28(sp)
   21418:	02010413          	addi	s0,sp,32
   2141c:	b00027f3          	csrr	a5,mcycle
   21420:	fef42623          	sw	a5,-20(s0)
   21424:	fec42783          	lw	a5,-20(s0)
   21428:	fef42423          	sw	a5,-24(s0)
   2142c:	fe842783          	lw	a5,-24(s0)
   21430:	00078513          	mv	a0,a5
   21434:	01c12403          	lw	s0,28(sp)
   21438:	02010113          	addi	sp,sp,32
   2143c:	00008067          	ret

00021440 <number>:
number():
   21440:	f8010113          	addi	sp,sp,-128
   21444:	06812e23          	sw	s0,124(sp)
   21448:	08010413          	addi	s0,sp,128
   2144c:	f8a42e23          	sw	a0,-100(s0)
   21450:	f8b42c23          	sw	a1,-104(s0)
   21454:	f8c42a23          	sw	a2,-108(s0)
   21458:	f8d42823          	sw	a3,-112(s0)
   2145c:	f8e42623          	sw	a4,-116(s0)
   21460:	f8f42423          	sw	a5,-120(s0)
   21464:	00006797          	auipc	a5,0x6
   21468:	ee078793          	addi	a5,a5,-288 # 27344 <digits>
   2146c:	0007a783          	lw	a5,0(a5)
   21470:	fef42423          	sw	a5,-24(s0)
   21474:	f8842783          	lw	a5,-120(s0)
   21478:	0407f793          	andi	a5,a5,64
   2147c:	00078a63          	beqz	a5,21490 <number+0x50>
   21480:	00006797          	auipc	a5,0x6
   21484:	ec878793          	addi	a5,a5,-312 # 27348 <upper_digits>
   21488:	0007a783          	lw	a5,0(a5)
   2148c:	fef42423          	sw	a5,-24(s0)
   21490:	f8842783          	lw	a5,-120(s0)
   21494:	0107f793          	andi	a5,a5,16
   21498:	00078863          	beqz	a5,214a8 <number+0x68>
   2149c:	f8842783          	lw	a5,-120(s0)
   214a0:	ffe7f793          	andi	a5,a5,-2
   214a4:	f8f42423          	sw	a5,-120(s0)
   214a8:	f9442703          	lw	a4,-108(s0)
   214ac:	00100793          	li	a5,1
   214b0:	00e7d863          	bge	a5,a4,214c0 <number+0x80>
   214b4:	f9442703          	lw	a4,-108(s0)
   214b8:	02400793          	li	a5,36
   214bc:	00e7d663          	bge	a5,a4,214c8 <number+0x88>
   214c0:	00000793          	li	a5,0
   214c4:	2f80006f          	j	217bc <number+0x37c>
   214c8:	f8842783          	lw	a5,-120(s0)
   214cc:	0017f793          	andi	a5,a5,1
   214d0:	00078663          	beqz	a5,214dc <number+0x9c>
   214d4:	03000793          	li	a5,48
   214d8:	0080006f          	j	214e0 <number+0xa0>
   214dc:	02000793          	li	a5,32
   214e0:	fef401a3          	sb	a5,-29(s0)
   214e4:	fe0407a3          	sb	zero,-17(s0)
   214e8:	f8842783          	lw	a5,-120(s0)
   214ec:	0027f793          	andi	a5,a5,2
   214f0:	06078a63          	beqz	a5,21564 <number+0x124>
   214f4:	f9842783          	lw	a5,-104(s0)
   214f8:	0207d463          	bgez	a5,21520 <number+0xe0>
   214fc:	02d00793          	li	a5,45
   21500:	fef407a3          	sb	a5,-17(s0)
   21504:	f9842783          	lw	a5,-104(s0)
   21508:	40f007b3          	neg	a5,a5
   2150c:	f8f42c23          	sw	a5,-104(s0)
   21510:	f9042783          	lw	a5,-112(s0)
   21514:	fff78793          	addi	a5,a5,-1
   21518:	f8f42823          	sw	a5,-112(s0)
   2151c:	0480006f          	j	21564 <number+0x124>
   21520:	f8842783          	lw	a5,-120(s0)
   21524:	0047f793          	andi	a5,a5,4
   21528:	00078e63          	beqz	a5,21544 <number+0x104>
   2152c:	02b00793          	li	a5,43
   21530:	fef407a3          	sb	a5,-17(s0)
   21534:	f9042783          	lw	a5,-112(s0)
   21538:	fff78793          	addi	a5,a5,-1
   2153c:	f8f42823          	sw	a5,-112(s0)
   21540:	0240006f          	j	21564 <number+0x124>
   21544:	f8842783          	lw	a5,-120(s0)
   21548:	0087f793          	andi	a5,a5,8
   2154c:	00078c63          	beqz	a5,21564 <number+0x124>
   21550:	02000793          	li	a5,32
   21554:	fef407a3          	sb	a5,-17(s0)
   21558:	f9042783          	lw	a5,-112(s0)
   2155c:	fff78793          	addi	a5,a5,-1
   21560:	f8f42823          	sw	a5,-112(s0)
   21564:	f8842783          	lw	a5,-120(s0)
   21568:	0207f793          	andi	a5,a5,32
   2156c:	02078c63          	beqz	a5,215a4 <number+0x164>
   21570:	f9442703          	lw	a4,-108(s0)
   21574:	01000793          	li	a5,16
   21578:	00f71a63          	bne	a4,a5,2158c <number+0x14c>
   2157c:	f9042783          	lw	a5,-112(s0)
   21580:	ffe78793          	addi	a5,a5,-2
   21584:	f8f42823          	sw	a5,-112(s0)
   21588:	01c0006f          	j	215a4 <number+0x164>
   2158c:	f9442703          	lw	a4,-108(s0)
   21590:	00800793          	li	a5,8
   21594:	00f71863          	bne	a4,a5,215a4 <number+0x164>
   21598:	f9042783          	lw	a5,-112(s0)
   2159c:	fff78793          	addi	a5,a5,-1
   215a0:	f8f42823          	sw	a5,-112(s0)
   215a4:	fe042223          	sw	zero,-28(s0)
   215a8:	f9842783          	lw	a5,-104(s0)
   215ac:	06079263          	bnez	a5,21610 <number+0x1d0>
   215b0:	fe442783          	lw	a5,-28(s0)
   215b4:	00178713          	addi	a4,a5,1
   215b8:	fee42223          	sw	a4,-28(s0)
   215bc:	ff040713          	addi	a4,s0,-16
   215c0:	00f707b3          	add	a5,a4,a5
   215c4:	03000713          	li	a4,48
   215c8:	fae78823          	sb	a4,-80(a5)
   215cc:	04c0006f          	j	21618 <number+0x1d8>
   215d0:	f9842703          	lw	a4,-104(s0)
   215d4:	f9442783          	lw	a5,-108(s0)
   215d8:	02f777b3          	remu	a5,a4,a5
   215dc:	fe842703          	lw	a4,-24(s0)
   215e0:	00f70733          	add	a4,a4,a5
   215e4:	fe442783          	lw	a5,-28(s0)
   215e8:	00178693          	addi	a3,a5,1
   215ec:	fed42223          	sw	a3,-28(s0)
   215f0:	00074703          	lbu	a4,0(a4)
   215f4:	ff040693          	addi	a3,s0,-16
   215f8:	00f687b3          	add	a5,a3,a5
   215fc:	fae78823          	sb	a4,-80(a5)
   21600:	f9842703          	lw	a4,-104(s0)
   21604:	f9442783          	lw	a5,-108(s0)
   21608:	02f757b3          	divu	a5,a4,a5
   2160c:	f8f42c23          	sw	a5,-104(s0)
   21610:	f9842783          	lw	a5,-104(s0)
   21614:	fa079ee3          	bnez	a5,215d0 <number+0x190>
   21618:	fe442703          	lw	a4,-28(s0)
   2161c:	f8c42783          	lw	a5,-116(s0)
   21620:	00e7d663          	bge	a5,a4,2162c <number+0x1ec>
   21624:	fe442783          	lw	a5,-28(s0)
   21628:	f8f42623          	sw	a5,-116(s0)
   2162c:	f9042703          	lw	a4,-112(s0)
   21630:	f8c42783          	lw	a5,-116(s0)
   21634:	40f707b3          	sub	a5,a4,a5
   21638:	f8f42823          	sw	a5,-112(s0)
   2163c:	f8842783          	lw	a5,-120(s0)
   21640:	0117f793          	andi	a5,a5,17
   21644:	02079663          	bnez	a5,21670 <number+0x230>
   21648:	0180006f          	j	21660 <number+0x220>
   2164c:	f9c42783          	lw	a5,-100(s0)
   21650:	00178713          	addi	a4,a5,1
   21654:	f8e42e23          	sw	a4,-100(s0)
   21658:	02000713          	li	a4,32
   2165c:	00e78023          	sb	a4,0(a5)
   21660:	f9042783          	lw	a5,-112(s0)
   21664:	fff78713          	addi	a4,a5,-1
   21668:	f8e42823          	sw	a4,-112(s0)
   2166c:	fef040e3          	bgtz	a5,2164c <number+0x20c>
   21670:	fef44783          	lbu	a5,-17(s0)
   21674:	00078c63          	beqz	a5,2168c <number+0x24c>
   21678:	f9c42783          	lw	a5,-100(s0)
   2167c:	00178713          	addi	a4,a5,1
   21680:	f8e42e23          	sw	a4,-100(s0)
   21684:	fef44703          	lbu	a4,-17(s0)
   21688:	00e78023          	sb	a4,0(a5)
   2168c:	f8842783          	lw	a5,-120(s0)
   21690:	0207f793          	andi	a5,a5,32
   21694:	06078463          	beqz	a5,216fc <number+0x2bc>
   21698:	f9442703          	lw	a4,-108(s0)
   2169c:	00800793          	li	a5,8
   216a0:	00f71e63          	bne	a4,a5,216bc <number+0x27c>
   216a4:	f9c42783          	lw	a5,-100(s0)
   216a8:	00178713          	addi	a4,a5,1
   216ac:	f8e42e23          	sw	a4,-100(s0)
   216b0:	03000713          	li	a4,48
   216b4:	00e78023          	sb	a4,0(a5)
   216b8:	0440006f          	j	216fc <number+0x2bc>
   216bc:	f9442703          	lw	a4,-108(s0)
   216c0:	01000793          	li	a5,16
   216c4:	02f71c63          	bne	a4,a5,216fc <number+0x2bc>
   216c8:	f9c42783          	lw	a5,-100(s0)
   216cc:	00178713          	addi	a4,a5,1
   216d0:	f8e42e23          	sw	a4,-100(s0)
   216d4:	03000713          	li	a4,48
   216d8:	00e78023          	sb	a4,0(a5)
   216dc:	00006797          	auipc	a5,0x6
   216e0:	c6878793          	addi	a5,a5,-920 # 27344 <digits>
   216e4:	0007a703          	lw	a4,0(a5)
   216e8:	f9c42783          	lw	a5,-100(s0)
   216ec:	00178693          	addi	a3,a5,1
   216f0:	f8d42e23          	sw	a3,-100(s0)
   216f4:	02174703          	lbu	a4,33(a4)
   216f8:	00e78023          	sb	a4,0(a5)
   216fc:	f8842783          	lw	a5,-120(s0)
   21700:	0107f793          	andi	a5,a5,16
   21704:	04079263          	bnez	a5,21748 <number+0x308>
   21708:	0180006f          	j	21720 <number+0x2e0>
   2170c:	f9c42783          	lw	a5,-100(s0)
   21710:	00178713          	addi	a4,a5,1
   21714:	f8e42e23          	sw	a4,-100(s0)
   21718:	fe344703          	lbu	a4,-29(s0)
   2171c:	00e78023          	sb	a4,0(a5)
   21720:	f9042783          	lw	a5,-112(s0)
   21724:	fff78713          	addi	a4,a5,-1
   21728:	f8e42823          	sw	a4,-112(s0)
   2172c:	fef040e3          	bgtz	a5,2170c <number+0x2cc>
   21730:	0180006f          	j	21748 <number+0x308>
   21734:	f9c42783          	lw	a5,-100(s0)
   21738:	00178713          	addi	a4,a5,1
   2173c:	f8e42e23          	sw	a4,-100(s0)
   21740:	03000713          	li	a4,48
   21744:	00e78023          	sb	a4,0(a5)
   21748:	f8c42783          	lw	a5,-116(s0)
   2174c:	fff78713          	addi	a4,a5,-1
   21750:	f8e42623          	sw	a4,-116(s0)
   21754:	fe442703          	lw	a4,-28(s0)
   21758:	fcf74ee3          	blt	a4,a5,21734 <number+0x2f4>
   2175c:	0240006f          	j	21780 <number+0x340>
   21760:	f9c42783          	lw	a5,-100(s0)
   21764:	00178713          	addi	a4,a5,1
   21768:	f8e42e23          	sw	a4,-100(s0)
   2176c:	fe442703          	lw	a4,-28(s0)
   21770:	ff040693          	addi	a3,s0,-16
   21774:	00e68733          	add	a4,a3,a4
   21778:	fb074703          	lbu	a4,-80(a4)
   2177c:	00e78023          	sb	a4,0(a5)
   21780:	fe442783          	lw	a5,-28(s0)
   21784:	fff78713          	addi	a4,a5,-1
   21788:	fee42223          	sw	a4,-28(s0)
   2178c:	fcf04ae3          	bgtz	a5,21760 <number+0x320>
   21790:	0180006f          	j	217a8 <number+0x368>
   21794:	f9c42783          	lw	a5,-100(s0)
   21798:	00178713          	addi	a4,a5,1
   2179c:	f8e42e23          	sw	a4,-100(s0)
   217a0:	02000713          	li	a4,32
   217a4:	00e78023          	sb	a4,0(a5)
   217a8:	f9042783          	lw	a5,-112(s0)
   217ac:	fff78713          	addi	a4,a5,-1
   217b0:	f8e42823          	sw	a4,-112(s0)
   217b4:	fef040e3          	bgtz	a5,21794 <number+0x354>
   217b8:	f9c42783          	lw	a5,-100(s0)
   217bc:	00078513          	mv	a0,a5
   217c0:	07c12403          	lw	s0,124(sp)
   217c4:	08010113          	addi	sp,sp,128
   217c8:	00008067          	ret

000217cc <eaddr>:
eaddr():
   217cc:	fa010113          	addi	sp,sp,-96
   217d0:	04812e23          	sw	s0,92(sp)
   217d4:	06010413          	addi	s0,sp,96
   217d8:	faa42e23          	sw	a0,-68(s0)
   217dc:	fab42c23          	sw	a1,-72(s0)
   217e0:	fac42a23          	sw	a2,-76(s0)
   217e4:	fad42823          	sw	a3,-80(s0)
   217e8:	fae42623          	sw	a4,-84(s0)
   217ec:	00006797          	auipc	a5,0x6
   217f0:	b5878793          	addi	a5,a5,-1192 # 27344 <digits>
   217f4:	0007a783          	lw	a5,0(a5)
   217f8:	fef42623          	sw	a5,-20(s0)
   217fc:	fac42783          	lw	a5,-84(s0)
   21800:	0407f793          	andi	a5,a5,64
   21804:	00078a63          	beqz	a5,21818 <eaddr+0x4c>
   21808:	00006797          	auipc	a5,0x6
   2180c:	b4078793          	addi	a5,a5,-1216 # 27348 <upper_digits>
   21810:	0007a783          	lw	a5,0(a5)
   21814:	fef42623          	sw	a5,-20(s0)
   21818:	fe042223          	sw	zero,-28(s0)
   2181c:	fe042423          	sw	zero,-24(s0)
   21820:	0ac0006f          	j	218cc <eaddr+0x100>
   21824:	fe842783          	lw	a5,-24(s0)
   21828:	02078063          	beqz	a5,21848 <eaddr+0x7c>
   2182c:	fe442783          	lw	a5,-28(s0)
   21830:	00178713          	addi	a4,a5,1
   21834:	fee42223          	sw	a4,-28(s0)
   21838:	ff040713          	addi	a4,s0,-16
   2183c:	00f707b3          	add	a5,a4,a5
   21840:	03a00713          	li	a4,58
   21844:	fce78e23          	sb	a4,-36(a5)
   21848:	fe842783          	lw	a5,-24(s0)
   2184c:	fb842703          	lw	a4,-72(s0)
   21850:	00f707b3          	add	a5,a4,a5
   21854:	0007c783          	lbu	a5,0(a5)
   21858:	0047d793          	srli	a5,a5,0x4
   2185c:	0ff7f793          	andi	a5,a5,255
   21860:	00078713          	mv	a4,a5
   21864:	fec42783          	lw	a5,-20(s0)
   21868:	00e78733          	add	a4,a5,a4
   2186c:	fe442783          	lw	a5,-28(s0)
   21870:	00178693          	addi	a3,a5,1
   21874:	fed42223          	sw	a3,-28(s0)
   21878:	00074703          	lbu	a4,0(a4)
   2187c:	ff040693          	addi	a3,s0,-16
   21880:	00f687b3          	add	a5,a3,a5
   21884:	fce78e23          	sb	a4,-36(a5)
   21888:	fe842783          	lw	a5,-24(s0)
   2188c:	fb842703          	lw	a4,-72(s0)
   21890:	00f707b3          	add	a5,a4,a5
   21894:	0007c783          	lbu	a5,0(a5)
   21898:	00f7f793          	andi	a5,a5,15
   2189c:	fec42703          	lw	a4,-20(s0)
   218a0:	00f70733          	add	a4,a4,a5
   218a4:	fe442783          	lw	a5,-28(s0)
   218a8:	00178693          	addi	a3,a5,1
   218ac:	fed42223          	sw	a3,-28(s0)
   218b0:	00074703          	lbu	a4,0(a4)
   218b4:	ff040693          	addi	a3,s0,-16
   218b8:	00f687b3          	add	a5,a3,a5
   218bc:	fce78e23          	sb	a4,-36(a5)
   218c0:	fe842783          	lw	a5,-24(s0)
   218c4:	00178793          	addi	a5,a5,1
   218c8:	fef42423          	sw	a5,-24(s0)
   218cc:	fe842703          	lw	a4,-24(s0)
   218d0:	00500793          	li	a5,5
   218d4:	f4e7d8e3          	bge	a5,a4,21824 <eaddr+0x58>
   218d8:	fac42783          	lw	a5,-84(s0)
   218dc:	0107f793          	andi	a5,a5,16
   218e0:	02079863          	bnez	a5,21910 <eaddr+0x144>
   218e4:	0180006f          	j	218fc <eaddr+0x130>
   218e8:	fbc42783          	lw	a5,-68(s0)
   218ec:	00178713          	addi	a4,a5,1
   218f0:	fae42e23          	sw	a4,-68(s0)
   218f4:	02000713          	li	a4,32
   218f8:	00e78023          	sb	a4,0(a5)
   218fc:	fb442783          	lw	a5,-76(s0)
   21900:	fff78713          	addi	a4,a5,-1
   21904:	fae42a23          	sw	a4,-76(s0)
   21908:	fe442703          	lw	a4,-28(s0)
   2190c:	fcf74ee3          	blt	a4,a5,218e8 <eaddr+0x11c>
   21910:	fe042423          	sw	zero,-24(s0)
   21914:	0300006f          	j	21944 <eaddr+0x178>
   21918:	fbc42783          	lw	a5,-68(s0)
   2191c:	00178713          	addi	a4,a5,1
   21920:	fae42e23          	sw	a4,-68(s0)
   21924:	fe842703          	lw	a4,-24(s0)
   21928:	ff040693          	addi	a3,s0,-16
   2192c:	00e68733          	add	a4,a3,a4
   21930:	fdc74703          	lbu	a4,-36(a4)
   21934:	00e78023          	sb	a4,0(a5)
   21938:	fe842783          	lw	a5,-24(s0)
   2193c:	00178793          	addi	a5,a5,1
   21940:	fef42423          	sw	a5,-24(s0)
   21944:	fe842703          	lw	a4,-24(s0)
   21948:	fe442783          	lw	a5,-28(s0)
   2194c:	fcf746e3          	blt	a4,a5,21918 <eaddr+0x14c>
   21950:	0180006f          	j	21968 <eaddr+0x19c>
   21954:	fbc42783          	lw	a5,-68(s0)
   21958:	00178713          	addi	a4,a5,1
   2195c:	fae42e23          	sw	a4,-68(s0)
   21960:	02000713          	li	a4,32
   21964:	00e78023          	sb	a4,0(a5)
   21968:	fb442783          	lw	a5,-76(s0)
   2196c:	fff78713          	addi	a4,a5,-1
   21970:	fae42a23          	sw	a4,-76(s0)
   21974:	fe442703          	lw	a4,-28(s0)
   21978:	fcf74ee3          	blt	a4,a5,21954 <eaddr+0x188>
   2197c:	fbc42783          	lw	a5,-68(s0)
   21980:	00078513          	mv	a0,a5
   21984:	05c12403          	lw	s0,92(sp)
   21988:	06010113          	addi	sp,sp,96
   2198c:	00008067          	ret

00021990 <iaddr>:
iaddr():
   21990:	fa010113          	addi	sp,sp,-96
   21994:	04812e23          	sw	s0,92(sp)
   21998:	06010413          	addi	s0,sp,96
   2199c:	faa42e23          	sw	a0,-68(s0)
   219a0:	fab42c23          	sw	a1,-72(s0)
   219a4:	fac42a23          	sw	a2,-76(s0)
   219a8:	fad42823          	sw	a3,-80(s0)
   219ac:	fae42623          	sw	a4,-84(s0)
   219b0:	fe042223          	sw	zero,-28(s0)
   219b4:	fe042623          	sw	zero,-20(s0)
   219b8:	1a00006f          	j	21b58 <iaddr+0x1c8>
   219bc:	fec42783          	lw	a5,-20(s0)
   219c0:	02078063          	beqz	a5,219e0 <iaddr+0x50>
   219c4:	fe442783          	lw	a5,-28(s0)
   219c8:	00178713          	addi	a4,a5,1
   219cc:	fee42223          	sw	a4,-28(s0)
   219d0:	ff040713          	addi	a4,s0,-16
   219d4:	00f707b3          	add	a5,a4,a5
   219d8:	02e00713          	li	a4,46
   219dc:	fce78e23          	sb	a4,-36(a5)
   219e0:	fec42783          	lw	a5,-20(s0)
   219e4:	fb842703          	lw	a4,-72(s0)
   219e8:	00f707b3          	add	a5,a4,a5
   219ec:	0007c783          	lbu	a5,0(a5)
   219f0:	fef42423          	sw	a5,-24(s0)
   219f4:	fe842783          	lw	a5,-24(s0)
   219f8:	02079863          	bnez	a5,21a28 <iaddr+0x98>
   219fc:	00006797          	auipc	a5,0x6
   21a00:	94878793          	addi	a5,a5,-1720 # 27344 <digits>
   21a04:	0007a703          	lw	a4,0(a5)
   21a08:	fe442783          	lw	a5,-28(s0)
   21a0c:	00178693          	addi	a3,a5,1
   21a10:	fed42223          	sw	a3,-28(s0)
   21a14:	00074703          	lbu	a4,0(a4)
   21a18:	ff040693          	addi	a3,s0,-16
   21a1c:	00f687b3          	add	a5,a3,a5
   21a20:	fce78e23          	sb	a4,-36(a5)
   21a24:	1280006f          	j	21b4c <iaddr+0x1bc>
   21a28:	fe842703          	lw	a4,-24(s0)
   21a2c:	06300793          	li	a5,99
   21a30:	08e7dc63          	bge	a5,a4,21ac8 <iaddr+0x138>
   21a34:	00006797          	auipc	a5,0x6
   21a38:	91078793          	addi	a5,a5,-1776 # 27344 <digits>
   21a3c:	0007a783          	lw	a5,0(a5)
   21a40:	fe842683          	lw	a3,-24(s0)
   21a44:	06400713          	li	a4,100
   21a48:	02e6c733          	div	a4,a3,a4
   21a4c:	00e78733          	add	a4,a5,a4
   21a50:	fe442783          	lw	a5,-28(s0)
   21a54:	00178693          	addi	a3,a5,1
   21a58:	fed42223          	sw	a3,-28(s0)
   21a5c:	00074703          	lbu	a4,0(a4)
   21a60:	ff040693          	addi	a3,s0,-16
   21a64:	00f687b3          	add	a5,a3,a5
   21a68:	fce78e23          	sb	a4,-36(a5)
   21a6c:	fe842703          	lw	a4,-24(s0)
   21a70:	06400793          	li	a5,100
   21a74:	02f767b3          	rem	a5,a4,a5
   21a78:	fef42423          	sw	a5,-24(s0)
   21a7c:	00006797          	auipc	a5,0x6
   21a80:	8c878793          	addi	a5,a5,-1848 # 27344 <digits>
   21a84:	0007a783          	lw	a5,0(a5)
   21a88:	fe842683          	lw	a3,-24(s0)
   21a8c:	00a00713          	li	a4,10
   21a90:	02e6c733          	div	a4,a3,a4
   21a94:	00e78733          	add	a4,a5,a4
   21a98:	fe442783          	lw	a5,-28(s0)
   21a9c:	00178693          	addi	a3,a5,1
   21aa0:	fed42223          	sw	a3,-28(s0)
   21aa4:	00074703          	lbu	a4,0(a4)
   21aa8:	ff040693          	addi	a3,s0,-16
   21aac:	00f687b3          	add	a5,a3,a5
   21ab0:	fce78e23          	sb	a4,-36(a5)
   21ab4:	fe842703          	lw	a4,-24(s0)
   21ab8:	00a00793          	li	a5,10
   21abc:	02f767b3          	rem	a5,a4,a5
   21ac0:	fef42423          	sw	a5,-24(s0)
   21ac4:	0580006f          	j	21b1c <iaddr+0x18c>
   21ac8:	fe842703          	lw	a4,-24(s0)
   21acc:	00900793          	li	a5,9
   21ad0:	04e7d663          	bge	a5,a4,21b1c <iaddr+0x18c>
   21ad4:	00006797          	auipc	a5,0x6
   21ad8:	87078793          	addi	a5,a5,-1936 # 27344 <digits>
   21adc:	0007a783          	lw	a5,0(a5)
   21ae0:	fe842683          	lw	a3,-24(s0)
   21ae4:	00a00713          	li	a4,10
   21ae8:	02e6c733          	div	a4,a3,a4
   21aec:	00e78733          	add	a4,a5,a4
   21af0:	fe442783          	lw	a5,-28(s0)
   21af4:	00178693          	addi	a3,a5,1
   21af8:	fed42223          	sw	a3,-28(s0)
   21afc:	00074703          	lbu	a4,0(a4)
   21b00:	ff040693          	addi	a3,s0,-16
   21b04:	00f687b3          	add	a5,a3,a5
   21b08:	fce78e23          	sb	a4,-36(a5)
   21b0c:	fe842703          	lw	a4,-24(s0)
   21b10:	00a00793          	li	a5,10
   21b14:	02f767b3          	rem	a5,a4,a5
   21b18:	fef42423          	sw	a5,-24(s0)
   21b1c:	00006797          	auipc	a5,0x6
   21b20:	82878793          	addi	a5,a5,-2008 # 27344 <digits>
   21b24:	0007a703          	lw	a4,0(a5)
   21b28:	fe842783          	lw	a5,-24(s0)
   21b2c:	00f70733          	add	a4,a4,a5
   21b30:	fe442783          	lw	a5,-28(s0)
   21b34:	00178693          	addi	a3,a5,1
   21b38:	fed42223          	sw	a3,-28(s0)
   21b3c:	00074703          	lbu	a4,0(a4)
   21b40:	ff040693          	addi	a3,s0,-16
   21b44:	00f687b3          	add	a5,a3,a5
   21b48:	fce78e23          	sb	a4,-36(a5)
   21b4c:	fec42783          	lw	a5,-20(s0)
   21b50:	00178793          	addi	a5,a5,1
   21b54:	fef42623          	sw	a5,-20(s0)
   21b58:	fec42703          	lw	a4,-20(s0)
   21b5c:	00300793          	li	a5,3
   21b60:	e4e7dee3          	bge	a5,a4,219bc <iaddr+0x2c>
   21b64:	fac42783          	lw	a5,-84(s0)
   21b68:	0107f793          	andi	a5,a5,16
   21b6c:	02079863          	bnez	a5,21b9c <iaddr+0x20c>
   21b70:	0180006f          	j	21b88 <iaddr+0x1f8>
   21b74:	fbc42783          	lw	a5,-68(s0)
   21b78:	00178713          	addi	a4,a5,1
   21b7c:	fae42e23          	sw	a4,-68(s0)
   21b80:	02000713          	li	a4,32
   21b84:	00e78023          	sb	a4,0(a5)
   21b88:	fb442783          	lw	a5,-76(s0)
   21b8c:	fff78713          	addi	a4,a5,-1
   21b90:	fae42a23          	sw	a4,-76(s0)
   21b94:	fe442703          	lw	a4,-28(s0)
   21b98:	fcf74ee3          	blt	a4,a5,21b74 <iaddr+0x1e4>
   21b9c:	fe042623          	sw	zero,-20(s0)
   21ba0:	0300006f          	j	21bd0 <iaddr+0x240>
   21ba4:	fbc42783          	lw	a5,-68(s0)
   21ba8:	00178713          	addi	a4,a5,1
   21bac:	fae42e23          	sw	a4,-68(s0)
   21bb0:	fec42703          	lw	a4,-20(s0)
   21bb4:	ff040693          	addi	a3,s0,-16
   21bb8:	00e68733          	add	a4,a3,a4
   21bbc:	fdc74703          	lbu	a4,-36(a4)
   21bc0:	00e78023          	sb	a4,0(a5)
   21bc4:	fec42783          	lw	a5,-20(s0)
   21bc8:	00178793          	addi	a5,a5,1
   21bcc:	fef42623          	sw	a5,-20(s0)
   21bd0:	fec42703          	lw	a4,-20(s0)
   21bd4:	fe442783          	lw	a5,-28(s0)
   21bd8:	fcf746e3          	blt	a4,a5,21ba4 <iaddr+0x214>
   21bdc:	0180006f          	j	21bf4 <iaddr+0x264>
   21be0:	fbc42783          	lw	a5,-68(s0)
   21be4:	00178713          	addi	a4,a5,1
   21be8:	fae42e23          	sw	a4,-68(s0)
   21bec:	02000713          	li	a4,32
   21bf0:	00e78023          	sb	a4,0(a5)
   21bf4:	fb442783          	lw	a5,-76(s0)
   21bf8:	fff78713          	addi	a4,a5,-1
   21bfc:	fae42a23          	sw	a4,-76(s0)
   21c00:	fe442703          	lw	a4,-28(s0)
   21c04:	fcf74ee3          	blt	a4,a5,21be0 <iaddr+0x250>
   21c08:	fbc42783          	lw	a5,-68(s0)
   21c0c:	00078513          	mv	a0,a5
   21c10:	05c12403          	lw	s0,92(sp)
   21c14:	06010113          	addi	sp,sp,96
   21c18:	00008067          	ret

00021c1c <ee_bufcpy>:
ee_bufcpy():
   21c1c:	fd010113          	addi	sp,sp,-48
   21c20:	02812623          	sw	s0,44(sp)
   21c24:	03010413          	addi	s0,sp,48
   21c28:	fca42e23          	sw	a0,-36(s0)
   21c2c:	fcb42c23          	sw	a1,-40(s0)
   21c30:	fcc42a23          	sw	a2,-44(s0)
   21c34:	fd442783          	lw	a5,-44(s0)
   21c38:	fd842703          	lw	a4,-40(s0)
   21c3c:	00f707b3          	add	a5,a4,a5
   21c40:	fef42623          	sw	a5,-20(s0)
   21c44:	0240006f          	j	21c68 <ee_bufcpy+0x4c>
   21c48:	fd842703          	lw	a4,-40(s0)
   21c4c:	00170793          	addi	a5,a4,1
   21c50:	fcf42c23          	sw	a5,-40(s0)
   21c54:	fdc42783          	lw	a5,-36(s0)
   21c58:	00178693          	addi	a3,a5,1
   21c5c:	fcd42e23          	sw	a3,-36(s0)
   21c60:	00074703          	lbu	a4,0(a4)
   21c64:	00e78023          	sb	a4,0(a5)
   21c68:	fd842703          	lw	a4,-40(s0)
   21c6c:	fec42783          	lw	a5,-20(s0)
   21c70:	fcf71ce3          	bne	a4,a5,21c48 <ee_bufcpy+0x2c>
   21c74:	00000013          	nop
   21c78:	00000013          	nop
   21c7c:	02c12403          	lw	s0,44(sp)
   21c80:	03010113          	addi	sp,sp,48
   21c84:	00008067          	ret

00021c88 <parse_float>:
parse_float():
   21c88:	f6010113          	addi	sp,sp,-160
   21c8c:	08112e23          	sw	ra,156(sp)
   21c90:	08812c23          	sw	s0,152(sp)
   21c94:	0a010413          	addi	s0,sp,160
   21c98:	f6a42c23          	sw	a0,-136(s0)
   21c9c:	f6b42e23          	sw	a1,-132(s0)
   21ca0:	f6c42a23          	sw	a2,-140(s0)
   21ca4:	00068793          	mv	a5,a3
   21ca8:	f6e42623          	sw	a4,-148(s0)
   21cac:	f6f409a3          	sb	a5,-141(s0)
   21cb0:	fe042223          	sw	zero,-28(s0)
   21cb4:	fe042023          	sw	zero,-32(s0)
   21cb8:	f7344703          	lbu	a4,-141(s0)
   21cbc:	04700793          	li	a5,71
   21cc0:	00f70863          	beq	a4,a5,21cd0 <parse_float+0x48>
   21cc4:	f7344703          	lbu	a4,-141(s0)
   21cc8:	04500793          	li	a5,69
   21ccc:	00f71c63          	bne	a4,a5,21ce4 <parse_float+0x5c>
   21cd0:	00100793          	li	a5,1
   21cd4:	fef42023          	sw	a5,-32(s0)
   21cd8:	f7344783          	lbu	a5,-141(s0)
   21cdc:	02078793          	addi	a5,a5,32
   21ce0:	f6f409a3          	sb	a5,-141(s0)
   21ce4:	f7344703          	lbu	a4,-141(s0)
   21ce8:	06700793          	li	a5,103
   21cec:	06f71c63          	bne	a4,a5,21d64 <parse_float+0xdc>
   21cf0:	f8440793          	addi	a5,s0,-124
   21cf4:	fd440713          	addi	a4,s0,-44
   21cf8:	fd840693          	addi	a3,s0,-40
   21cfc:	f6c42603          	lw	a2,-148(s0)
   21d00:	f7842503          	lw	a0,-136(s0)
   21d04:	f7c42583          	lw	a1,-132(s0)
   21d08:	63c010ef          	jal	ra,23344 <ecvtbuf>
   21d0c:	fea42223          	sw	a0,-28(s0)
   21d10:	fd842783          	lw	a5,-40(s0)
   21d14:	fff78793          	addi	a5,a5,-1
   21d18:	fcf42e23          	sw	a5,-36(s0)
   21d1c:	fdc42703          	lw	a4,-36(s0)
   21d20:	ffc00793          	li	a5,-4
   21d24:	00f74863          	blt	a4,a5,21d34 <parse_float+0xac>
   21d28:	f6c42703          	lw	a4,-148(s0)
   21d2c:	fdc42783          	lw	a5,-36(s0)
   21d30:	00e7ce63          	blt	a5,a4,21d4c <parse_float+0xc4>
   21d34:	06500793          	li	a5,101
   21d38:	f6f409a3          	sb	a5,-141(s0)
   21d3c:	f6c42783          	lw	a5,-148(s0)
   21d40:	fff78793          	addi	a5,a5,-1
   21d44:	f6f42623          	sw	a5,-148(s0)
   21d48:	01c0006f          	j	21d64 <parse_float+0xdc>
   21d4c:	06600793          	li	a5,102
   21d50:	f6f409a3          	sb	a5,-141(s0)
   21d54:	fd842783          	lw	a5,-40(s0)
   21d58:	f6c42703          	lw	a4,-148(s0)
   21d5c:	40f707b3          	sub	a5,a4,a5
   21d60:	f6f42623          	sw	a5,-148(s0)
   21d64:	f7344703          	lbu	a4,-141(s0)
   21d68:	06500793          	li	a5,101
   21d6c:	1ef71063          	bne	a4,a5,21f4c <parse_float+0x2c4>
   21d70:	f6c42783          	lw	a5,-148(s0)
   21d74:	00178613          	addi	a2,a5,1
   21d78:	f8440793          	addi	a5,s0,-124
   21d7c:	fd440713          	addi	a4,s0,-44
   21d80:	fd840693          	addi	a3,s0,-40
   21d84:	f7842503          	lw	a0,-136(s0)
   21d88:	f7c42583          	lw	a1,-132(s0)
   21d8c:	5b8010ef          	jal	ra,23344 <ecvtbuf>
   21d90:	fea42223          	sw	a0,-28(s0)
   21d94:	fd442783          	lw	a5,-44(s0)
   21d98:	00078c63          	beqz	a5,21db0 <parse_float+0x128>
   21d9c:	f7442783          	lw	a5,-140(s0)
   21da0:	00178713          	addi	a4,a5,1
   21da4:	f6e42a23          	sw	a4,-140(s0)
   21da8:	02d00713          	li	a4,45
   21dac:	00e78023          	sb	a4,0(a5)
   21db0:	f7442783          	lw	a5,-140(s0)
   21db4:	00178713          	addi	a4,a5,1
   21db8:	f6e42a23          	sw	a4,-140(s0)
   21dbc:	fe442703          	lw	a4,-28(s0)
   21dc0:	00074703          	lbu	a4,0(a4)
   21dc4:	00e78023          	sb	a4,0(a5)
   21dc8:	f6c42783          	lw	a5,-148(s0)
   21dcc:	00f05c63          	blez	a5,21de4 <parse_float+0x15c>
   21dd0:	f7442783          	lw	a5,-140(s0)
   21dd4:	00178713          	addi	a4,a5,1
   21dd8:	f6e42a23          	sw	a4,-140(s0)
   21ddc:	02e00713          	li	a4,46
   21de0:	00e78023          	sb	a4,0(a5)
   21de4:	fe442783          	lw	a5,-28(s0)
   21de8:	00178793          	addi	a5,a5,1
   21dec:	f6c42603          	lw	a2,-148(s0)
   21df0:	00078593          	mv	a1,a5
   21df4:	f7442503          	lw	a0,-140(s0)
   21df8:	e25ff0ef          	jal	ra,21c1c <ee_bufcpy>
   21dfc:	f6c42783          	lw	a5,-148(s0)
   21e00:	f7442703          	lw	a4,-140(s0)
   21e04:	00f707b3          	add	a5,a4,a5
   21e08:	f6f42a23          	sw	a5,-140(s0)
   21e0c:	fe042783          	lw	a5,-32(s0)
   21e10:	00078663          	beqz	a5,21e1c <parse_float+0x194>
   21e14:	04500713          	li	a4,69
   21e18:	0080006f          	j	21e20 <parse_float+0x198>
   21e1c:	06500713          	li	a4,101
   21e20:	f7442783          	lw	a5,-140(s0)
   21e24:	00178693          	addi	a3,a5,1
   21e28:	f6d42a23          	sw	a3,-140(s0)
   21e2c:	00e78023          	sb	a4,0(a5)
   21e30:	fd842783          	lw	a5,-40(s0)
   21e34:	02079a63          	bnez	a5,21e68 <parse_float+0x1e0>
   21e38:	00000613          	li	a2,0
   21e3c:	00000693          	li	a3,0
   21e40:	f7842503          	lw	a0,-136(s0)
   21e44:	f7c42583          	lw	a1,-132(s0)
   21e48:	7ed020ef          	jal	ra,24e34 <__eqdf2>
   21e4c:	00050793          	mv	a5,a0
   21e50:	00079663          	bnez	a5,21e5c <parse_float+0x1d4>
   21e54:	fe042623          	sw	zero,-20(s0)
   21e58:	01c0006f          	j	21e74 <parse_float+0x1ec>
   21e5c:	fff00793          	li	a5,-1
   21e60:	fef42623          	sw	a5,-20(s0)
   21e64:	0100006f          	j	21e74 <parse_float+0x1ec>
   21e68:	fd842783          	lw	a5,-40(s0)
   21e6c:	fff78793          	addi	a5,a5,-1
   21e70:	fef42623          	sw	a5,-20(s0)
   21e74:	fec42783          	lw	a5,-20(s0)
   21e78:	0207d463          	bgez	a5,21ea0 <parse_float+0x218>
   21e7c:	f7442783          	lw	a5,-140(s0)
   21e80:	00178713          	addi	a4,a5,1
   21e84:	f6e42a23          	sw	a4,-140(s0)
   21e88:	02d00713          	li	a4,45
   21e8c:	00e78023          	sb	a4,0(a5)
   21e90:	fec42783          	lw	a5,-20(s0)
   21e94:	40f007b3          	neg	a5,a5
   21e98:	fef42623          	sw	a5,-20(s0)
   21e9c:	0180006f          	j	21eb4 <parse_float+0x22c>
   21ea0:	f7442783          	lw	a5,-140(s0)
   21ea4:	00178713          	addi	a4,a5,1
   21ea8:	f6e42a23          	sw	a4,-140(s0)
   21eac:	02b00713          	li	a4,43
   21eb0:	00e78023          	sb	a4,0(a5)
   21eb4:	fec42703          	lw	a4,-20(s0)
   21eb8:	00a00793          	li	a5,10
   21ebc:	02f767b3          	rem	a5,a4,a5
   21ec0:	0ff7f713          	andi	a4,a5,255
   21ec4:	f7442783          	lw	a5,-140(s0)
   21ec8:	00278793          	addi	a5,a5,2
   21ecc:	03070713          	addi	a4,a4,48
   21ed0:	0ff77713          	andi	a4,a4,255
   21ed4:	00e78023          	sb	a4,0(a5)
   21ed8:	fec42703          	lw	a4,-20(s0)
   21edc:	00a00793          	li	a5,10
   21ee0:	02f747b3          	div	a5,a4,a5
   21ee4:	fef42623          	sw	a5,-20(s0)
   21ee8:	fec42703          	lw	a4,-20(s0)
   21eec:	00a00793          	li	a5,10
   21ef0:	02f767b3          	rem	a5,a4,a5
   21ef4:	0ff7f713          	andi	a4,a5,255
   21ef8:	f7442783          	lw	a5,-140(s0)
   21efc:	00178793          	addi	a5,a5,1
   21f00:	03070713          	addi	a4,a4,48
   21f04:	0ff77713          	andi	a4,a4,255
   21f08:	00e78023          	sb	a4,0(a5)
   21f0c:	fec42703          	lw	a4,-20(s0)
   21f10:	00a00793          	li	a5,10
   21f14:	02f747b3          	div	a5,a4,a5
   21f18:	fef42623          	sw	a5,-20(s0)
   21f1c:	fec42703          	lw	a4,-20(s0)
   21f20:	00a00793          	li	a5,10
   21f24:	02f767b3          	rem	a5,a4,a5
   21f28:	0ff7f793          	andi	a5,a5,255
   21f2c:	03078793          	addi	a5,a5,48
   21f30:	0ff7f713          	andi	a4,a5,255
   21f34:	f7442783          	lw	a5,-140(s0)
   21f38:	00e78023          	sb	a4,0(a5)
   21f3c:	f7442783          	lw	a5,-140(s0)
   21f40:	00378793          	addi	a5,a5,3
   21f44:	f6f42a23          	sw	a5,-140(s0)
   21f48:	1b80006f          	j	22100 <parse_float+0x478>
   21f4c:	f7344703          	lbu	a4,-141(s0)
   21f50:	06600793          	li	a5,102
   21f54:	1af71663          	bne	a4,a5,22100 <parse_float+0x478>
   21f58:	f8440793          	addi	a5,s0,-124
   21f5c:	fd440713          	addi	a4,s0,-44
   21f60:	fd840693          	addi	a3,s0,-40
   21f64:	f6c42603          	lw	a2,-148(s0)
   21f68:	f7842503          	lw	a0,-136(s0)
   21f6c:	f7c42583          	lw	a1,-132(s0)
   21f70:	494010ef          	jal	ra,23404 <fcvtbuf>
   21f74:	fea42223          	sw	a0,-28(s0)
   21f78:	fd442783          	lw	a5,-44(s0)
   21f7c:	00078c63          	beqz	a5,21f94 <parse_float+0x30c>
   21f80:	f7442783          	lw	a5,-140(s0)
   21f84:	00178713          	addi	a4,a5,1
   21f88:	f6e42a23          	sw	a4,-140(s0)
   21f8c:	02d00713          	li	a4,45
   21f90:	00e78023          	sb	a4,0(a5)
   21f94:	fe442783          	lw	a5,-28(s0)
   21f98:	0007c783          	lbu	a5,0(a5)
   21f9c:	10078063          	beqz	a5,2209c <parse_float+0x414>
   21fa0:	fd842783          	lw	a5,-40(s0)
   21fa4:	08f04c63          	bgtz	a5,2203c <parse_float+0x3b4>
   21fa8:	f7442783          	lw	a5,-140(s0)
   21fac:	00178713          	addi	a4,a5,1
   21fb0:	f6e42a23          	sw	a4,-140(s0)
   21fb4:	03000713          	li	a4,48
   21fb8:	00e78023          	sb	a4,0(a5)
   21fbc:	f7442783          	lw	a5,-140(s0)
   21fc0:	00178713          	addi	a4,a5,1
   21fc4:	f6e42a23          	sw	a4,-140(s0)
   21fc8:	02e00713          	li	a4,46
   21fcc:	00e78023          	sb	a4,0(a5)
   21fd0:	fe042423          	sw	zero,-24(s0)
   21fd4:	0240006f          	j	21ff8 <parse_float+0x370>
   21fd8:	f7442783          	lw	a5,-140(s0)
   21fdc:	00178713          	addi	a4,a5,1
   21fe0:	f6e42a23          	sw	a4,-140(s0)
   21fe4:	03000713          	li	a4,48
   21fe8:	00e78023          	sb	a4,0(a5)
   21fec:	fe842783          	lw	a5,-24(s0)
   21ff0:	00178793          	addi	a5,a5,1
   21ff4:	fef42423          	sw	a5,-24(s0)
   21ff8:	fd842783          	lw	a5,-40(s0)
   21ffc:	40f007b3          	neg	a5,a5
   22000:	fe842703          	lw	a4,-24(s0)
   22004:	fcf74ae3          	blt	a4,a5,21fd8 <parse_float+0x350>
   22008:	0240006f          	j	2202c <parse_float+0x3a4>
   2200c:	fe442703          	lw	a4,-28(s0)
   22010:	00170793          	addi	a5,a4,1
   22014:	fef42223          	sw	a5,-28(s0)
   22018:	f7442783          	lw	a5,-140(s0)
   2201c:	00178693          	addi	a3,a5,1
   22020:	f6d42a23          	sw	a3,-140(s0)
   22024:	00074703          	lbu	a4,0(a4)
   22028:	00e78023          	sb	a4,0(a5)
   2202c:	fe442783          	lw	a5,-28(s0)
   22030:	0007c783          	lbu	a5,0(a5)
   22034:	fc079ce3          	bnez	a5,2200c <parse_float+0x384>
   22038:	0c80006f          	j	22100 <parse_float+0x478>
   2203c:	fe042423          	sw	zero,-24(s0)
   22040:	04c0006f          	j	2208c <parse_float+0x404>
   22044:	fe842783          	lw	a5,-24(s0)
   22048:	00178713          	addi	a4,a5,1
   2204c:	fee42423          	sw	a4,-24(s0)
   22050:	fd842703          	lw	a4,-40(s0)
   22054:	00e79c63          	bne	a5,a4,2206c <parse_float+0x3e4>
   22058:	f7442783          	lw	a5,-140(s0)
   2205c:	00178713          	addi	a4,a5,1
   22060:	f6e42a23          	sw	a4,-140(s0)
   22064:	02e00713          	li	a4,46
   22068:	00e78023          	sb	a4,0(a5)
   2206c:	fe442703          	lw	a4,-28(s0)
   22070:	00170793          	addi	a5,a4,1
   22074:	fef42223          	sw	a5,-28(s0)
   22078:	f7442783          	lw	a5,-140(s0)
   2207c:	00178693          	addi	a3,a5,1
   22080:	f6d42a23          	sw	a3,-140(s0)
   22084:	00074703          	lbu	a4,0(a4)
   22088:	00e78023          	sb	a4,0(a5)
   2208c:	fe442783          	lw	a5,-28(s0)
   22090:	0007c783          	lbu	a5,0(a5)
   22094:	fa0798e3          	bnez	a5,22044 <parse_float+0x3bc>
   22098:	0680006f          	j	22100 <parse_float+0x478>
   2209c:	f7442783          	lw	a5,-140(s0)
   220a0:	00178713          	addi	a4,a5,1
   220a4:	f6e42a23          	sw	a4,-140(s0)
   220a8:	03000713          	li	a4,48
   220ac:	00e78023          	sb	a4,0(a5)
   220b0:	f6c42783          	lw	a5,-148(s0)
   220b4:	04f05663          	blez	a5,22100 <parse_float+0x478>
   220b8:	f7442783          	lw	a5,-140(s0)
   220bc:	00178713          	addi	a4,a5,1
   220c0:	f6e42a23          	sw	a4,-140(s0)
   220c4:	02e00713          	li	a4,46
   220c8:	00e78023          	sb	a4,0(a5)
   220cc:	fe042423          	sw	zero,-24(s0)
   220d0:	0240006f          	j	220f4 <parse_float+0x46c>
   220d4:	f7442783          	lw	a5,-140(s0)
   220d8:	00178713          	addi	a4,a5,1
   220dc:	f6e42a23          	sw	a4,-140(s0)
   220e0:	03000713          	li	a4,48
   220e4:	00e78023          	sb	a4,0(a5)
   220e8:	fe842783          	lw	a5,-24(s0)
   220ec:	00178793          	addi	a5,a5,1
   220f0:	fef42423          	sw	a5,-24(s0)
   220f4:	fe842703          	lw	a4,-24(s0)
   220f8:	f6c42783          	lw	a5,-148(s0)
   220fc:	fcf74ce3          	blt	a4,a5,220d4 <parse_float+0x44c>
   22100:	f7442783          	lw	a5,-140(s0)
   22104:	00078023          	sb	zero,0(a5)
   22108:	00000013          	nop
   2210c:	09c12083          	lw	ra,156(sp)
   22110:	09812403          	lw	s0,152(sp)
   22114:	0a010113          	addi	sp,sp,160
   22118:	00008067          	ret

0002211c <decimal_point>:
decimal_point():
   2211c:	fd010113          	addi	sp,sp,-48
   22120:	02112623          	sw	ra,44(sp)
   22124:	02812423          	sw	s0,40(sp)
   22128:	03010413          	addi	s0,sp,48
   2212c:	fca42e23          	sw	a0,-36(s0)
   22130:	0400006f          	j	22170 <decimal_point+0x54>
   22134:	fdc42783          	lw	a5,-36(s0)
   22138:	0007c703          	lbu	a4,0(a5)
   2213c:	02e00793          	li	a5,46
   22140:	0cf70463          	beq	a4,a5,22208 <decimal_point+0xec>
   22144:	fdc42783          	lw	a5,-36(s0)
   22148:	0007c703          	lbu	a4,0(a5)
   2214c:	06500793          	li	a5,101
   22150:	02f70663          	beq	a4,a5,2217c <decimal_point+0x60>
   22154:	fdc42783          	lw	a5,-36(s0)
   22158:	0007c703          	lbu	a4,0(a5)
   2215c:	04500793          	li	a5,69
   22160:	00f70e63          	beq	a4,a5,2217c <decimal_point+0x60>
   22164:	fdc42783          	lw	a5,-36(s0)
   22168:	00178793          	addi	a5,a5,1
   2216c:	fcf42e23          	sw	a5,-36(s0)
   22170:	fdc42783          	lw	a5,-36(s0)
   22174:	0007c783          	lbu	a5,0(a5)
   22178:	fa079ee3          	bnez	a5,22134 <decimal_point+0x18>
   2217c:	fdc42783          	lw	a5,-36(s0)
   22180:	0007c783          	lbu	a5,0(a5)
   22184:	06078263          	beqz	a5,221e8 <decimal_point+0xcc>
   22188:	10000593          	li	a1,256
   2218c:	fdc42503          	lw	a0,-36(s0)
   22190:	5b1010ef          	jal	ra,23f40 <strnlen>
   22194:	00050793          	mv	a5,a0
   22198:	fef42623          	sw	a5,-20(s0)
   2219c:	0340006f          	j	221d0 <decimal_point+0xb4>
   221a0:	fec42783          	lw	a5,-20(s0)
   221a4:	fdc42703          	lw	a4,-36(s0)
   221a8:	00f70733          	add	a4,a4,a5
   221ac:	fec42783          	lw	a5,-20(s0)
   221b0:	00178793          	addi	a5,a5,1
   221b4:	fdc42683          	lw	a3,-36(s0)
   221b8:	00f687b3          	add	a5,a3,a5
   221bc:	00074703          	lbu	a4,0(a4)
   221c0:	00e78023          	sb	a4,0(a5)
   221c4:	fec42783          	lw	a5,-20(s0)
   221c8:	fff78793          	addi	a5,a5,-1
   221cc:	fef42623          	sw	a5,-20(s0)
   221d0:	fec42783          	lw	a5,-20(s0)
   221d4:	fcf046e3          	bgtz	a5,221a0 <decimal_point+0x84>
   221d8:	fdc42783          	lw	a5,-36(s0)
   221dc:	02e00713          	li	a4,46
   221e0:	00e78023          	sb	a4,0(a5)
   221e4:	0280006f          	j	2220c <decimal_point+0xf0>
   221e8:	fdc42783          	lw	a5,-36(s0)
   221ec:	00178713          	addi	a4,a5,1
   221f0:	fce42e23          	sw	a4,-36(s0)
   221f4:	02e00713          	li	a4,46
   221f8:	00e78023          	sb	a4,0(a5)
   221fc:	fdc42783          	lw	a5,-36(s0)
   22200:	00078023          	sb	zero,0(a5)
   22204:	0080006f          	j	2220c <decimal_point+0xf0>
   22208:	00000013          	nop
   2220c:	02c12083          	lw	ra,44(sp)
   22210:	02812403          	lw	s0,40(sp)
   22214:	03010113          	addi	sp,sp,48
   22218:	00008067          	ret

0002221c <cropzeros>:
cropzeros():
   2221c:	fd010113          	addi	sp,sp,-48
   22220:	02812623          	sw	s0,44(sp)
   22224:	03010413          	addi	s0,sp,48
   22228:	fca42e23          	sw	a0,-36(s0)
   2222c:	0100006f          	j	2223c <cropzeros+0x20>
   22230:	fdc42783          	lw	a5,-36(s0)
   22234:	00178793          	addi	a5,a5,1
   22238:	fcf42e23          	sw	a5,-36(s0)
   2223c:	fdc42783          	lw	a5,-36(s0)
   22240:	0007c783          	lbu	a5,0(a5)
   22244:	00078a63          	beqz	a5,22258 <cropzeros+0x3c>
   22248:	fdc42783          	lw	a5,-36(s0)
   2224c:	0007c703          	lbu	a4,0(a5)
   22250:	02e00793          	li	a5,46
   22254:	fcf71ee3          	bne	a4,a5,22230 <cropzeros+0x14>
   22258:	fdc42783          	lw	a5,-36(s0)
   2225c:	00178713          	addi	a4,a5,1
   22260:	fce42e23          	sw	a4,-36(s0)
   22264:	0007c783          	lbu	a5,0(a5)
   22268:	0a078863          	beqz	a5,22318 <cropzeros+0xfc>
   2226c:	0100006f          	j	2227c <cropzeros+0x60>
   22270:	fdc42783          	lw	a5,-36(s0)
   22274:	00178793          	addi	a5,a5,1
   22278:	fcf42e23          	sw	a5,-36(s0)
   2227c:	fdc42783          	lw	a5,-36(s0)
   22280:	0007c783          	lbu	a5,0(a5)
   22284:	02078263          	beqz	a5,222a8 <cropzeros+0x8c>
   22288:	fdc42783          	lw	a5,-36(s0)
   2228c:	0007c703          	lbu	a4,0(a5)
   22290:	06500793          	li	a5,101
   22294:	00f70a63          	beq	a4,a5,222a8 <cropzeros+0x8c>
   22298:	fdc42783          	lw	a5,-36(s0)
   2229c:	0007c703          	lbu	a4,0(a5)
   222a0:	04500793          	li	a5,69
   222a4:	fcf716e3          	bne	a4,a5,22270 <cropzeros+0x54>
   222a8:	fdc42783          	lw	a5,-36(s0)
   222ac:	fff78713          	addi	a4,a5,-1
   222b0:	fce42e23          	sw	a4,-36(s0)
   222b4:	fef42623          	sw	a5,-20(s0)
   222b8:	0100006f          	j	222c8 <cropzeros+0xac>
   222bc:	fdc42783          	lw	a5,-36(s0)
   222c0:	fff78793          	addi	a5,a5,-1
   222c4:	fcf42e23          	sw	a5,-36(s0)
   222c8:	fdc42783          	lw	a5,-36(s0)
   222cc:	0007c703          	lbu	a4,0(a5)
   222d0:	03000793          	li	a5,48
   222d4:	fef704e3          	beq	a4,a5,222bc <cropzeros+0xa0>
   222d8:	fdc42783          	lw	a5,-36(s0)
   222dc:	0007c703          	lbu	a4,0(a5)
   222e0:	02e00793          	li	a5,46
   222e4:	02f71463          	bne	a4,a5,2230c <cropzeros+0xf0>
   222e8:	fdc42783          	lw	a5,-36(s0)
   222ec:	fff78793          	addi	a5,a5,-1
   222f0:	fcf42e23          	sw	a5,-36(s0)
   222f4:	0180006f          	j	2230c <cropzeros+0xf0>
   222f8:	fdc42783          	lw	a5,-36(s0)
   222fc:	00178793          	addi	a5,a5,1
   22300:	fcf42e23          	sw	a5,-36(s0)
   22304:	fdc42783          	lw	a5,-36(s0)
   22308:	00078023          	sb	zero,0(a5)
   2230c:	fdc42703          	lw	a4,-36(s0)
   22310:	fec42783          	lw	a5,-20(s0)
   22314:	fef712e3          	bne	a4,a5,222f8 <cropzeros+0xdc>
   22318:	00000013          	nop
   2231c:	02c12403          	lw	s0,44(sp)
   22320:	03010113          	addi	sp,sp,48
   22324:	00008067          	ret

00022328 <flt>:
flt():
   22328:	f7010113          	addi	sp,sp,-144
   2232c:	08112623          	sw	ra,140(sp)
   22330:	08812423          	sw	s0,136(sp)
   22334:	09010413          	addi	s0,sp,144
   22338:	f8a42623          	sw	a0,-116(s0)
   2233c:	f8b42023          	sw	a1,-128(s0)
   22340:	f8c42223          	sw	a2,-124(s0)
   22344:	f8d42423          	sw	a3,-120(s0)
   22348:	f6e42e23          	sw	a4,-132(s0)
   2234c:	f7042a23          	sw	a6,-140(s0)
   22350:	f6f40da3          	sb	a5,-133(s0)
   22354:	f7442783          	lw	a5,-140(s0)
   22358:	0107f793          	andi	a5,a5,16
   2235c:	00078863          	beqz	a5,2236c <flt+0x44>
   22360:	f7442783          	lw	a5,-140(s0)
   22364:	ffe7f793          	andi	a5,a5,-2
   22368:	f6f42a23          	sw	a5,-140(s0)
   2236c:	f7442783          	lw	a5,-140(s0)
   22370:	0017f793          	andi	a5,a5,1
   22374:	00078663          	beqz	a5,22380 <flt+0x58>
   22378:	03000793          	li	a5,48
   2237c:	0080006f          	j	22384 <flt+0x5c>
   22380:	02000793          	li	a5,32
   22384:	fef403a3          	sb	a5,-25(s0)
   22388:	fe0407a3          	sb	zero,-17(s0)
   2238c:	f7442783          	lw	a5,-140(s0)
   22390:	0027f793          	andi	a5,a5,2
   22394:	08078a63          	beqz	a5,22428 <flt+0x100>
   22398:	00000613          	li	a2,0
   2239c:	00000693          	li	a3,0
   223a0:	f8042503          	lw	a0,-128(s0)
   223a4:	f8442583          	lw	a1,-124(s0)
   223a8:	3fd020ef          	jal	ra,24fa4 <__ledf2>
   223ac:	00050793          	mv	a5,a0
   223b0:	0207da63          	bgez	a5,223e4 <flt+0xbc>
   223b4:	02d00793          	li	a5,45
   223b8:	fef407a3          	sb	a5,-17(s0)
   223bc:	f8042783          	lw	a5,-128(s0)
   223c0:	f8f42023          	sw	a5,-128(s0)
   223c4:	f8442703          	lw	a4,-124(s0)
   223c8:	800007b7          	lui	a5,0x80000
   223cc:	00f747b3          	xor	a5,a4,a5
   223d0:	f8f42223          	sw	a5,-124(s0)
   223d4:	f8842783          	lw	a5,-120(s0)
   223d8:	fff78793          	addi	a5,a5,-1 # 7fffffff <__global_pointer$+0x7ffd84bb>
   223dc:	f8f42423          	sw	a5,-120(s0)
   223e0:	0480006f          	j	22428 <flt+0x100>
   223e4:	f7442783          	lw	a5,-140(s0)
   223e8:	0047f793          	andi	a5,a5,4
   223ec:	00078e63          	beqz	a5,22408 <flt+0xe0>
   223f0:	02b00793          	li	a5,43
   223f4:	fef407a3          	sb	a5,-17(s0)
   223f8:	f8842783          	lw	a5,-120(s0)
   223fc:	fff78793          	addi	a5,a5,-1
   22400:	f8f42423          	sw	a5,-120(s0)
   22404:	0240006f          	j	22428 <flt+0x100>
   22408:	f7442783          	lw	a5,-140(s0)
   2240c:	0087f793          	andi	a5,a5,8
   22410:	00078c63          	beqz	a5,22428 <flt+0x100>
   22414:	02000793          	li	a5,32
   22418:	fef407a3          	sb	a5,-17(s0)
   2241c:	f8842783          	lw	a5,-120(s0)
   22420:	fff78793          	addi	a5,a5,-1
   22424:	f8f42423          	sw	a5,-120(s0)
   22428:	f7c42783          	lw	a5,-132(s0)
   2242c:	0007d663          	bgez	a5,22438 <flt+0x110>
   22430:	00600793          	li	a5,6
   22434:	f6f42e23          	sw	a5,-132(s0)
   22438:	f7b44683          	lbu	a3,-133(s0)
   2243c:	f9040793          	addi	a5,s0,-112
   22440:	f7c42703          	lw	a4,-132(s0)
   22444:	00078613          	mv	a2,a5
   22448:	f8042503          	lw	a0,-128(s0)
   2244c:	f8442583          	lw	a1,-124(s0)
   22450:	839ff0ef          	jal	ra,21c88 <parse_float>
   22454:	f7442783          	lw	a5,-140(s0)
   22458:	0207f793          	andi	a5,a5,32
   2245c:	00078c63          	beqz	a5,22474 <flt+0x14c>
   22460:	f7c42783          	lw	a5,-132(s0)
   22464:	00079863          	bnez	a5,22474 <flt+0x14c>
   22468:	f9040793          	addi	a5,s0,-112
   2246c:	00078513          	mv	a0,a5
   22470:	cadff0ef          	jal	ra,2211c <decimal_point>
   22474:	f7b44703          	lbu	a4,-133(s0)
   22478:	06700793          	li	a5,103
   2247c:	00f71e63          	bne	a4,a5,22498 <flt+0x170>
   22480:	f7442783          	lw	a5,-140(s0)
   22484:	0207f793          	andi	a5,a5,32
   22488:	00079863          	bnez	a5,22498 <flt+0x170>
   2248c:	f9040793          	addi	a5,s0,-112
   22490:	00078513          	mv	a0,a5
   22494:	d89ff0ef          	jal	ra,2221c <cropzeros>
   22498:	f9040793          	addi	a5,s0,-112
   2249c:	10000593          	li	a1,256
   224a0:	00078513          	mv	a0,a5
   224a4:	29d010ef          	jal	ra,23f40 <strnlen>
   224a8:	00050793          	mv	a5,a0
   224ac:	fef42023          	sw	a5,-32(s0)
   224b0:	f8842703          	lw	a4,-120(s0)
   224b4:	fe042783          	lw	a5,-32(s0)
   224b8:	40f707b3          	sub	a5,a4,a5
   224bc:	f8f42423          	sw	a5,-120(s0)
   224c0:	f7442783          	lw	a5,-140(s0)
   224c4:	0117f793          	andi	a5,a5,17
   224c8:	02079663          	bnez	a5,224f4 <flt+0x1cc>
   224cc:	0180006f          	j	224e4 <flt+0x1bc>
   224d0:	f8c42783          	lw	a5,-116(s0)
   224d4:	00178713          	addi	a4,a5,1
   224d8:	f8e42623          	sw	a4,-116(s0)
   224dc:	02000713          	li	a4,32
   224e0:	00e78023          	sb	a4,0(a5)
   224e4:	f8842783          	lw	a5,-120(s0)
   224e8:	fff78713          	addi	a4,a5,-1
   224ec:	f8e42423          	sw	a4,-120(s0)
   224f0:	fef040e3          	bgtz	a5,224d0 <flt+0x1a8>
   224f4:	fef44783          	lbu	a5,-17(s0)
   224f8:	00078c63          	beqz	a5,22510 <flt+0x1e8>
   224fc:	f8c42783          	lw	a5,-116(s0)
   22500:	00178713          	addi	a4,a5,1
   22504:	f8e42623          	sw	a4,-116(s0)
   22508:	fef44703          	lbu	a4,-17(s0)
   2250c:	00e78023          	sb	a4,0(a5)
   22510:	f7442783          	lw	a5,-140(s0)
   22514:	0107f793          	andi	a5,a5,16
   22518:	02079663          	bnez	a5,22544 <flt+0x21c>
   2251c:	0180006f          	j	22534 <flt+0x20c>
   22520:	f8c42783          	lw	a5,-116(s0)
   22524:	00178713          	addi	a4,a5,1
   22528:	f8e42623          	sw	a4,-116(s0)
   2252c:	fe744703          	lbu	a4,-25(s0)
   22530:	00e78023          	sb	a4,0(a5)
   22534:	f8842783          	lw	a5,-120(s0)
   22538:	fff78713          	addi	a4,a5,-1
   2253c:	f8e42423          	sw	a4,-120(s0)
   22540:	fef040e3          	bgtz	a5,22520 <flt+0x1f8>
   22544:	fe042423          	sw	zero,-24(s0)
   22548:	0300006f          	j	22578 <flt+0x250>
   2254c:	f8c42783          	lw	a5,-116(s0)
   22550:	00178713          	addi	a4,a5,1
   22554:	f8e42623          	sw	a4,-116(s0)
   22558:	fe842703          	lw	a4,-24(s0)
   2255c:	ff040693          	addi	a3,s0,-16
   22560:	00e68733          	add	a4,a3,a4
   22564:	fa074703          	lbu	a4,-96(a4)
   22568:	00e78023          	sb	a4,0(a5)
   2256c:	fe842783          	lw	a5,-24(s0)
   22570:	00178793          	addi	a5,a5,1
   22574:	fef42423          	sw	a5,-24(s0)
   22578:	fe842703          	lw	a4,-24(s0)
   2257c:	fe042783          	lw	a5,-32(s0)
   22580:	fcf746e3          	blt	a4,a5,2254c <flt+0x224>
   22584:	0180006f          	j	2259c <flt+0x274>
   22588:	f8c42783          	lw	a5,-116(s0)
   2258c:	00178713          	addi	a4,a5,1
   22590:	f8e42623          	sw	a4,-116(s0)
   22594:	02000713          	li	a4,32
   22598:	00e78023          	sb	a4,0(a5)
   2259c:	f8842783          	lw	a5,-120(s0)
   225a0:	fff78713          	addi	a4,a5,-1
   225a4:	f8e42423          	sw	a4,-120(s0)
   225a8:	fef040e3          	bgtz	a5,22588 <flt+0x260>
   225ac:	f8c42783          	lw	a5,-116(s0)
   225b0:	00078513          	mv	a0,a5
   225b4:	08c12083          	lw	ra,140(sp)
   225b8:	08812403          	lw	s0,136(sp)
   225bc:	09010113          	addi	sp,sp,144
   225c0:	00008067          	ret

000225c4 <ee_vsprintf>:
ee_vsprintf():
   225c4:	fb010113          	addi	sp,sp,-80
   225c8:	04112623          	sw	ra,76(sp)
   225cc:	04812423          	sw	s0,72(sp)
   225d0:	05010413          	addi	s0,sp,80
   225d4:	faa42e23          	sw	a0,-68(s0)
   225d8:	fab42c23          	sw	a1,-72(s0)
   225dc:	fac42a23          	sw	a2,-76(s0)
   225e0:	fbc42783          	lw	a5,-68(s0)
   225e4:	fef42023          	sw	a5,-32(s0)
   225e8:	6180006f          	j	22c00 <ee_vsprintf+0x63c>
   225ec:	fb842783          	lw	a5,-72(s0)
   225f0:	0007c703          	lbu	a4,0(a5)
   225f4:	02500793          	li	a5,37
   225f8:	02f70063          	beq	a4,a5,22618 <ee_vsprintf+0x54>
   225fc:	fb842703          	lw	a4,-72(s0)
   22600:	fe042783          	lw	a5,-32(s0)
   22604:	00178693          	addi	a3,a5,1
   22608:	fed42023          	sw	a3,-32(s0)
   2260c:	00074703          	lbu	a4,0(a4)
   22610:	00e78023          	sb	a4,0(a5)
   22614:	5e00006f          	j	22bf4 <ee_vsprintf+0x630>
   22618:	fc042c23          	sw	zero,-40(s0)
   2261c:	fb842783          	lw	a5,-72(s0)
   22620:	00178793          	addi	a5,a5,1
   22624:	faf42c23          	sw	a5,-72(s0)
   22628:	fb842783          	lw	a5,-72(s0)
   2262c:	0007c783          	lbu	a5,0(a5)
   22630:	fe078793          	addi	a5,a5,-32
   22634:	01000713          	li	a4,16
   22638:	06f76c63          	bltu	a4,a5,226b0 <ee_vsprintf+0xec>
   2263c:	00279713          	slli	a4,a5,0x2
   22640:	00005797          	auipc	a5,0x5
   22644:	98c78793          	addi	a5,a5,-1652 # 26fcc <main+0x420>
   22648:	00f707b3          	add	a5,a4,a5
   2264c:	0007a703          	lw	a4,0(a5)
   22650:	00005797          	auipc	a5,0x5
   22654:	97c78793          	addi	a5,a5,-1668 # 26fcc <main+0x420>
   22658:	00f707b3          	add	a5,a4,a5
   2265c:	00078067          	jr	a5
   22660:	fd842783          	lw	a5,-40(s0)
   22664:	0107e793          	ori	a5,a5,16
   22668:	fcf42c23          	sw	a5,-40(s0)
   2266c:	fb1ff06f          	j	2261c <ee_vsprintf+0x58>
   22670:	fd842783          	lw	a5,-40(s0)
   22674:	0047e793          	ori	a5,a5,4
   22678:	fcf42c23          	sw	a5,-40(s0)
   2267c:	fa1ff06f          	j	2261c <ee_vsprintf+0x58>
   22680:	fd842783          	lw	a5,-40(s0)
   22684:	0087e793          	ori	a5,a5,8
   22688:	fcf42c23          	sw	a5,-40(s0)
   2268c:	f91ff06f          	j	2261c <ee_vsprintf+0x58>
   22690:	fd842783          	lw	a5,-40(s0)
   22694:	0207e793          	ori	a5,a5,32
   22698:	fcf42c23          	sw	a5,-40(s0)
   2269c:	f81ff06f          	j	2261c <ee_vsprintf+0x58>
   226a0:	fd842783          	lw	a5,-40(s0)
   226a4:	0017e793          	ori	a5,a5,1
   226a8:	fcf42c23          	sw	a5,-40(s0)
   226ac:	f71ff06f          	j	2261c <ee_vsprintf+0x58>
   226b0:	fff00793          	li	a5,-1
   226b4:	fcf42a23          	sw	a5,-44(s0)
   226b8:	fb842783          	lw	a5,-72(s0)
   226bc:	0007c703          	lbu	a4,0(a5)
   226c0:	02f00793          	li	a5,47
   226c4:	02e7f463          	bgeu	a5,a4,226ec <ee_vsprintf+0x128>
   226c8:	fb842783          	lw	a5,-72(s0)
   226cc:	0007c703          	lbu	a4,0(a5)
   226d0:	03900793          	li	a5,57
   226d4:	00e7ec63          	bltu	a5,a4,226ec <ee_vsprintf+0x128>
   226d8:	fb840793          	addi	a5,s0,-72
   226dc:	00078513          	mv	a0,a5
   226e0:	9b9fe0ef          	jal	ra,21098 <skip_atoi>
   226e4:	fca42a23          	sw	a0,-44(s0)
   226e8:	0540006f          	j	2273c <ee_vsprintf+0x178>
   226ec:	fb842783          	lw	a5,-72(s0)
   226f0:	0007c703          	lbu	a4,0(a5)
   226f4:	02a00793          	li	a5,42
   226f8:	04f71263          	bne	a4,a5,2273c <ee_vsprintf+0x178>
   226fc:	fb842783          	lw	a5,-72(s0)
   22700:	00178793          	addi	a5,a5,1
   22704:	faf42c23          	sw	a5,-72(s0)
   22708:	fb442783          	lw	a5,-76(s0)
   2270c:	00478713          	addi	a4,a5,4
   22710:	fae42a23          	sw	a4,-76(s0)
   22714:	0007a783          	lw	a5,0(a5)
   22718:	fcf42a23          	sw	a5,-44(s0)
   2271c:	fd442783          	lw	a5,-44(s0)
   22720:	0007de63          	bgez	a5,2273c <ee_vsprintf+0x178>
   22724:	fd442783          	lw	a5,-44(s0)
   22728:	40f007b3          	neg	a5,a5
   2272c:	fcf42a23          	sw	a5,-44(s0)
   22730:	fd842783          	lw	a5,-40(s0)
   22734:	0107e793          	ori	a5,a5,16
   22738:	fcf42c23          	sw	a5,-40(s0)
   2273c:	fff00793          	li	a5,-1
   22740:	fcf42823          	sw	a5,-48(s0)
   22744:	fb842783          	lw	a5,-72(s0)
   22748:	0007c703          	lbu	a4,0(a5)
   2274c:	02e00793          	li	a5,46
   22750:	08f71063          	bne	a4,a5,227d0 <ee_vsprintf+0x20c>
   22754:	fb842783          	lw	a5,-72(s0)
   22758:	00178793          	addi	a5,a5,1
   2275c:	faf42c23          	sw	a5,-72(s0)
   22760:	fb842783          	lw	a5,-72(s0)
   22764:	0007c703          	lbu	a4,0(a5)
   22768:	02f00793          	li	a5,47
   2276c:	02e7f463          	bgeu	a5,a4,22794 <ee_vsprintf+0x1d0>
   22770:	fb842783          	lw	a5,-72(s0)
   22774:	0007c703          	lbu	a4,0(a5)
   22778:	03900793          	li	a5,57
   2277c:	00e7ec63          	bltu	a5,a4,22794 <ee_vsprintf+0x1d0>
   22780:	fb840793          	addi	a5,s0,-72
   22784:	00078513          	mv	a0,a5
   22788:	911fe0ef          	jal	ra,21098 <skip_atoi>
   2278c:	fca42823          	sw	a0,-48(s0)
   22790:	0340006f          	j	227c4 <ee_vsprintf+0x200>
   22794:	fb842783          	lw	a5,-72(s0)
   22798:	0007c703          	lbu	a4,0(a5)
   2279c:	02a00793          	li	a5,42
   227a0:	02f71263          	bne	a4,a5,227c4 <ee_vsprintf+0x200>
   227a4:	fb842783          	lw	a5,-72(s0)
   227a8:	00178793          	addi	a5,a5,1
   227ac:	faf42c23          	sw	a5,-72(s0)
   227b0:	fb442783          	lw	a5,-76(s0)
   227b4:	00478713          	addi	a4,a5,4
   227b8:	fae42a23          	sw	a4,-76(s0)
   227bc:	0007a783          	lw	a5,0(a5)
   227c0:	fcf42823          	sw	a5,-48(s0)
   227c4:	fd042783          	lw	a5,-48(s0)
   227c8:	0007d463          	bgez	a5,227d0 <ee_vsprintf+0x20c>
   227cc:	fc042823          	sw	zero,-48(s0)
   227d0:	fff00793          	li	a5,-1
   227d4:	fcf42623          	sw	a5,-52(s0)
   227d8:	fb842783          	lw	a5,-72(s0)
   227dc:	0007c703          	lbu	a4,0(a5)
   227e0:	06c00793          	li	a5,108
   227e4:	00f70a63          	beq	a4,a5,227f8 <ee_vsprintf+0x234>
   227e8:	fb842783          	lw	a5,-72(s0)
   227ec:	0007c703          	lbu	a4,0(a5)
   227f0:	04c00793          	li	a5,76
   227f4:	00f71e63          	bne	a4,a5,22810 <ee_vsprintf+0x24c>
   227f8:	fb842783          	lw	a5,-72(s0)
   227fc:	0007c783          	lbu	a5,0(a5)
   22800:	fcf42623          	sw	a5,-52(s0)
   22804:	fb842783          	lw	a5,-72(s0)
   22808:	00178793          	addi	a5,a5,1
   2280c:	faf42c23          	sw	a5,-72(s0)
   22810:	00a00793          	li	a5,10
   22814:	fef42223          	sw	a5,-28(s0)
   22818:	fb842783          	lw	a5,-72(s0)
   2281c:	0007c783          	lbu	a5,0(a5)
   22820:	fbf78793          	addi	a5,a5,-65
   22824:	03700713          	li	a4,55
   22828:	2ef76863          	bltu	a4,a5,22b18 <ee_vsprintf+0x554>
   2282c:	00279713          	slli	a4,a5,0x2
   22830:	00004797          	auipc	a5,0x4
   22834:	7e078793          	addi	a5,a5,2016 # 27010 <main+0x464>
   22838:	00f707b3          	add	a5,a4,a5
   2283c:	0007a703          	lw	a4,0(a5)
   22840:	00004797          	auipc	a5,0x4
   22844:	7d078793          	addi	a5,a5,2000 # 27010 <main+0x464>
   22848:	00f707b3          	add	a5,a4,a5
   2284c:	00078067          	jr	a5
   22850:	fd842783          	lw	a5,-40(s0)
   22854:	0107f793          	andi	a5,a5,16
   22858:	02079863          	bnez	a5,22888 <ee_vsprintf+0x2c4>
   2285c:	0180006f          	j	22874 <ee_vsprintf+0x2b0>
   22860:	fe042783          	lw	a5,-32(s0)
   22864:	00178713          	addi	a4,a5,1
   22868:	fee42023          	sw	a4,-32(s0)
   2286c:	02000713          	li	a4,32
   22870:	00e78023          	sb	a4,0(a5)
   22874:	fd442783          	lw	a5,-44(s0)
   22878:	fff78793          	addi	a5,a5,-1
   2287c:	fcf42a23          	sw	a5,-44(s0)
   22880:	fd442783          	lw	a5,-44(s0)
   22884:	fcf04ee3          	bgtz	a5,22860 <ee_vsprintf+0x29c>
   22888:	fb442783          	lw	a5,-76(s0)
   2288c:	00478713          	addi	a4,a5,4
   22890:	fae42a23          	sw	a4,-76(s0)
   22894:	0007a683          	lw	a3,0(a5)
   22898:	fe042783          	lw	a5,-32(s0)
   2289c:	00178713          	addi	a4,a5,1
   228a0:	fee42023          	sw	a4,-32(s0)
   228a4:	0ff6f713          	andi	a4,a3,255
   228a8:	00e78023          	sb	a4,0(a5)
   228ac:	0180006f          	j	228c4 <ee_vsprintf+0x300>
   228b0:	fe042783          	lw	a5,-32(s0)
   228b4:	00178713          	addi	a4,a5,1
   228b8:	fee42023          	sw	a4,-32(s0)
   228bc:	02000713          	li	a4,32
   228c0:	00e78023          	sb	a4,0(a5)
   228c4:	fd442783          	lw	a5,-44(s0)
   228c8:	fff78793          	addi	a5,a5,-1
   228cc:	fcf42a23          	sw	a5,-44(s0)
   228d0:	fd442783          	lw	a5,-44(s0)
   228d4:	fcf04ee3          	bgtz	a5,228b0 <ee_vsprintf+0x2ec>
   228d8:	31c0006f          	j	22bf4 <ee_vsprintf+0x630>
   228dc:	fb442783          	lw	a5,-76(s0)
   228e0:	00478713          	addi	a4,a5,4
   228e4:	fae42a23          	sw	a4,-76(s0)
   228e8:	0007a783          	lw	a5,0(a5)
   228ec:	fcf42e23          	sw	a5,-36(s0)
   228f0:	fdc42783          	lw	a5,-36(s0)
   228f4:	00079863          	bnez	a5,22904 <ee_vsprintf+0x340>
   228f8:	00004797          	auipc	a5,0x4
   228fc:	6cc78793          	addi	a5,a5,1740 # 26fc4 <main+0x418>
   22900:	fcf42e23          	sw	a5,-36(s0)
   22904:	fd042783          	lw	a5,-48(s0)
   22908:	00078593          	mv	a1,a5
   2290c:	fdc42503          	lw	a0,-36(s0)
   22910:	630010ef          	jal	ra,23f40 <strnlen>
   22914:	00050793          	mv	a5,a0
   22918:	fcf42423          	sw	a5,-56(s0)
   2291c:	fd842783          	lw	a5,-40(s0)
   22920:	0107f793          	andi	a5,a5,16
   22924:	02079863          	bnez	a5,22954 <ee_vsprintf+0x390>
   22928:	0180006f          	j	22940 <ee_vsprintf+0x37c>
   2292c:	fe042783          	lw	a5,-32(s0)
   22930:	00178713          	addi	a4,a5,1
   22934:	fee42023          	sw	a4,-32(s0)
   22938:	02000713          	li	a4,32
   2293c:	00e78023          	sb	a4,0(a5)
   22940:	fd442783          	lw	a5,-44(s0)
   22944:	fff78713          	addi	a4,a5,-1
   22948:	fce42a23          	sw	a4,-44(s0)
   2294c:	fc842703          	lw	a4,-56(s0)
   22950:	fcf74ee3          	blt	a4,a5,2292c <ee_vsprintf+0x368>
   22954:	fe042423          	sw	zero,-24(s0)
   22958:	0300006f          	j	22988 <ee_vsprintf+0x3c4>
   2295c:	fdc42703          	lw	a4,-36(s0)
   22960:	00170793          	addi	a5,a4,1
   22964:	fcf42e23          	sw	a5,-36(s0)
   22968:	fe042783          	lw	a5,-32(s0)
   2296c:	00178693          	addi	a3,a5,1
   22970:	fed42023          	sw	a3,-32(s0)
   22974:	00074703          	lbu	a4,0(a4)
   22978:	00e78023          	sb	a4,0(a5)
   2297c:	fe842783          	lw	a5,-24(s0)
   22980:	00178793          	addi	a5,a5,1
   22984:	fef42423          	sw	a5,-24(s0)
   22988:	fe842703          	lw	a4,-24(s0)
   2298c:	fc842783          	lw	a5,-56(s0)
   22990:	fcf746e3          	blt	a4,a5,2295c <ee_vsprintf+0x398>
   22994:	0180006f          	j	229ac <ee_vsprintf+0x3e8>
   22998:	fe042783          	lw	a5,-32(s0)
   2299c:	00178713          	addi	a4,a5,1
   229a0:	fee42023          	sw	a4,-32(s0)
   229a4:	02000713          	li	a4,32
   229a8:	00e78023          	sb	a4,0(a5)
   229ac:	fd442783          	lw	a5,-44(s0)
   229b0:	fff78713          	addi	a4,a5,-1
   229b4:	fce42a23          	sw	a4,-44(s0)
   229b8:	fc842703          	lw	a4,-56(s0)
   229bc:	fcf74ee3          	blt	a4,a5,22998 <ee_vsprintf+0x3d4>
   229c0:	2340006f          	j	22bf4 <ee_vsprintf+0x630>
   229c4:	fd442703          	lw	a4,-44(s0)
   229c8:	fff00793          	li	a5,-1
   229cc:	00f71c63          	bne	a4,a5,229e4 <ee_vsprintf+0x420>
   229d0:	00800793          	li	a5,8
   229d4:	fcf42a23          	sw	a5,-44(s0)
   229d8:	fd842783          	lw	a5,-40(s0)
   229dc:	0017e793          	ori	a5,a5,1
   229e0:	fcf42c23          	sw	a5,-40(s0)
   229e4:	fb442783          	lw	a5,-76(s0)
   229e8:	00478713          	addi	a4,a5,4
   229ec:	fae42a23          	sw	a4,-76(s0)
   229f0:	0007a783          	lw	a5,0(a5)
   229f4:	00078593          	mv	a1,a5
   229f8:	fd842783          	lw	a5,-40(s0)
   229fc:	fd042703          	lw	a4,-48(s0)
   22a00:	fd442683          	lw	a3,-44(s0)
   22a04:	01000613          	li	a2,16
   22a08:	fe042503          	lw	a0,-32(s0)
   22a0c:	a35fe0ef          	jal	ra,21440 <number>
   22a10:	fea42023          	sw	a0,-32(s0)
   22a14:	1e00006f          	j	22bf4 <ee_vsprintf+0x630>
   22a18:	fd842783          	lw	a5,-40(s0)
   22a1c:	0407e793          	ori	a5,a5,64
   22a20:	fcf42c23          	sw	a5,-40(s0)
   22a24:	fcc42703          	lw	a4,-52(s0)
   22a28:	06c00793          	li	a5,108
   22a2c:	02f71a63          	bne	a4,a5,22a60 <ee_vsprintf+0x49c>
   22a30:	fb442783          	lw	a5,-76(s0)
   22a34:	00478713          	addi	a4,a5,4
   22a38:	fae42a23          	sw	a4,-76(s0)
   22a3c:	0007a783          	lw	a5,0(a5)
   22a40:	fd842703          	lw	a4,-40(s0)
   22a44:	fd042683          	lw	a3,-48(s0)
   22a48:	fd442603          	lw	a2,-44(s0)
   22a4c:	00078593          	mv	a1,a5
   22a50:	fe042503          	lw	a0,-32(s0)
   22a54:	d79fe0ef          	jal	ra,217cc <eaddr>
   22a58:	fea42023          	sw	a0,-32(s0)
   22a5c:	1980006f          	j	22bf4 <ee_vsprintf+0x630>
   22a60:	fb442783          	lw	a5,-76(s0)
   22a64:	00478713          	addi	a4,a5,4
   22a68:	fae42a23          	sw	a4,-76(s0)
   22a6c:	0007a783          	lw	a5,0(a5)
   22a70:	fd842703          	lw	a4,-40(s0)
   22a74:	fd042683          	lw	a3,-48(s0)
   22a78:	fd442603          	lw	a2,-44(s0)
   22a7c:	00078593          	mv	a1,a5
   22a80:	fe042503          	lw	a0,-32(s0)
   22a84:	f0dfe0ef          	jal	ra,21990 <iaddr>
   22a88:	fea42023          	sw	a0,-32(s0)
   22a8c:	1680006f          	j	22bf4 <ee_vsprintf+0x630>
   22a90:	00800793          	li	a5,8
   22a94:	fef42223          	sw	a5,-28(s0)
   22a98:	0e00006f          	j	22b78 <ee_vsprintf+0x5b4>
   22a9c:	fd842783          	lw	a5,-40(s0)
   22aa0:	0407e793          	ori	a5,a5,64
   22aa4:	fcf42c23          	sw	a5,-40(s0)
   22aa8:	01000793          	li	a5,16
   22aac:	fef42223          	sw	a5,-28(s0)
   22ab0:	0c80006f          	j	22b78 <ee_vsprintf+0x5b4>
   22ab4:	fd842783          	lw	a5,-40(s0)
   22ab8:	0027e793          	ori	a5,a5,2
   22abc:	fcf42c23          	sw	a5,-40(s0)
   22ac0:	0b40006f          	j	22b74 <ee_vsprintf+0x5b0>
   22ac4:	fb442783          	lw	a5,-76(s0)
   22ac8:	00778793          	addi	a5,a5,7
   22acc:	ff87f793          	andi	a5,a5,-8
   22ad0:	00878713          	addi	a4,a5,8
   22ad4:	fae42a23          	sw	a4,-76(s0)
   22ad8:	0007a503          	lw	a0,0(a5)
   22adc:	0047a583          	lw	a1,4(a5)
   22ae0:	fb842783          	lw	a5,-72(s0)
   22ae4:	0007c703          	lbu	a4,0(a5)
   22ae8:	fd842783          	lw	a5,-40(s0)
   22aec:	0027e793          	ori	a5,a5,2
   22af0:	00078813          	mv	a6,a5
   22af4:	00070793          	mv	a5,a4
   22af8:	fd042703          	lw	a4,-48(s0)
   22afc:	fd442683          	lw	a3,-44(s0)
   22b00:	00058613          	mv	a2,a1
   22b04:	00050593          	mv	a1,a0
   22b08:	fe042503          	lw	a0,-32(s0)
   22b0c:	81dff0ef          	jal	ra,22328 <flt>
   22b10:	fea42023          	sw	a0,-32(s0)
   22b14:	0e00006f          	j	22bf4 <ee_vsprintf+0x630>
   22b18:	fb842783          	lw	a5,-72(s0)
   22b1c:	0007c703          	lbu	a4,0(a5)
   22b20:	02500793          	li	a5,37
   22b24:	00f70c63          	beq	a4,a5,22b3c <ee_vsprintf+0x578>
   22b28:	fe042783          	lw	a5,-32(s0)
   22b2c:	00178713          	addi	a4,a5,1
   22b30:	fee42023          	sw	a4,-32(s0)
   22b34:	02500713          	li	a4,37
   22b38:	00e78023          	sb	a4,0(a5)
   22b3c:	fb842783          	lw	a5,-72(s0)
   22b40:	0007c783          	lbu	a5,0(a5)
   22b44:	02078063          	beqz	a5,22b64 <ee_vsprintf+0x5a0>
   22b48:	fb842703          	lw	a4,-72(s0)
   22b4c:	fe042783          	lw	a5,-32(s0)
   22b50:	00178693          	addi	a3,a5,1
   22b54:	fed42023          	sw	a3,-32(s0)
   22b58:	00074703          	lbu	a4,0(a4)
   22b5c:	00e78023          	sb	a4,0(a5)
   22b60:	0940006f          	j	22bf4 <ee_vsprintf+0x630>
   22b64:	fb842783          	lw	a5,-72(s0)
   22b68:	fff78793          	addi	a5,a5,-1
   22b6c:	faf42c23          	sw	a5,-72(s0)
   22b70:	0840006f          	j	22bf4 <ee_vsprintf+0x630>
   22b74:	00000013          	nop
   22b78:	fcc42703          	lw	a4,-52(s0)
   22b7c:	06c00793          	li	a5,108
   22b80:	00f71e63          	bne	a4,a5,22b9c <ee_vsprintf+0x5d8>
   22b84:	fb442783          	lw	a5,-76(s0)
   22b88:	00478713          	addi	a4,a5,4
   22b8c:	fae42a23          	sw	a4,-76(s0)
   22b90:	0007a783          	lw	a5,0(a5)
   22b94:	fef42623          	sw	a5,-20(s0)
   22b98:	03c0006f          	j	22bd4 <ee_vsprintf+0x610>
   22b9c:	fd842783          	lw	a5,-40(s0)
   22ba0:	0027f793          	andi	a5,a5,2
   22ba4:	00078e63          	beqz	a5,22bc0 <ee_vsprintf+0x5fc>
   22ba8:	fb442783          	lw	a5,-76(s0)
   22bac:	00478713          	addi	a4,a5,4
   22bb0:	fae42a23          	sw	a4,-76(s0)
   22bb4:	0007a783          	lw	a5,0(a5)
   22bb8:	fef42623          	sw	a5,-20(s0)
   22bbc:	0180006f          	j	22bd4 <ee_vsprintf+0x610>
   22bc0:	fb442783          	lw	a5,-76(s0)
   22bc4:	00478713          	addi	a4,a5,4
   22bc8:	fae42a23          	sw	a4,-76(s0)
   22bcc:	0007a783          	lw	a5,0(a5)
   22bd0:	fef42623          	sw	a5,-20(s0)
   22bd4:	fec42583          	lw	a1,-20(s0)
   22bd8:	fd842783          	lw	a5,-40(s0)
   22bdc:	fd042703          	lw	a4,-48(s0)
   22be0:	fd442683          	lw	a3,-44(s0)
   22be4:	fe442603          	lw	a2,-28(s0)
   22be8:	fe042503          	lw	a0,-32(s0)
   22bec:	855fe0ef          	jal	ra,21440 <number>
   22bf0:	fea42023          	sw	a0,-32(s0)
   22bf4:	fb842783          	lw	a5,-72(s0)
   22bf8:	00178793          	addi	a5,a5,1
   22bfc:	faf42c23          	sw	a5,-72(s0)
   22c00:	fb842783          	lw	a5,-72(s0)
   22c04:	0007c783          	lbu	a5,0(a5)
   22c08:	9e0792e3          	bnez	a5,225ec <ee_vsprintf+0x28>
   22c0c:	fe042783          	lw	a5,-32(s0)
   22c10:	00078023          	sb	zero,0(a5)
   22c14:	fe042703          	lw	a4,-32(s0)
   22c18:	fbc42783          	lw	a5,-68(s0)
   22c1c:	40f707b3          	sub	a5,a4,a5
   22c20:	00078513          	mv	a0,a5
   22c24:	04c12083          	lw	ra,76(sp)
   22c28:	04812403          	lw	s0,72(sp)
   22c2c:	05010113          	addi	sp,sp,80
   22c30:	00008067          	ret

00022c34 <puts>:
puts():
   22c34:	fd010113          	addi	sp,sp,-48
   22c38:	02112623          	sw	ra,44(sp)
   22c3c:	02812423          	sw	s0,40(sp)
   22c40:	03010413          	addi	s0,sp,48
   22c44:	fca42e23          	sw	a0,-36(s0)
   22c48:	fe042623          	sw	zero,-20(s0)
   22c4c:	0300006f          	j	22c7c <puts+0x48>
   22c50:	fdc42783          	lw	a5,-36(s0)
   22c54:	00178713          	addi	a4,a5,1
   22c58:	fce42e23          	sw	a4,-36(s0)
   22c5c:	0007c783          	lbu	a5,0(a5)
   22c60:	00078513          	mv	a0,a5
   22c64:	9dcfe0ef          	jal	ra,20e40 <putchar>
   22c68:	00050713          	mv	a4,a0
   22c6c:	fff00793          	li	a5,-1
   22c70:	00f71663          	bne	a4,a5,22c7c <puts+0x48>
   22c74:	fff00793          	li	a5,-1
   22c78:	0300006f          	j	22ca8 <puts+0x74>
   22c7c:	fdc42783          	lw	a5,-36(s0)
   22c80:	0007c783          	lbu	a5,0(a5)
   22c84:	fc0796e3          	bnez	a5,22c50 <puts+0x1c>
   22c88:	00a00513          	li	a0,10
   22c8c:	9b4fe0ef          	jal	ra,20e40 <putchar>
   22c90:	00050713          	mv	a4,a0
   22c94:	fff00793          	li	a5,-1
   22c98:	00f71663          	bne	a4,a5,22ca4 <puts+0x70>
   22c9c:	fff00793          	li	a5,-1
   22ca0:	0080006f          	j	22ca8 <puts+0x74>
   22ca4:	00100793          	li	a5,1
   22ca8:	00078513          	mv	a0,a5
   22cac:	02c12083          	lw	ra,44(sp)
   22cb0:	02812403          	lw	s0,40(sp)
   22cb4:	03010113          	addi	sp,sp,48
   22cb8:	00008067          	ret

00022cbc <printf>:
printf():
   22cbc:	eb010113          	addi	sp,sp,-336
   22cc0:	12112623          	sw	ra,300(sp)
   22cc4:	12812423          	sw	s0,296(sp)
   22cc8:	13010413          	addi	s0,sp,304
   22ccc:	eca42e23          	sw	a0,-292(s0)
   22cd0:	00b42223          	sw	a1,4(s0)
   22cd4:	00c42423          	sw	a2,8(s0)
   22cd8:	00d42623          	sw	a3,12(s0)
   22cdc:	00e42823          	sw	a4,16(s0)
   22ce0:	00f42a23          	sw	a5,20(s0)
   22ce4:	01042c23          	sw	a6,24(s0)
   22ce8:	01142e23          	sw	a7,28(s0)
   22cec:	fe042423          	sw	zero,-24(s0)
   22cf0:	02040793          	addi	a5,s0,32
   22cf4:	ecf42c23          	sw	a5,-296(s0)
   22cf8:	ed842783          	lw	a5,-296(s0)
   22cfc:	fe478793          	addi	a5,a5,-28
   22d00:	eef42223          	sw	a5,-284(s0)
   22d04:	ee442703          	lw	a4,-284(s0)
   22d08:	ee840793          	addi	a5,s0,-280
   22d0c:	00070613          	mv	a2,a4
   22d10:	edc42583          	lw	a1,-292(s0)
   22d14:	00078513          	mv	a0,a5
   22d18:	8adff0ef          	jal	ra,225c4 <ee_vsprintf>
   22d1c:	ee840793          	addi	a5,s0,-280
   22d20:	fef42623          	sw	a5,-20(s0)
   22d24:	0400006f          	j	22d64 <printf+0xa8>
   22d28:	fec42783          	lw	a5,-20(s0)
   22d2c:	0007c783          	lbu	a5,0(a5)
   22d30:	00078513          	mv	a0,a5
   22d34:	90cfe0ef          	jal	ra,20e40 <putchar>
   22d38:	fe842783          	lw	a5,-24(s0)
   22d3c:	00178793          	addi	a5,a5,1
   22d40:	fef42423          	sw	a5,-24(s0)
   22d44:	fec42783          	lw	a5,-20(s0)
   22d48:	00178793          	addi	a5,a5,1
   22d4c:	fef42623          	sw	a5,-20(s0)
   22d50:	fe842703          	lw	a4,-24(s0)
   22d54:	10000793          	li	a5,256
   22d58:	00f71663          	bne	a4,a5,22d64 <printf+0xa8>
   22d5c:	fe842783          	lw	a5,-24(s0)
   22d60:	0140006f          	j	22d74 <printf+0xb8>
   22d64:	fec42783          	lw	a5,-20(s0)
   22d68:	0007c783          	lbu	a5,0(a5)
   22d6c:	fa079ee3          	bnez	a5,22d28 <printf+0x6c>
   22d70:	fe842783          	lw	a5,-24(s0)
   22d74:	00078513          	mv	a0,a5
   22d78:	12c12083          	lw	ra,300(sp)
   22d7c:	12812403          	lw	s0,296(sp)
   22d80:	15010113          	addi	sp,sp,336
   22d84:	00008067          	ret

00022d88 <sprintf>:
sprintf():
   22d88:	fb010113          	addi	sp,sp,-80
   22d8c:	02112623          	sw	ra,44(sp)
   22d90:	02812423          	sw	s0,40(sp)
   22d94:	03010413          	addi	s0,sp,48
   22d98:	fca42e23          	sw	a0,-36(s0)
   22d9c:	fcb42c23          	sw	a1,-40(s0)
   22da0:	00c42423          	sw	a2,8(s0)
   22da4:	00d42623          	sw	a3,12(s0)
   22da8:	00e42823          	sw	a4,16(s0)
   22dac:	00f42a23          	sw	a5,20(s0)
   22db0:	01042c23          	sw	a6,24(s0)
   22db4:	01142e23          	sw	a7,28(s0)
   22db8:	fe042623          	sw	zero,-20(s0)
   22dbc:	02040793          	addi	a5,s0,32
   22dc0:	fcf42a23          	sw	a5,-44(s0)
   22dc4:	fd442783          	lw	a5,-44(s0)
   22dc8:	fe878793          	addi	a5,a5,-24
   22dcc:	fef42423          	sw	a5,-24(s0)
   22dd0:	fe842783          	lw	a5,-24(s0)
   22dd4:	00078613          	mv	a2,a5
   22dd8:	fd842583          	lw	a1,-40(s0)
   22ddc:	fdc42503          	lw	a0,-36(s0)
   22de0:	fe4ff0ef          	jal	ra,225c4 <ee_vsprintf>
   22de4:	fec42783          	lw	a5,-20(s0)
   22de8:	00078513          	mv	a0,a5
   22dec:	02c12083          	lw	ra,44(sp)
   22df0:	02812403          	lw	s0,40(sp)
   22df4:	05010113          	addi	sp,sp,80
   22df8:	00008067          	ret

00022dfc <_sbrk>:
_sbrk():
   22dfc:	fe010113          	addi	sp,sp,-32
   22e00:	00812e23          	sw	s0,28(sp)
   22e04:	02010413          	addi	s0,sp,32
   22e08:	fea42623          	sw	a0,-20(s0)
   22e0c:	fff00793          	li	a5,-1
   22e10:	00078513          	mv	a0,a5
   22e14:	01c12403          	lw	s0,28(sp)
   22e18:	02010113          	addi	sp,sp,32
   22e1c:	00008067          	ret

00022e20 <cvt>:
cvt():
   22e20:	fb010113          	addi	sp,sp,-80
   22e24:	04112623          	sw	ra,76(sp)
   22e28:	04812423          	sw	s0,72(sp)
   22e2c:	05010413          	addi	s0,sp,80
   22e30:	fca42423          	sw	a0,-56(s0)
   22e34:	fcb42623          	sw	a1,-52(s0)
   22e38:	fcc42223          	sw	a2,-60(s0)
   22e3c:	fcd42023          	sw	a3,-64(s0)
   22e40:	fae42e23          	sw	a4,-68(s0)
   22e44:	faf42c23          	sw	a5,-72(s0)
   22e48:	fb042a23          	sw	a6,-76(s0)
   22e4c:	fc442783          	lw	a5,-60(s0)
   22e50:	0007d463          	bgez	a5,22e58 <cvt+0x38>
   22e54:	fc042223          	sw	zero,-60(s0)
   22e58:	fc442703          	lw	a4,-60(s0)
   22e5c:	04e00793          	li	a5,78
   22e60:	00e7d663          	bge	a5,a4,22e6c <cvt+0x4c>
   22e64:	04e00793          	li	a5,78
   22e68:	fcf42223          	sw	a5,-60(s0)
   22e6c:	fe042623          	sw	zero,-20(s0)
   22e70:	fbc42783          	lw	a5,-68(s0)
   22e74:	0007a023          	sw	zero,0(a5)
   22e78:	fb842783          	lw	a5,-72(s0)
   22e7c:	fef42423          	sw	a5,-24(s0)
   22e80:	00000613          	li	a2,0
   22e84:	00000693          	li	a3,0
   22e88:	fc842503          	lw	a0,-56(s0)
   22e8c:	fcc42583          	lw	a1,-52(s0)
   22e90:	114020ef          	jal	ra,24fa4 <__ledf2>
   22e94:	00050793          	mv	a5,a0
   22e98:	0207d463          	bgez	a5,22ec0 <cvt+0xa0>
   22e9c:	fbc42783          	lw	a5,-68(s0)
   22ea0:	00100713          	li	a4,1
   22ea4:	00e7a023          	sw	a4,0(a5)
   22ea8:	fc842783          	lw	a5,-56(s0)
   22eac:	fcf42423          	sw	a5,-56(s0)
   22eb0:	fcc42703          	lw	a4,-52(s0)
   22eb4:	800007b7          	lui	a5,0x80000
   22eb8:	00f747b3          	xor	a5,a4,a5
   22ebc:	fcf42623          	sw	a5,-52(s0)
   22ec0:	fd840793          	addi	a5,s0,-40
   22ec4:	00078613          	mv	a2,a5
   22ec8:	fc842503          	lw	a0,-56(s0)
   22ecc:	fcc42583          	lw	a1,-52(s0)
   22ed0:	5f9000ef          	jal	ra,23cc8 <modf>
   22ed4:	fca42423          	sw	a0,-56(s0)
   22ed8:	fcb42623          	sw	a1,-52(s0)
   22edc:	fb842783          	lw	a5,-72(s0)
   22ee0:	05078793          	addi	a5,a5,80 # 80000050 <__global_pointer$+0x7ffd850c>
   22ee4:	fef42223          	sw	a5,-28(s0)
   22ee8:	fd842703          	lw	a4,-40(s0)
   22eec:	fdc42783          	lw	a5,-36(s0)
   22ef0:	00000613          	li	a2,0
   22ef4:	00000693          	li	a3,0
   22ef8:	00070513          	mv	a0,a4
   22efc:	00078593          	mv	a1,a5
   22f00:	735010ef          	jal	ra,24e34 <__eqdf2>
   22f04:	00050793          	mv	a5,a0
   22f08:	14078863          	beqz	a5,23058 <cvt+0x238>
   22f0c:	fb842783          	lw	a5,-72(s0)
   22f10:	05078793          	addi	a5,a5,80
   22f14:	fef42223          	sw	a5,-28(s0)
   22f18:	0e00006f          	j	22ff8 <cvt+0x1d8>
   22f1c:	fd842703          	lw	a4,-40(s0)
   22f20:	fdc42783          	lw	a5,-36(s0)
   22f24:	00004697          	auipc	a3,0x4
   22f28:	1dc68693          	addi	a3,a3,476 # 27100 <main+0x554>
   22f2c:	0006a603          	lw	a2,0(a3)
   22f30:	0046a683          	lw	a3,4(a3)
   22f34:	00070513          	mv	a0,a4
   22f38:	00078593          	mv	a1,a5
   22f3c:	015010ef          	jal	ra,24750 <__divdf3>
   22f40:	00050713          	mv	a4,a0
   22f44:	00058793          	mv	a5,a1
   22f48:	fd840693          	addi	a3,s0,-40
   22f4c:	00068613          	mv	a2,a3
   22f50:	00070513          	mv	a0,a4
   22f54:	00078593          	mv	a1,a5
   22f58:	571000ef          	jal	ra,23cc8 <modf>
   22f5c:	00050713          	mv	a4,a0
   22f60:	00058793          	mv	a5,a1
   22f64:	fce42823          	sw	a4,-48(s0)
   22f68:	fcf42a23          	sw	a5,-44(s0)
   22f6c:	fd042703          	lw	a4,-48(s0)
   22f70:	fd442783          	lw	a5,-44(s0)
   22f74:	00004697          	auipc	a3,0x4
   22f78:	19468693          	addi	a3,a3,404 # 27108 <main+0x55c>
   22f7c:	0006a603          	lw	a2,0(a3)
   22f80:	0046a683          	lw	a3,4(a3)
   22f84:	00070513          	mv	a0,a4
   22f88:	00078593          	mv	a1,a5
   22f8c:	7ed000ef          	jal	ra,23f78 <__adddf3>
   22f90:	00050713          	mv	a4,a0
   22f94:	00058793          	mv	a5,a1
   22f98:	00070513          	mv	a0,a4
   22f9c:	00078593          	mv	a1,a5
   22fa0:	00004797          	auipc	a5,0x4
   22fa4:	16078793          	addi	a5,a5,352 # 27100 <main+0x554>
   22fa8:	0007a603          	lw	a2,0(a5)
   22fac:	0047a683          	lw	a3,4(a5)
   22fb0:	0d8020ef          	jal	ra,25088 <__muldf3>
   22fb4:	00050713          	mv	a4,a0
   22fb8:	00058793          	mv	a5,a1
   22fbc:	00070513          	mv	a0,a4
   22fc0:	00078593          	mv	a1,a5
   22fc4:	67d020ef          	jal	ra,25e40 <__fixdfsi>
   22fc8:	00050793          	mv	a5,a0
   22fcc:	0ff7f793          	andi	a5,a5,255
   22fd0:	fe442703          	lw	a4,-28(s0)
   22fd4:	fff70713          	addi	a4,a4,-1
   22fd8:	fee42223          	sw	a4,-28(s0)
   22fdc:	03078793          	addi	a5,a5,48
   22fe0:	0ff7f713          	andi	a4,a5,255
   22fe4:	fe442783          	lw	a5,-28(s0)
   22fe8:	00e78023          	sb	a4,0(a5)
   22fec:	fec42783          	lw	a5,-20(s0)
   22ff0:	00178793          	addi	a5,a5,1
   22ff4:	fef42623          	sw	a5,-20(s0)
   22ff8:	fd842703          	lw	a4,-40(s0)
   22ffc:	fdc42783          	lw	a5,-36(s0)
   23000:	00000613          	li	a2,0
   23004:	00000693          	li	a3,0
   23008:	00070513          	mv	a0,a4
   2300c:	00078593          	mv	a1,a5
   23010:	625010ef          	jal	ra,24e34 <__eqdf2>
   23014:	00050793          	mv	a5,a0
   23018:	f00792e3          	bnez	a5,22f1c <cvt+0xfc>
   2301c:	0280006f          	j	23044 <cvt+0x224>
   23020:	fe442703          	lw	a4,-28(s0)
   23024:	00170793          	addi	a5,a4,1
   23028:	fef42223          	sw	a5,-28(s0)
   2302c:	fe842783          	lw	a5,-24(s0)
   23030:	00178693          	addi	a3,a5,1
   23034:	fed42423          	sw	a3,-24(s0)
   23038:	00074703          	lbu	a4,0(a4)
   2303c:	0ff77713          	andi	a4,a4,255
   23040:	00e78023          	sb	a4,0(a5)
   23044:	fb842783          	lw	a5,-72(s0)
   23048:	05078793          	addi	a5,a5,80
   2304c:	fe442703          	lw	a4,-28(s0)
   23050:	fcf768e3          	bltu	a4,a5,23020 <cvt+0x200>
   23054:	0980006f          	j	230ec <cvt+0x2cc>
   23058:	00000613          	li	a2,0
   2305c:	00000693          	li	a3,0
   23060:	fc842503          	lw	a0,-56(s0)
   23064:	fcc42583          	lw	a1,-52(s0)
   23068:	659010ef          	jal	ra,24ec0 <__gedf2>
   2306c:	00050793          	mv	a5,a0
   23070:	06f05e63          	blez	a5,230ec <cvt+0x2cc>
   23074:	0200006f          	j	23094 <cvt+0x274>
   23078:	fd042703          	lw	a4,-48(s0)
   2307c:	fd442783          	lw	a5,-44(s0)
   23080:	fce42423          	sw	a4,-56(s0)
   23084:	fcf42623          	sw	a5,-52(s0)
   23088:	fec42783          	lw	a5,-20(s0)
   2308c:	fff78793          	addi	a5,a5,-1
   23090:	fef42623          	sw	a5,-20(s0)
   23094:	00004797          	auipc	a5,0x4
   23098:	06c78793          	addi	a5,a5,108 # 27100 <main+0x554>
   2309c:	0007a603          	lw	a2,0(a5)
   230a0:	0047a683          	lw	a3,4(a5)
   230a4:	fc842503          	lw	a0,-56(s0)
   230a8:	fcc42583          	lw	a1,-52(s0)
   230ac:	7dd010ef          	jal	ra,25088 <__muldf3>
   230b0:	00050713          	mv	a4,a0
   230b4:	00058793          	mv	a5,a1
   230b8:	fce42823          	sw	a4,-48(s0)
   230bc:	fcf42a23          	sw	a5,-44(s0)
   230c0:	fd042703          	lw	a4,-48(s0)
   230c4:	fd442783          	lw	a5,-44(s0)
   230c8:	00004697          	auipc	a3,0x4
   230cc:	04868693          	addi	a3,a3,72 # 27110 <main+0x564>
   230d0:	0006a603          	lw	a2,0(a3)
   230d4:	0046a683          	lw	a3,4(a3)
   230d8:	00070513          	mv	a0,a4
   230dc:	00078593          	mv	a1,a5
   230e0:	6c5010ef          	jal	ra,24fa4 <__ledf2>
   230e4:	00050793          	mv	a5,a0
   230e8:	f807c8e3          	bltz	a5,23078 <cvt+0x258>
   230ec:	fc442783          	lw	a5,-60(s0)
   230f0:	fb842703          	lw	a4,-72(s0)
   230f4:	00f707b3          	add	a5,a4,a5
   230f8:	fef42223          	sw	a5,-28(s0)
   230fc:	fb442783          	lw	a5,-76(s0)
   23100:	00079a63          	bnez	a5,23114 <cvt+0x2f4>
   23104:	fec42783          	lw	a5,-20(s0)
   23108:	fe442703          	lw	a4,-28(s0)
   2310c:	00f707b3          	add	a5,a4,a5
   23110:	fef42223          	sw	a5,-28(s0)
   23114:	fc042783          	lw	a5,-64(s0)
   23118:	fec42703          	lw	a4,-20(s0)
   2311c:	00e7a023          	sw	a4,0(a5)
   23120:	fe442703          	lw	a4,-28(s0)
   23124:	fb842783          	lw	a5,-72(s0)
   23128:	08f77863          	bgeu	a4,a5,231b8 <cvt+0x398>
   2312c:	fb842783          	lw	a5,-72(s0)
   23130:	00078023          	sb	zero,0(a5)
   23134:	fb842783          	lw	a5,-72(s0)
   23138:	1980006f          	j	232d0 <cvt+0x4b0>
   2313c:	00004797          	auipc	a5,0x4
   23140:	fc478793          	addi	a5,a5,-60 # 27100 <main+0x554>
   23144:	0007a603          	lw	a2,0(a5)
   23148:	0047a683          	lw	a3,4(a5)
   2314c:	fc842503          	lw	a0,-56(s0)
   23150:	fcc42583          	lw	a1,-52(s0)
   23154:	735010ef          	jal	ra,25088 <__muldf3>
   23158:	00050713          	mv	a4,a0
   2315c:	00058793          	mv	a5,a1
   23160:	fce42423          	sw	a4,-56(s0)
   23164:	fcf42623          	sw	a5,-52(s0)
   23168:	fd040793          	addi	a5,s0,-48
   2316c:	00078613          	mv	a2,a5
   23170:	fc842503          	lw	a0,-56(s0)
   23174:	fcc42583          	lw	a1,-52(s0)
   23178:	351000ef          	jal	ra,23cc8 <modf>
   2317c:	fca42423          	sw	a0,-56(s0)
   23180:	fcb42623          	sw	a1,-52(s0)
   23184:	fd042703          	lw	a4,-48(s0)
   23188:	fd442783          	lw	a5,-44(s0)
   2318c:	00070513          	mv	a0,a4
   23190:	00078593          	mv	a1,a5
   23194:	4ad020ef          	jal	ra,25e40 <__fixdfsi>
   23198:	00050793          	mv	a5,a0
   2319c:	0ff7f713          	andi	a4,a5,255
   231a0:	fe842783          	lw	a5,-24(s0)
   231a4:	00178693          	addi	a3,a5,1
   231a8:	fed42423          	sw	a3,-24(s0)
   231ac:	03070713          	addi	a4,a4,48
   231b0:	0ff77713          	andi	a4,a4,255
   231b4:	00e78023          	sb	a4,0(a5)
   231b8:	fe842703          	lw	a4,-24(s0)
   231bc:	fe442783          	lw	a5,-28(s0)
   231c0:	00e7ea63          	bltu	a5,a4,231d4 <cvt+0x3b4>
   231c4:	fb842783          	lw	a5,-72(s0)
   231c8:	05078793          	addi	a5,a5,80
   231cc:	fe842703          	lw	a4,-24(s0)
   231d0:	f6f766e3          	bltu	a4,a5,2313c <cvt+0x31c>
   231d4:	fb842783          	lw	a5,-72(s0)
   231d8:	05078793          	addi	a5,a5,80
   231dc:	fe442703          	lw	a4,-28(s0)
   231e0:	00f76c63          	bltu	a4,a5,231f8 <cvt+0x3d8>
   231e4:	fb842783          	lw	a5,-72(s0)
   231e8:	04f78793          	addi	a5,a5,79
   231ec:	00078023          	sb	zero,0(a5)
   231f0:	fb842783          	lw	a5,-72(s0)
   231f4:	0dc0006f          	j	232d0 <cvt+0x4b0>
   231f8:	fe442783          	lw	a5,-28(s0)
   231fc:	fef42423          	sw	a5,-24(s0)
   23200:	fe442783          	lw	a5,-28(s0)
   23204:	0007c783          	lbu	a5,0(a5)
   23208:	0ff7f793          	andi	a5,a5,255
   2320c:	00578793          	addi	a5,a5,5
   23210:	0ff7f713          	andi	a4,a5,255
   23214:	fe442783          	lw	a5,-28(s0)
   23218:	00e78023          	sb	a4,0(a5)
   2321c:	0940006f          	j	232b0 <cvt+0x490>
   23220:	fe442783          	lw	a5,-28(s0)
   23224:	03000713          	li	a4,48
   23228:	00e78023          	sb	a4,0(a5)
   2322c:	fe442703          	lw	a4,-28(s0)
   23230:	fb842783          	lw	a5,-72(s0)
   23234:	02e7f863          	bgeu	a5,a4,23264 <cvt+0x444>
   23238:	fe442783          	lw	a5,-28(s0)
   2323c:	fff78793          	addi	a5,a5,-1
   23240:	fef42223          	sw	a5,-28(s0)
   23244:	fe442783          	lw	a5,-28(s0)
   23248:	0007c783          	lbu	a5,0(a5)
   2324c:	0ff7f793          	andi	a5,a5,255
   23250:	00178793          	addi	a5,a5,1
   23254:	0ff7f713          	andi	a4,a5,255
   23258:	fe442783          	lw	a5,-28(s0)
   2325c:	00e78023          	sb	a4,0(a5)
   23260:	0500006f          	j	232b0 <cvt+0x490>
   23264:	fe442783          	lw	a5,-28(s0)
   23268:	03100713          	li	a4,49
   2326c:	00e78023          	sb	a4,0(a5)
   23270:	fc042783          	lw	a5,-64(s0)
   23274:	0007a783          	lw	a5,0(a5)
   23278:	00178713          	addi	a4,a5,1
   2327c:	fc042783          	lw	a5,-64(s0)
   23280:	00e7a023          	sw	a4,0(a5)
   23284:	fb442783          	lw	a5,-76(s0)
   23288:	02079463          	bnez	a5,232b0 <cvt+0x490>
   2328c:	fe842703          	lw	a4,-24(s0)
   23290:	fb842783          	lw	a5,-72(s0)
   23294:	00e7f863          	bgeu	a5,a4,232a4 <cvt+0x484>
   23298:	fe842783          	lw	a5,-24(s0)
   2329c:	03000713          	li	a4,48
   232a0:	00e78023          	sb	a4,0(a5)
   232a4:	fe842783          	lw	a5,-24(s0)
   232a8:	00178793          	addi	a5,a5,1
   232ac:	fef42423          	sw	a5,-24(s0)
   232b0:	fe442783          	lw	a5,-28(s0)
   232b4:	0007c783          	lbu	a5,0(a5)
   232b8:	0ff7f713          	andi	a4,a5,255
   232bc:	03900793          	li	a5,57
   232c0:	f6e7e0e3          	bltu	a5,a4,23220 <cvt+0x400>
   232c4:	fe842783          	lw	a5,-24(s0)
   232c8:	00078023          	sb	zero,0(a5)
   232cc:	fb842783          	lw	a5,-72(s0)
   232d0:	00078513          	mv	a0,a5
   232d4:	04c12083          	lw	ra,76(sp)
   232d8:	04812403          	lw	s0,72(sp)
   232dc:	05010113          	addi	sp,sp,80
   232e0:	00008067          	ret

000232e4 <ecvt>:
ecvt():
   232e4:	fd010113          	addi	sp,sp,-48
   232e8:	02112623          	sw	ra,44(sp)
   232ec:	02812423          	sw	s0,40(sp)
   232f0:	03010413          	addi	s0,sp,48
   232f4:	fea42423          	sw	a0,-24(s0)
   232f8:	feb42623          	sw	a1,-20(s0)
   232fc:	fec42223          	sw	a2,-28(s0)
   23300:	fed42023          	sw	a3,-32(s0)
   23304:	fce42e23          	sw	a4,-36(s0)
   23308:	00100813          	li	a6,1
   2330c:	00004797          	auipc	a5,0x4
   23310:	04478793          	addi	a5,a5,68 # 27350 <CVTBUF>
   23314:	fdc42703          	lw	a4,-36(s0)
   23318:	fe042683          	lw	a3,-32(s0)
   2331c:	fe442603          	lw	a2,-28(s0)
   23320:	fe842503          	lw	a0,-24(s0)
   23324:	fec42583          	lw	a1,-20(s0)
   23328:	af9ff0ef          	jal	ra,22e20 <cvt>
   2332c:	00050793          	mv	a5,a0
   23330:	00078513          	mv	a0,a5
   23334:	02c12083          	lw	ra,44(sp)
   23338:	02812403          	lw	s0,40(sp)
   2333c:	03010113          	addi	sp,sp,48
   23340:	00008067          	ret

00023344 <ecvtbuf>:
ecvtbuf():
   23344:	fd010113          	addi	sp,sp,-48
   23348:	02112623          	sw	ra,44(sp)
   2334c:	02812423          	sw	s0,40(sp)
   23350:	03010413          	addi	s0,sp,48
   23354:	fea42423          	sw	a0,-24(s0)
   23358:	feb42623          	sw	a1,-20(s0)
   2335c:	fec42223          	sw	a2,-28(s0)
   23360:	fed42023          	sw	a3,-32(s0)
   23364:	fce42e23          	sw	a4,-36(s0)
   23368:	fcf42c23          	sw	a5,-40(s0)
   2336c:	00100813          	li	a6,1
   23370:	fd842783          	lw	a5,-40(s0)
   23374:	fdc42703          	lw	a4,-36(s0)
   23378:	fe042683          	lw	a3,-32(s0)
   2337c:	fe442603          	lw	a2,-28(s0)
   23380:	fe842503          	lw	a0,-24(s0)
   23384:	fec42583          	lw	a1,-20(s0)
   23388:	a99ff0ef          	jal	ra,22e20 <cvt>
   2338c:	00050793          	mv	a5,a0
   23390:	00078513          	mv	a0,a5
   23394:	02c12083          	lw	ra,44(sp)
   23398:	02812403          	lw	s0,40(sp)
   2339c:	03010113          	addi	sp,sp,48
   233a0:	00008067          	ret

000233a4 <fcvt>:
fcvt():
   233a4:	fd010113          	addi	sp,sp,-48
   233a8:	02112623          	sw	ra,44(sp)
   233ac:	02812423          	sw	s0,40(sp)
   233b0:	03010413          	addi	s0,sp,48
   233b4:	fea42423          	sw	a0,-24(s0)
   233b8:	feb42623          	sw	a1,-20(s0)
   233bc:	fec42223          	sw	a2,-28(s0)
   233c0:	fed42023          	sw	a3,-32(s0)
   233c4:	fce42e23          	sw	a4,-36(s0)
   233c8:	00000813          	li	a6,0
   233cc:	00004797          	auipc	a5,0x4
   233d0:	f8478793          	addi	a5,a5,-124 # 27350 <CVTBUF>
   233d4:	fdc42703          	lw	a4,-36(s0)
   233d8:	fe042683          	lw	a3,-32(s0)
   233dc:	fe442603          	lw	a2,-28(s0)
   233e0:	fe842503          	lw	a0,-24(s0)
   233e4:	fec42583          	lw	a1,-20(s0)
   233e8:	a39ff0ef          	jal	ra,22e20 <cvt>
   233ec:	00050793          	mv	a5,a0
   233f0:	00078513          	mv	a0,a5
   233f4:	02c12083          	lw	ra,44(sp)
   233f8:	02812403          	lw	s0,40(sp)
   233fc:	03010113          	addi	sp,sp,48
   23400:	00008067          	ret

00023404 <fcvtbuf>:
fcvtbuf():
   23404:	fd010113          	addi	sp,sp,-48
   23408:	02112623          	sw	ra,44(sp)
   2340c:	02812423          	sw	s0,40(sp)
   23410:	03010413          	addi	s0,sp,48
   23414:	fea42423          	sw	a0,-24(s0)
   23418:	feb42623          	sw	a1,-20(s0)
   2341c:	fec42223          	sw	a2,-28(s0)
   23420:	fed42023          	sw	a3,-32(s0)
   23424:	fce42e23          	sw	a4,-36(s0)
   23428:	fcf42c23          	sw	a5,-40(s0)
   2342c:	00000813          	li	a6,0
   23430:	fd842783          	lw	a5,-40(s0)
   23434:	fdc42703          	lw	a4,-36(s0)
   23438:	fe042683          	lw	a3,-32(s0)
   2343c:	fe442603          	lw	a2,-28(s0)
   23440:	fe842503          	lw	a0,-24(s0)
   23444:	fec42583          	lw	a1,-20(s0)
   23448:	9d9ff0ef          	jal	ra,22e20 <cvt>
   2344c:	00050793          	mv	a5,a0
   23450:	00078513          	mv	a0,a5
   23454:	02c12083          	lw	ra,44(sp)
   23458:	02812403          	lw	s0,40(sp)
   2345c:	03010113          	addi	sp,sp,48
   23460:	00008067          	ret

00023464 <init_uart>:
init_uart():
   23464:	ff010113          	addi	sp,sp,-16
   23468:	00812623          	sw	s0,12(sp)
   2346c:	01010413          	addi	s0,sp,16
   23470:	100007b7          	lui	a5,0x10000
   23474:	10078793          	addi	a5,a5,256 # 10000100 <__global_pointer$+0xffd85bc>
   23478:	08300713          	li	a4,131
   2347c:	00e7a623          	sw	a4,12(a5)
   23480:	100007b7          	lui	a5,0x10000
   23484:	10078793          	addi	a5,a5,256 # 10000100 <__global_pointer$+0xffd85bc>
   23488:	01500713          	li	a4,21
   2348c:	00e7a023          	sw	a4,0(a5)
   23490:	100007b7          	lui	a5,0x10000
   23494:	10078793          	addi	a5,a5,256 # 10000100 <__global_pointer$+0xffd85bc>
   23498:	0007a223          	sw	zero,4(a5)
   2349c:	100007b7          	lui	a5,0x10000
   234a0:	10078793          	addi	a5,a5,256 # 10000100 <__global_pointer$+0xffd85bc>
   234a4:	00300713          	li	a4,3
   234a8:	00e7a623          	sw	a4,12(a5)
   234ac:	100007b7          	lui	a5,0x10000
   234b0:	10078793          	addi	a5,a5,256 # 10000100 <__global_pointer$+0xffd85bc>
   234b4:	0007a223          	sw	zero,4(a5)
   234b8:	0ff0000f          	fence
   234bc:	00000013          	nop
   234c0:	00c12403          	lw	s0,12(sp)
   234c4:	01010113          	addi	sp,sp,16
   234c8:	00008067          	ret

000234cc <tx_uart>:
tx_uart():
   234cc:	fd010113          	addi	sp,sp,-48
   234d0:	02812623          	sw	s0,44(sp)
   234d4:	03010413          	addi	s0,sp,48
   234d8:	00050793          	mv	a5,a0
   234dc:	fcf40fa3          	sb	a5,-33(s0)
   234e0:	100007b7          	lui	a5,0x10000
   234e4:	10078793          	addi	a5,a5,256 # 10000100 <__global_pointer$+0xffd85bc>
   234e8:	fdf44703          	lbu	a4,-33(s0)
   234ec:	00e7a023          	sw	a4,0(a5)
   234f0:	0ff0000f          	fence
   234f4:	100007b7          	lui	a5,0x10000
   234f8:	10078793          	addi	a5,a5,256 # 10000100 <__global_pointer$+0xffd85bc>
   234fc:	0147a783          	lw	a5,20(a5)
   23500:	fef407a3          	sb	a5,-17(s0)
   23504:	0ff0000f          	fence
   23508:	fef44783          	lbu	a5,-17(s0)
   2350c:	0207f793          	andi	a5,a5,32
   23510:	fef407a3          	sb	a5,-17(s0)
   23514:	fef44703          	lbu	a4,-17(s0)
   23518:	02000793          	li	a5,32
   2351c:	fcf71ce3          	bne	a4,a5,234f4 <tx_uart+0x28>
   23520:	00000013          	nop
   23524:	00000013          	nop
   23528:	02c12403          	lw	s0,44(sp)
   2352c:	03010113          	addi	sp,sp,48
   23530:	00008067          	ret

00023534 <rx_uart>:
rx_uart():
   23534:	fe010113          	addi	sp,sp,-32
   23538:	00812e23          	sw	s0,28(sp)
   2353c:	02010413          	addi	s0,sp,32
   23540:	100007b7          	lui	a5,0x10000
   23544:	10078793          	addi	a5,a5,256 # 10000100 <__global_pointer$+0xffd85bc>
   23548:	0147a783          	lw	a5,20(a5)
   2354c:	fef407a3          	sb	a5,-17(s0)
   23550:	0ff0000f          	fence
   23554:	fef44783          	lbu	a5,-17(s0)
   23558:	0017f793          	andi	a5,a5,1
   2355c:	fe0782e3          	beqz	a5,23540 <rx_uart+0xc>
   23560:	100007b7          	lui	a5,0x10000
   23564:	10078793          	addi	a5,a5,256 # 10000100 <__global_pointer$+0xffd85bc>
   23568:	0007a783          	lw	a5,0(a5)
   2356c:	fef40723          	sb	a5,-18(s0)
   23570:	0ff0000f          	fence
   23574:	fee44783          	lbu	a5,-18(s0)
   23578:	00078513          	mv	a0,a5
   2357c:	01c12403          	lw	s0,28(sp)
   23580:	02010113          	addi	sp,sp,32
   23584:	00008067          	ret

00023588 <get_decimal>:
get_decimal():
   23588:	fb010113          	addi	sp,sp,-80
   2358c:	04112623          	sw	ra,76(sp)
   23590:	04812423          	sw	s0,72(sp)
   23594:	05010413          	addi	s0,sp,80
   23598:	00050793          	mv	a5,a0
   2359c:	faf40fa3          	sb	a5,-65(s0)
   235a0:	fe0401a3          	sb	zero,-29(s0)
   235a4:	fe042423          	sw	zero,-24(s0)
   235a8:	fc042e23          	sw	zero,-36(s0)
   235ac:	00100793          	li	a5,1
   235b0:	fef42223          	sw	a5,-28(s0)
   235b4:	00100793          	li	a5,1
   235b8:	fef407a3          	sb	a5,-17(s0)
   235bc:	0280006f          	j	235e4 <get_decimal+0x5c>
   235c0:	fe442703          	lw	a4,-28(s0)
   235c4:	00070793          	mv	a5,a4
   235c8:	00279793          	slli	a5,a5,0x2
   235cc:	00e787b3          	add	a5,a5,a4
   235d0:	00179793          	slli	a5,a5,0x1
   235d4:	fef42223          	sw	a5,-28(s0)
   235d8:	fef44783          	lbu	a5,-17(s0)
   235dc:	00178793          	addi	a5,a5,1
   235e0:	fef407a3          	sb	a5,-17(s0)
   235e4:	fef44703          	lbu	a4,-17(s0)
   235e8:	fbf44783          	lbu	a5,-65(s0)
   235ec:	fcf76ae3          	bltu	a4,a5,235c0 <get_decimal+0x38>
   235f0:	fe0407a3          	sb	zero,-17(s0)
   235f4:	fef44703          	lbu	a4,-17(s0)
   235f8:	fbf44783          	lbu	a5,-65(s0)
   235fc:	0af77263          	bgeu	a4,a5,236a0 <get_decimal+0x118>
   23600:	f35ff0ef          	jal	ra,23534 <rx_uart>
   23604:	00050793          	mv	a5,a0
   23608:	fef401a3          	sb	a5,-29(s0)
   2360c:	fe344703          	lbu	a4,-29(s0)
   23610:	02f00793          	li	a5,47
   23614:	04e7f263          	bgeu	a5,a4,23658 <get_decimal+0xd0>
   23618:	fe344703          	lbu	a4,-29(s0)
   2361c:	03900793          	li	a5,57
   23620:	02e7ec63          	bltu	a5,a4,23658 <get_decimal+0xd0>
   23624:	fe344783          	lbu	a5,-29(s0)
   23628:	00078513          	mv	a0,a5
   2362c:	ea1ff0ef          	jal	ra,234cc <tx_uart>
   23630:	fef44783          	lbu	a5,-17(s0)
   23634:	ff040713          	addi	a4,s0,-16
   23638:	00f707b3          	add	a5,a4,a5
   2363c:	fe344703          	lbu	a4,-29(s0)
   23640:	fce78e23          	sb	a4,-36(a5)
   23644:	00000013          	nop
   23648:	fef44783          	lbu	a5,-17(s0)
   2364c:	00178793          	addi	a5,a5,1
   23650:	fef407a3          	sb	a5,-17(s0)
   23654:	fa1ff06f          	j	235f4 <get_decimal+0x6c>
   23658:	fe344703          	lbu	a4,-29(s0)
   2365c:	00800793          	li	a5,8
   23660:	faf710e3          	bne	a4,a5,23600 <get_decimal+0x78>
   23664:	fef44783          	lbu	a5,-17(s0)
   23668:	02078863          	beqz	a5,23698 <get_decimal+0x110>
   2366c:	fe344783          	lbu	a5,-29(s0)
   23670:	00078513          	mv	a0,a5
   23674:	e59ff0ef          	jal	ra,234cc <tx_uart>
   23678:	02000513          	li	a0,32
   2367c:	e51ff0ef          	jal	ra,234cc <tx_uart>
   23680:	fe344783          	lbu	a5,-29(s0)
   23684:	00078513          	mv	a0,a5
   23688:	e45ff0ef          	jal	ra,234cc <tx_uart>
   2368c:	fef44783          	lbu	a5,-17(s0)
   23690:	fff78793          	addi	a5,a5,-1
   23694:	fef407a3          	sb	a5,-17(s0)
   23698:	00000013          	nop
   2369c:	f65ff06f          	j	23600 <get_decimal+0x78>
   236a0:	fef44703          	lbu	a4,-17(s0)
   236a4:	fbf44783          	lbu	a5,-65(s0)
   236a8:	f4f716e3          	bne	a4,a5,235f4 <get_decimal+0x6c>
   236ac:	e89ff0ef          	jal	ra,23534 <rx_uart>
   236b0:	00050793          	mv	a5,a0
   236b4:	fef401a3          	sb	a5,-29(s0)
   236b8:	fe344703          	lbu	a4,-29(s0)
   236bc:	00d00793          	li	a5,13
   236c0:	04f70263          	beq	a4,a5,23704 <get_decimal+0x17c>
   236c4:	fe344703          	lbu	a4,-29(s0)
   236c8:	00800793          	li	a5,8
   236cc:	f2f714e3          	bne	a4,a5,235f4 <get_decimal+0x6c>
   236d0:	fe344783          	lbu	a5,-29(s0)
   236d4:	00078513          	mv	a0,a5
   236d8:	df5ff0ef          	jal	ra,234cc <tx_uart>
   236dc:	02000513          	li	a0,32
   236e0:	dedff0ef          	jal	ra,234cc <tx_uart>
   236e4:	fe344783          	lbu	a5,-29(s0)
   236e8:	00078513          	mv	a0,a5
   236ec:	de1ff0ef          	jal	ra,234cc <tx_uart>
   236f0:	fef44783          	lbu	a5,-17(s0)
   236f4:	fff78793          	addi	a5,a5,-1
   236f8:	fef407a3          	sb	a5,-17(s0)
   236fc:	00000013          	nop
   23700:	ef5ff06f          	j	235f4 <get_decimal+0x6c>
   23704:	00000013          	nop
   23708:	fe0407a3          	sb	zero,-17(s0)
   2370c:	0700006f          	j	2377c <get_decimal+0x1f4>
   23710:	fef44783          	lbu	a5,-17(s0)
   23714:	ff040713          	addi	a4,s0,-16
   23718:	00f707b3          	add	a5,a4,a5
   2371c:	fdc7c703          	lbu	a4,-36(a5)
   23720:	fef44783          	lbu	a5,-17(s0)
   23724:	fd070713          	addi	a4,a4,-48
   23728:	0ff77713          	andi	a4,a4,255
   2372c:	ff040693          	addi	a3,s0,-16
   23730:	00f687b3          	add	a5,a3,a5
   23734:	fce78e23          	sb	a4,-36(a5)
   23738:	fef44783          	lbu	a5,-17(s0)
   2373c:	ff040713          	addi	a4,s0,-16
   23740:	00f707b3          	add	a5,a4,a5
   23744:	fdc7c783          	lbu	a5,-36(a5)
   23748:	00078713          	mv	a4,a5
   2374c:	fe442783          	lw	a5,-28(s0)
   23750:	02f707b3          	mul	a5,a4,a5
   23754:	fe842703          	lw	a4,-24(s0)
   23758:	00f707b3          	add	a5,a4,a5
   2375c:	fef42423          	sw	a5,-24(s0)
   23760:	fe442703          	lw	a4,-28(s0)
   23764:	00a00793          	li	a5,10
   23768:	02f757b3          	divu	a5,a4,a5
   2376c:	fef42223          	sw	a5,-28(s0)
   23770:	fef44783          	lbu	a5,-17(s0)
   23774:	00178793          	addi	a5,a5,1
   23778:	fef407a3          	sb	a5,-17(s0)
   2377c:	fef44703          	lbu	a4,-17(s0)
   23780:	fbf44783          	lbu	a5,-65(s0)
   23784:	f8f766e3          	bltu	a4,a5,23710 <get_decimal+0x188>
   23788:	fe842783          	lw	a5,-24(s0)
   2378c:	00078513          	mv	a0,a5
   23790:	04c12083          	lw	ra,76(sp)
   23794:	04812403          	lw	s0,72(sp)
   23798:	05010113          	addi	sp,sp,80
   2379c:	00008067          	ret

000237a0 <get_long_int>:
get_long_int():
   237a0:	fc010113          	addi	sp,sp,-64
   237a4:	02112e23          	sw	ra,60(sp)
   237a8:	02812c23          	sw	s0,56(sp)
   237ac:	04010413          	addi	s0,sp,64
   237b0:	00050793          	mv	a5,a0
   237b4:	fcf407a3          	sb	a5,-49(s0)
   237b8:	fe0403a3          	sb	zero,-25(s0)
   237bc:	fe042423          	sw	zero,-24(s0)
   237c0:	fe0407a3          	sb	zero,-17(s0)
   237c4:	fef44703          	lbu	a4,-17(s0)
   237c8:	fcf44783          	lbu	a5,-49(s0)
   237cc:	08f77c63          	bgeu	a4,a5,23864 <get_long_int+0xc4>
   237d0:	184000ef          	jal	ra,23954 <get_hex>
   237d4:	00050793          	mv	a5,a0
   237d8:	fef403a3          	sb	a5,-25(s0)
   237dc:	fe744703          	lbu	a4,-25(s0)
   237e0:	00800793          	li	a5,8
   237e4:	04f71e63          	bne	a4,a5,23840 <get_long_int+0xa0>
   237e8:	fef44783          	lbu	a5,-17(s0)
   237ec:	0e078c63          	beqz	a5,238e4 <get_long_int+0x144>
   237f0:	fe744783          	lbu	a5,-25(s0)
   237f4:	00078513          	mv	a0,a5
   237f8:	cd5ff0ef          	jal	ra,234cc <tx_uart>
   237fc:	02000513          	li	a0,32
   23800:	ccdff0ef          	jal	ra,234cc <tx_uart>
   23804:	fe744783          	lbu	a5,-25(s0)
   23808:	00078513          	mv	a0,a5
   2380c:	cc1ff0ef          	jal	ra,234cc <tx_uart>
   23810:	fe744783          	lbu	a5,-25(s0)
   23814:	00078513          	mv	a0,a5
   23818:	cb5ff0ef          	jal	ra,234cc <tx_uart>
   2381c:	02000513          	li	a0,32
   23820:	cadff0ef          	jal	ra,234cc <tx_uart>
   23824:	fe744783          	lbu	a5,-25(s0)
   23828:	00078513          	mv	a0,a5
   2382c:	ca1ff0ef          	jal	ra,234cc <tx_uart>
   23830:	fef44783          	lbu	a5,-17(s0)
   23834:	fff78793          	addi	a5,a5,-1
   23838:	fef407a3          	sb	a5,-17(s0)
   2383c:	0a80006f          	j	238e4 <get_long_int+0x144>
   23840:	fef44783          	lbu	a5,-17(s0)
   23844:	ff040713          	addi	a4,s0,-16
   23848:	00f707b3          	add	a5,a4,a5
   2384c:	fe744703          	lbu	a4,-25(s0)
   23850:	fee78223          	sb	a4,-28(a5)
   23854:	fef44783          	lbu	a5,-17(s0)
   23858:	00178793          	addi	a5,a5,1
   2385c:	fef407a3          	sb	a5,-17(s0)
   23860:	f65ff06f          	j	237c4 <get_long_int+0x24>
   23864:	fef44703          	lbu	a4,-17(s0)
   23868:	fcf44783          	lbu	a5,-49(s0)
   2386c:	f4f71ce3          	bne	a4,a5,237c4 <get_long_int+0x24>
   23870:	cc5ff0ef          	jal	ra,23534 <rx_uart>
   23874:	00050793          	mv	a5,a0
   23878:	fef403a3          	sb	a5,-25(s0)
   2387c:	fe744703          	lbu	a4,-25(s0)
   23880:	00d00793          	li	a5,13
   23884:	06f70463          	beq	a4,a5,238ec <get_long_int+0x14c>
   23888:	fe744703          	lbu	a4,-25(s0)
   2388c:	00800793          	li	a5,8
   23890:	f2f71ae3          	bne	a4,a5,237c4 <get_long_int+0x24>
   23894:	fe744783          	lbu	a5,-25(s0)
   23898:	00078513          	mv	a0,a5
   2389c:	c31ff0ef          	jal	ra,234cc <tx_uart>
   238a0:	02000513          	li	a0,32
   238a4:	c29ff0ef          	jal	ra,234cc <tx_uart>
   238a8:	fe744783          	lbu	a5,-25(s0)
   238ac:	00078513          	mv	a0,a5
   238b0:	c1dff0ef          	jal	ra,234cc <tx_uart>
   238b4:	fe744783          	lbu	a5,-25(s0)
   238b8:	00078513          	mv	a0,a5
   238bc:	c11ff0ef          	jal	ra,234cc <tx_uart>
   238c0:	02000513          	li	a0,32
   238c4:	c09ff0ef          	jal	ra,234cc <tx_uart>
   238c8:	fe744783          	lbu	a5,-25(s0)
   238cc:	00078513          	mv	a0,a5
   238d0:	bfdff0ef          	jal	ra,234cc <tx_uart>
   238d4:	fef44783          	lbu	a5,-17(s0)
   238d8:	fff78793          	addi	a5,a5,-1
   238dc:	fef407a3          	sb	a5,-17(s0)
   238e0:	0080006f          	j	238e8 <get_long_int+0x148>
   238e4:	00000013          	nop
   238e8:	eddff06f          	j	237c4 <get_long_int+0x24>
   238ec:	00000013          	nop
   238f0:	fe0407a3          	sb	zero,-17(s0)
   238f4:	03c0006f          	j	23930 <get_long_int+0x190>
   238f8:	fe842783          	lw	a5,-24(s0)
   238fc:	00879793          	slli	a5,a5,0x8
   23900:	fef42423          	sw	a5,-24(s0)
   23904:	fef44783          	lbu	a5,-17(s0)
   23908:	ff040713          	addi	a4,s0,-16
   2390c:	00f707b3          	add	a5,a4,a5
   23910:	fe47c783          	lbu	a5,-28(a5)
   23914:	00078713          	mv	a4,a5
   23918:	fe842783          	lw	a5,-24(s0)
   2391c:	00e7e7b3          	or	a5,a5,a4
   23920:	fef42423          	sw	a5,-24(s0)
   23924:	fef44783          	lbu	a5,-17(s0)
   23928:	00178793          	addi	a5,a5,1
   2392c:	fef407a3          	sb	a5,-17(s0)
   23930:	fef44703          	lbu	a4,-17(s0)
   23934:	fcf44783          	lbu	a5,-49(s0)
   23938:	fcf760e3          	bltu	a4,a5,238f8 <get_long_int+0x158>
   2393c:	fe842783          	lw	a5,-24(s0)
   23940:	00078513          	mv	a0,a5
   23944:	03c12083          	lw	ra,60(sp)
   23948:	03812403          	lw	s0,56(sp)
   2394c:	04010113          	addi	sp,sp,64
   23950:	00008067          	ret

00023954 <get_hex>:
get_hex():
   23954:	fe010113          	addi	sp,sp,-32
   23958:	00112e23          	sw	ra,28(sp)
   2395c:	00812c23          	sw	s0,24(sp)
   23960:	02010413          	addi	s0,sp,32
   23964:	fe0405a3          	sb	zero,-21(s0)
   23968:	00200793          	li	a5,2
   2396c:	fef406a3          	sb	a5,-19(s0)
   23970:	1240006f          	j	23a94 <get_hex+0x140>
   23974:	bc1ff0ef          	jal	ra,23534 <rx_uart>
   23978:	00050793          	mv	a5,a0
   2397c:	fef40623          	sb	a5,-20(s0)
   23980:	fec44703          	lbu	a4,-20(s0)
   23984:	00800793          	li	a5,8
   23988:	04f71463          	bne	a4,a5,239d0 <get_hex+0x7c>
   2398c:	fed44703          	lbu	a4,-19(s0)
   23990:	00100793          	li	a5,1
   23994:	02e7ea63          	bltu	a5,a4,239c8 <get_hex+0x74>
   23998:	fec44783          	lbu	a5,-20(s0)
   2399c:	00078513          	mv	a0,a5
   239a0:	b2dff0ef          	jal	ra,234cc <tx_uart>
   239a4:	02000513          	li	a0,32
   239a8:	b25ff0ef          	jal	ra,234cc <tx_uart>
   239ac:	fec44783          	lbu	a5,-20(s0)
   239b0:	00078513          	mv	a0,a5
   239b4:	b19ff0ef          	jal	ra,234cc <tx_uart>
   239b8:	fed44783          	lbu	a5,-19(s0)
   239bc:	00178793          	addi	a5,a5,1
   239c0:	fef406a3          	sb	a5,-19(s0)
   239c4:	0d00006f          	j	23a94 <get_hex+0x140>
   239c8:	fec44783          	lbu	a5,-20(s0)
   239cc:	0f00006f          	j	23abc <get_hex+0x168>
   239d0:	fec44703          	lbu	a4,-20(s0)
   239d4:	02f00793          	li	a5,47
   239d8:	02e7f663          	bgeu	a5,a4,23a04 <get_hex+0xb0>
   239dc:	fec44703          	lbu	a4,-20(s0)
   239e0:	03900793          	li	a5,57
   239e4:	02e7e063          	bltu	a5,a4,23a04 <get_hex+0xb0>
   239e8:	fec44783          	lbu	a5,-20(s0)
   239ec:	00078513          	mv	a0,a5
   239f0:	addff0ef          	jal	ra,234cc <tx_uart>
   239f4:	fec44783          	lbu	a5,-20(s0)
   239f8:	fd078793          	addi	a5,a5,-48
   239fc:	fef40623          	sb	a5,-20(s0)
   23a00:	0680006f          	j	23a68 <get_hex+0x114>
   23a04:	fec44703          	lbu	a4,-20(s0)
   23a08:	04000793          	li	a5,64
   23a0c:	02e7f663          	bgeu	a5,a4,23a38 <get_hex+0xe4>
   23a10:	fec44703          	lbu	a4,-20(s0)
   23a14:	04600793          	li	a5,70
   23a18:	02e7e063          	bltu	a5,a4,23a38 <get_hex+0xe4>
   23a1c:	fec44783          	lbu	a5,-20(s0)
   23a20:	00078513          	mv	a0,a5
   23a24:	aa9ff0ef          	jal	ra,234cc <tx_uart>
   23a28:	fec44783          	lbu	a5,-20(s0)
   23a2c:	fc978793          	addi	a5,a5,-55
   23a30:	fef40623          	sb	a5,-20(s0)
   23a34:	0340006f          	j	23a68 <get_hex+0x114>
   23a38:	fec44703          	lbu	a4,-20(s0)
   23a3c:	06000793          	li	a5,96
   23a40:	04e7fa63          	bgeu	a5,a4,23a94 <get_hex+0x140>
   23a44:	fec44703          	lbu	a4,-20(s0)
   23a48:	06600793          	li	a5,102
   23a4c:	04e7e463          	bltu	a5,a4,23a94 <get_hex+0x140>
   23a50:	fec44783          	lbu	a5,-20(s0)
   23a54:	00078513          	mv	a0,a5
   23a58:	a75ff0ef          	jal	ra,234cc <tx_uart>
   23a5c:	fec44783          	lbu	a5,-20(s0)
   23a60:	fa978793          	addi	a5,a5,-87
   23a64:	fef40623          	sb	a5,-20(s0)
   23a68:	fed44703          	lbu	a4,-19(s0)
   23a6c:	00200793          	li	a5,2
   23a70:	00f71863          	bne	a4,a5,23a80 <get_hex+0x12c>
   23a74:	fec44783          	lbu	a5,-20(s0)
   23a78:	fef407a3          	sb	a5,-17(s0)
   23a7c:	00c0006f          	j	23a88 <get_hex+0x134>
   23a80:	fec44783          	lbu	a5,-20(s0)
   23a84:	fef40723          	sb	a5,-18(s0)
   23a88:	fed44783          	lbu	a5,-19(s0)
   23a8c:	fff78793          	addi	a5,a5,-1
   23a90:	fef406a3          	sb	a5,-19(s0)
   23a94:	fed44783          	lbu	a5,-19(s0)
   23a98:	ec079ee3          	bnez	a5,23974 <get_hex+0x20>
   23a9c:	fef44783          	lbu	a5,-17(s0)
   23aa0:	00479793          	slli	a5,a5,0x4
   23aa4:	fef405a3          	sb	a5,-21(s0)
   23aa8:	feb44703          	lbu	a4,-21(s0)
   23aac:	fee44783          	lbu	a5,-18(s0)
   23ab0:	00f767b3          	or	a5,a4,a5
   23ab4:	fef405a3          	sb	a5,-21(s0)
   23ab8:	feb44783          	lbu	a5,-21(s0)
   23abc:	00078513          	mv	a0,a5
   23ac0:	01c12083          	lw	ra,28(sp)
   23ac4:	01812403          	lw	s0,24(sp)
   23ac8:	02010113          	addi	sp,sp,32
   23acc:	00008067          	ret

00023ad0 <memcpy>:
memcpy():
   23ad0:	00a5c7b3          	xor	a5,a1,a0
   23ad4:	0037f793          	andi	a5,a5,3
   23ad8:	00c508b3          	add	a7,a0,a2
   23adc:	06079263          	bnez	a5,23b40 <memcpy+0x70>
   23ae0:	00300793          	li	a5,3
   23ae4:	04c7fe63          	bgeu	a5,a2,23b40 <memcpy+0x70>
   23ae8:	00357793          	andi	a5,a0,3
   23aec:	00050713          	mv	a4,a0
   23af0:	06079863          	bnez	a5,23b60 <memcpy+0x90>
   23af4:	ffc8f613          	andi	a2,a7,-4
   23af8:	fe060793          	addi	a5,a2,-32
   23afc:	08f76c63          	bltu	a4,a5,23b94 <memcpy+0xc4>
   23b00:	02c77c63          	bgeu	a4,a2,23b38 <memcpy+0x68>
   23b04:	00058693          	mv	a3,a1
   23b08:	00070793          	mv	a5,a4
   23b0c:	0006a803          	lw	a6,0(a3)
   23b10:	00478793          	addi	a5,a5,4
   23b14:	00468693          	addi	a3,a3,4
   23b18:	ff07ae23          	sw	a6,-4(a5)
   23b1c:	fec7e8e3          	bltu	a5,a2,23b0c <memcpy+0x3c>
   23b20:	fff60793          	addi	a5,a2,-1
   23b24:	40e787b3          	sub	a5,a5,a4
   23b28:	ffc7f793          	andi	a5,a5,-4
   23b2c:	00478793          	addi	a5,a5,4
   23b30:	00f70733          	add	a4,a4,a5
   23b34:	00f585b3          	add	a1,a1,a5
   23b38:	01176863          	bltu	a4,a7,23b48 <memcpy+0x78>
   23b3c:	00008067          	ret
   23b40:	00050713          	mv	a4,a0
   23b44:	ff157ce3          	bgeu	a0,a7,23b3c <memcpy+0x6c>
   23b48:	0005c783          	lbu	a5,0(a1)
   23b4c:	00170713          	addi	a4,a4,1
   23b50:	00158593          	addi	a1,a1,1
   23b54:	fef70fa3          	sb	a5,-1(a4)
   23b58:	ff1768e3          	bltu	a4,a7,23b48 <memcpy+0x78>
   23b5c:	00008067          	ret
   23b60:	0005c683          	lbu	a3,0(a1)
   23b64:	00170713          	addi	a4,a4,1
   23b68:	00377793          	andi	a5,a4,3
   23b6c:	fed70fa3          	sb	a3,-1(a4)
   23b70:	00158593          	addi	a1,a1,1
   23b74:	f80780e3          	beqz	a5,23af4 <memcpy+0x24>
   23b78:	0005c683          	lbu	a3,0(a1)
   23b7c:	00170713          	addi	a4,a4,1
   23b80:	00377793          	andi	a5,a4,3
   23b84:	fed70fa3          	sb	a3,-1(a4)
   23b88:	00158593          	addi	a1,a1,1
   23b8c:	fc079ae3          	bnez	a5,23b60 <memcpy+0x90>
   23b90:	f65ff06f          	j	23af4 <memcpy+0x24>
   23b94:	0045a683          	lw	a3,4(a1)
   23b98:	0005a283          	lw	t0,0(a1)
   23b9c:	0085af83          	lw	t6,8(a1)
   23ba0:	00c5af03          	lw	t5,12(a1)
   23ba4:	0105ae83          	lw	t4,16(a1)
   23ba8:	0145ae03          	lw	t3,20(a1)
   23bac:	0185a303          	lw	t1,24(a1)
   23bb0:	01c5a803          	lw	a6,28(a1)
   23bb4:	00d72223          	sw	a3,4(a4)
   23bb8:	0205a683          	lw	a3,32(a1)
   23bbc:	00572023          	sw	t0,0(a4)
   23bc0:	01f72423          	sw	t6,8(a4)
   23bc4:	01e72623          	sw	t5,12(a4)
   23bc8:	01d72823          	sw	t4,16(a4)
   23bcc:	01c72a23          	sw	t3,20(a4)
   23bd0:	00672c23          	sw	t1,24(a4)
   23bd4:	01072e23          	sw	a6,28(a4)
   23bd8:	02d72023          	sw	a3,32(a4)
   23bdc:	02470713          	addi	a4,a4,36
   23be0:	02458593          	addi	a1,a1,36
   23be4:	faf768e3          	bltu	a4,a5,23b94 <memcpy+0xc4>
   23be8:	f19ff06f          	j	23b00 <memcpy+0x30>

00023bec <memset>:
memset():
   23bec:	00f00313          	li	t1,15
   23bf0:	00050713          	mv	a4,a0
   23bf4:	02c37e63          	bgeu	t1,a2,23c30 <memset+0x44>
   23bf8:	00f77793          	andi	a5,a4,15
   23bfc:	0a079063          	bnez	a5,23c9c <memset+0xb0>
   23c00:	08059263          	bnez	a1,23c84 <memset+0x98>
   23c04:	ff067693          	andi	a3,a2,-16
   23c08:	00f67613          	andi	a2,a2,15
   23c0c:	00e686b3          	add	a3,a3,a4
   23c10:	00b72023          	sw	a1,0(a4)
   23c14:	00b72223          	sw	a1,4(a4)
   23c18:	00b72423          	sw	a1,8(a4)
   23c1c:	00b72623          	sw	a1,12(a4)
   23c20:	01070713          	addi	a4,a4,16
   23c24:	fed766e3          	bltu	a4,a3,23c10 <memset+0x24>
   23c28:	00061463          	bnez	a2,23c30 <memset+0x44>
   23c2c:	00008067          	ret
   23c30:	40c306b3          	sub	a3,t1,a2
   23c34:	00269693          	slli	a3,a3,0x2
   23c38:	00000297          	auipc	t0,0x0
   23c3c:	005686b3          	add	a3,a3,t0
   23c40:	00c68067          	jr	12(a3)
   23c44:	00b70723          	sb	a1,14(a4)
   23c48:	00b706a3          	sb	a1,13(a4)
   23c4c:	00b70623          	sb	a1,12(a4)
   23c50:	00b705a3          	sb	a1,11(a4)
   23c54:	00b70523          	sb	a1,10(a4)
   23c58:	00b704a3          	sb	a1,9(a4)
   23c5c:	00b70423          	sb	a1,8(a4)
   23c60:	00b703a3          	sb	a1,7(a4)
   23c64:	00b70323          	sb	a1,6(a4)
   23c68:	00b702a3          	sb	a1,5(a4)
   23c6c:	00b70223          	sb	a1,4(a4)
   23c70:	00b701a3          	sb	a1,3(a4)
   23c74:	00b70123          	sb	a1,2(a4)
   23c78:	00b700a3          	sb	a1,1(a4)
   23c7c:	00b70023          	sb	a1,0(a4)
   23c80:	00008067          	ret
   23c84:	0ff5f593          	andi	a1,a1,255
   23c88:	00859693          	slli	a3,a1,0x8
   23c8c:	00d5e5b3          	or	a1,a1,a3
   23c90:	01059693          	slli	a3,a1,0x10
   23c94:	00d5e5b3          	or	a1,a1,a3
   23c98:	f6dff06f          	j	23c04 <memset+0x18>
   23c9c:	00279693          	slli	a3,a5,0x2
   23ca0:	00000297          	auipc	t0,0x0
   23ca4:	005686b3          	add	a3,a3,t0
   23ca8:	00008293          	mv	t0,ra
   23cac:	fa0680e7          	jalr	-96(a3)
   23cb0:	00028093          	mv	ra,t0
   23cb4:	ff078793          	addi	a5,a5,-16
   23cb8:	40f70733          	sub	a4,a4,a5
   23cbc:	00f60633          	add	a2,a2,a5
   23cc0:	f6c378e3          	bgeu	t1,a2,23c30 <memset+0x44>
   23cc4:	f3dff06f          	j	23c00 <memset+0x14>

00023cc8 <modf>:
modf():
   23cc8:	4145d693          	srai	a3,a1,0x14
   23ccc:	ff010113          	addi	sp,sp,-16
   23cd0:	7ff6f693          	andi	a3,a3,2047
   23cd4:	00112623          	sw	ra,12(sp)
   23cd8:	c0168813          	addi	a6,a3,-1023
   23cdc:	01300893          	li	a7,19
   23ce0:	00058793          	mv	a5,a1
   23ce4:	00050713          	mv	a4,a0
   23ce8:	0508c863          	blt	a7,a6,23d38 <modf+0x70>
   23cec:	0a084863          	bltz	a6,23d9c <modf+0xd4>
   23cf0:	001006b7          	lui	a3,0x100
   23cf4:	fff68693          	addi	a3,a3,-1 # fffff <__global_pointer$+0xd84bb>
   23cf8:	4106d833          	sra	a6,a3,a6
   23cfc:	00b876b3          	and	a3,a6,a1
   23d00:	00a6e6b3          	or	a3,a3,a0
   23d04:	04069e63          	bnez	a3,23d60 <modf+0x98>
   23d08:	00c12083          	lw	ra,12(sp)
   23d0c:	00070513          	mv	a0,a4
   23d10:	00078593          	mv	a1,a5
   23d14:	80000737          	lui	a4,0x80000
   23d18:	00f777b3          	and	a5,a4,a5
   23d1c:	00a62023          	sw	a0,0(a2)
   23d20:	00b62223          	sw	a1,4(a2)
   23d24:	00000713          	li	a4,0
   23d28:	00070513          	mv	a0,a4
   23d2c:	00078593          	mv	a1,a5
   23d30:	01010113          	addi	sp,sp,16
   23d34:	00008067          	ret
   23d38:	03300893          	li	a7,51
   23d3c:	fd08c6e3          	blt	a7,a6,23d08 <modf+0x40>
   23d40:	fff00813          	li	a6,-1
   23d44:	bed68693          	addi	a3,a3,-1043
   23d48:	00d856b3          	srl	a3,a6,a3
   23d4c:	00a6f833          	and	a6,a3,a0
   23d50:	fa080ce3          	beqz	a6,23d08 <modf+0x40>
   23d54:	fff6c693          	not	a3,a3
   23d58:	00a6f733          	and	a4,a3,a0
   23d5c:	0100006f          	j	23d6c <modf+0xa4>
   23d60:	fff84813          	not	a6,a6
   23d64:	00b877b3          	and	a5,a6,a1
   23d68:	00000713          	li	a4,0
   23d6c:	00e62023          	sw	a4,0(a2)
   23d70:	00f62223          	sw	a5,4(a2)
   23d74:	00078693          	mv	a3,a5
   23d78:	00070613          	mv	a2,a4
   23d7c:	0d9010ef          	jal	ra,25654 <__subdf3>
   23d80:	00c12083          	lw	ra,12(sp)
   23d84:	00050713          	mv	a4,a0
   23d88:	00058793          	mv	a5,a1
   23d8c:	00070513          	mv	a0,a4
   23d90:	00078593          	mv	a1,a5
   23d94:	01010113          	addi	sp,sp,16
   23d98:	00008067          	ret
   23d9c:	00c12083          	lw	ra,12(sp)
   23da0:	800006b7          	lui	a3,0x80000
   23da4:	00b6f6b3          	and	a3,a3,a1
   23da8:	00000513          	li	a0,0
   23dac:	00a62023          	sw	a0,0(a2)
   23db0:	00d62223          	sw	a3,4(a2)
   23db4:	00070513          	mv	a0,a4
   23db8:	00078593          	mv	a1,a5
   23dbc:	01010113          	addi	sp,sp,16
   23dc0:	00008067          	ret

00023dc4 <strcmp>:
strcmp():
   23dc4:	00b56733          	or	a4,a0,a1
   23dc8:	fff00393          	li	t2,-1
   23dcc:	00377713          	andi	a4,a4,3
   23dd0:	10071063          	bnez	a4,23ed0 <strcmp+0x10c>
   23dd4:	7f7f87b7          	lui	a5,0x7f7f8
   23dd8:	f7f78793          	addi	a5,a5,-129 # 7f7f7f7f <__global_pointer$+0x7f7d043b>
   23ddc:	00052603          	lw	a2,0(a0)
   23de0:	0005a683          	lw	a3,0(a1)
   23de4:	00f672b3          	and	t0,a2,a5
   23de8:	00f66333          	or	t1,a2,a5
   23dec:	00f282b3          	add	t0,t0,a5
   23df0:	0062e2b3          	or	t0,t0,t1
   23df4:	10729263          	bne	t0,t2,23ef8 <strcmp+0x134>
   23df8:	08d61663          	bne	a2,a3,23e84 <strcmp+0xc0>
   23dfc:	00452603          	lw	a2,4(a0)
   23e00:	0045a683          	lw	a3,4(a1)
   23e04:	00f672b3          	and	t0,a2,a5
   23e08:	00f66333          	or	t1,a2,a5
   23e0c:	00f282b3          	add	t0,t0,a5
   23e10:	0062e2b3          	or	t0,t0,t1
   23e14:	0c729e63          	bne	t0,t2,23ef0 <strcmp+0x12c>
   23e18:	06d61663          	bne	a2,a3,23e84 <strcmp+0xc0>
   23e1c:	00852603          	lw	a2,8(a0)
   23e20:	0085a683          	lw	a3,8(a1)
   23e24:	00f672b3          	and	t0,a2,a5
   23e28:	00f66333          	or	t1,a2,a5
   23e2c:	00f282b3          	add	t0,t0,a5
   23e30:	0062e2b3          	or	t0,t0,t1
   23e34:	0c729863          	bne	t0,t2,23f04 <strcmp+0x140>
   23e38:	04d61663          	bne	a2,a3,23e84 <strcmp+0xc0>
   23e3c:	00c52603          	lw	a2,12(a0)
   23e40:	00c5a683          	lw	a3,12(a1)
   23e44:	00f672b3          	and	t0,a2,a5
   23e48:	00f66333          	or	t1,a2,a5
   23e4c:	00f282b3          	add	t0,t0,a5
   23e50:	0062e2b3          	or	t0,t0,t1
   23e54:	0c729263          	bne	t0,t2,23f18 <strcmp+0x154>
   23e58:	02d61663          	bne	a2,a3,23e84 <strcmp+0xc0>
   23e5c:	01052603          	lw	a2,16(a0)
   23e60:	0105a683          	lw	a3,16(a1)
   23e64:	00f672b3          	and	t0,a2,a5
   23e68:	00f66333          	or	t1,a2,a5
   23e6c:	00f282b3          	add	t0,t0,a5
   23e70:	0062e2b3          	or	t0,t0,t1
   23e74:	0a729c63          	bne	t0,t2,23f2c <strcmp+0x168>
   23e78:	01450513          	addi	a0,a0,20
   23e7c:	01458593          	addi	a1,a1,20
   23e80:	f4d60ee3          	beq	a2,a3,23ddc <strcmp+0x18>
   23e84:	01061713          	slli	a4,a2,0x10
   23e88:	01069793          	slli	a5,a3,0x10
   23e8c:	00f71e63          	bne	a4,a5,23ea8 <strcmp+0xe4>
   23e90:	01065713          	srli	a4,a2,0x10
   23e94:	0106d793          	srli	a5,a3,0x10
   23e98:	40f70533          	sub	a0,a4,a5
   23e9c:	0ff57593          	andi	a1,a0,255
   23ea0:	02059063          	bnez	a1,23ec0 <strcmp+0xfc>
   23ea4:	00008067          	ret
   23ea8:	01075713          	srli	a4,a4,0x10
   23eac:	0107d793          	srli	a5,a5,0x10
   23eb0:	40f70533          	sub	a0,a4,a5
   23eb4:	0ff57593          	andi	a1,a0,255
   23eb8:	00059463          	bnez	a1,23ec0 <strcmp+0xfc>
   23ebc:	00008067          	ret
   23ec0:	0ff77713          	andi	a4,a4,255
   23ec4:	0ff7f793          	andi	a5,a5,255
   23ec8:	40f70533          	sub	a0,a4,a5
   23ecc:	00008067          	ret
   23ed0:	00054603          	lbu	a2,0(a0)
   23ed4:	0005c683          	lbu	a3,0(a1)
   23ed8:	00150513          	addi	a0,a0,1
   23edc:	00158593          	addi	a1,a1,1
   23ee0:	00d61463          	bne	a2,a3,23ee8 <strcmp+0x124>
   23ee4:	fe0616e3          	bnez	a2,23ed0 <strcmp+0x10c>
   23ee8:	40d60533          	sub	a0,a2,a3
   23eec:	00008067          	ret
   23ef0:	00450513          	addi	a0,a0,4
   23ef4:	00458593          	addi	a1,a1,4
   23ef8:	fcd61ce3          	bne	a2,a3,23ed0 <strcmp+0x10c>
   23efc:	00000513          	li	a0,0
   23f00:	00008067          	ret
   23f04:	00850513          	addi	a0,a0,8
   23f08:	00858593          	addi	a1,a1,8
   23f0c:	fcd612e3          	bne	a2,a3,23ed0 <strcmp+0x10c>
   23f10:	00000513          	li	a0,0
   23f14:	00008067          	ret
   23f18:	00c50513          	addi	a0,a0,12
   23f1c:	00c58593          	addi	a1,a1,12
   23f20:	fad618e3          	bne	a2,a3,23ed0 <strcmp+0x10c>
   23f24:	00000513          	li	a0,0
   23f28:	00008067          	ret
   23f2c:	01050513          	addi	a0,a0,16
   23f30:	01058593          	addi	a1,a1,16
   23f34:	f8d61ee3          	bne	a2,a3,23ed0 <strcmp+0x10c>
   23f38:	00000513          	li	a0,0
   23f3c:	00008067          	ret

00023f40 <strnlen>:
strnlen():
   23f40:	00b506b3          	add	a3,a0,a1
   23f44:	00050793          	mv	a5,a0
   23f48:	00059863          	bnez	a1,23f58 <strnlen+0x18>
   23f4c:	0240006f          	j	23f70 <strnlen+0x30>
   23f50:	00178793          	addi	a5,a5,1
   23f54:	00f68a63          	beq	a3,a5,23f68 <strnlen+0x28>
   23f58:	0007c703          	lbu	a4,0(a5)
   23f5c:	fe071ae3          	bnez	a4,23f50 <strnlen+0x10>
   23f60:	40a78533          	sub	a0,a5,a0
   23f64:	00008067          	ret
   23f68:	40a68533          	sub	a0,a3,a0
   23f6c:	00008067          	ret
   23f70:	00000513          	li	a0,0
   23f74:	00008067          	ret

00023f78 <__adddf3>:
__adddf3():
/home/hdg/Desktop/desktop/toolchain/riscv-gnu-toolchain/build-gcc-newlib-stage2/riscv64-vega-elf/rv32im/ilp32/libgcc/../../../../.././riscv-gcc/libgcc/soft-fp/adddf3.c:44
   23f78:	00100837          	lui	a6,0x100
   23f7c:	fff80813          	addi	a6,a6,-1 # fffff <__global_pointer$+0xd84bb>
/home/hdg/Desktop/desktop/toolchain/riscv-gnu-toolchain/build-gcc-newlib-stage2/riscv64-vega-elf/rv32im/ilp32/libgcc/../../../../.././riscv-gcc/libgcc/soft-fp/adddf3.c:36
   23f80:	fe010113          	addi	sp,sp,-32
/home/hdg/Desktop/desktop/toolchain/riscv-gnu-toolchain/build-gcc-newlib-stage2/riscv64-vega-elf/rv32im/ilp32/libgcc/../../../../.././riscv-gcc/libgcc/soft-fp/adddf3.c:44
   23f84:	00b877b3          	and	a5,a6,a1
   23f88:	0145d713          	srli	a4,a1,0x14
/home/hdg/Desktop/desktop/toolchain/riscv-gnu-toolchain/build-gcc-newlib-stage2/riscv64-vega-elf/rv32im/ilp32/libgcc/../../../../.././riscv-gcc/libgcc/soft-fp/adddf3.c:45
   23f8c:	00d87833          	and	a6,a6,a3
   23f90:	0146d313          	srli	t1,a3,0x14
/home/hdg/Desktop/desktop/toolchain/riscv-gnu-toolchain/build-gcc-newlib-stage2/riscv64-vega-elf/rv32im/ilp32/libgcc/../../../../.././riscv-gcc/libgcc/soft-fp/adddf3.c:36
   23f94:	00812c23          	sw	s0,24(sp)
/home/hdg/Desktop/desktop/toolchain/riscv-gnu-toolchain/build-gcc-newlib-stage2/riscv64-vega-elf/rv32im/ilp32/libgcc/../../../../.././riscv-gcc/libgcc/soft-fp/adddf3.c:44
   23f98:	00379793          	slli	a5,a5,0x3
   23f9c:	7ff77413          	andi	s0,a4,2047
   23fa0:	01d55713          	srli	a4,a0,0x1d
/home/hdg/Desktop/desktop/toolchain/riscv-gnu-toolchain/build-gcc-newlib-stage2/riscv64-vega-elf/rv32im/ilp32/libgcc/../../../../.././riscv-gcc/libgcc/soft-fp/adddf3.c:45
   23fa4:	00381813          	slli	a6,a6,0x3
/home/hdg/Desktop/desktop/toolchain/riscv-gnu-toolchain/build-gcc-newlib-stage2/riscv64-vega-elf/rv32im/ilp32/libgcc/../../../../.././riscv-gcc/libgcc/soft-fp/adddf3.c:36
   23fa8:	00912a23          	sw	s1,20(sp)
/home/hdg/Desktop/desktop/toolchain/riscv-gnu-toolchain/build-gcc-newlib-stage2/riscv64-vega-elf/rv32im/ilp32/libgcc/../../../../.././riscv-gcc/libgcc/soft-fp/adddf3.c:44
   23fac:	00f767b3          	or	a5,a4,a5
   23fb0:	01f5d493          	srli	s1,a1,0x1f
/home/hdg/Desktop/desktop/toolchain/riscv-gnu-toolchain/build-gcc-newlib-stage2/riscv64-vega-elf/rv32im/ilp32/libgcc/../../../../.././riscv-gcc/libgcc/soft-fp/adddf3.c:45
   23fb4:	01d65713          	srli	a4,a2,0x1d
   23fb8:	7ff37313          	andi	t1,t1,2047
/home/hdg/Desktop/desktop/toolchain/riscv-gnu-toolchain/build-gcc-newlib-stage2/riscv64-vega-elf/rv32im/ilp32/libgcc/../../../../.././riscv-gcc/libgcc/soft-fp/adddf3.c:36
   23fbc:	00112e23          	sw	ra,28(sp)
   23fc0:	01212823          	sw	s2,16(sp)
   23fc4:	01312623          	sw	s3,12(sp)
/home/hdg/Desktop/desktop/toolchain/riscv-gnu-toolchain/build-gcc-newlib-stage2/riscv64-vega-elf/rv32im/ilp32/libgcc/../../../../.././riscv-gcc/libgcc/soft-fp/adddf3.c:45
   23fc8:	01f6d693          	srli	a3,a3,0x1f
   23fcc:	01076733          	or	a4,a4,a6
/home/hdg/Desktop/desktop/toolchain/riscv-gnu-toolchain/build-gcc-newlib-stage2/riscv64-vega-elf/rv32im/ilp32/libgcc/../../../../.././riscv-gcc/libgcc/soft-fp/adddf3.c:44
   23fd0:	00351593          	slli	a1,a0,0x3
/home/hdg/Desktop/desktop/toolchain/riscv-gnu-toolchain/build-gcc-newlib-stage2/riscv64-vega-elf/rv32im/ilp32/libgcc/../../../../.././riscv-gcc/libgcc/soft-fp/adddf3.c:45
   23fd4:	00361613          	slli	a2,a2,0x3
/home/hdg/Desktop/desktop/toolchain/riscv-gnu-toolchain/build-gcc-newlib-stage2/riscv64-vega-elf/rv32im/ilp32/libgcc/../../../../.././riscv-gcc/libgcc/soft-fp/adddf3.c:46
   23fd8:	40640833          	sub	a6,s0,t1
   23fdc:	2cd49863          	bne	s1,a3,242ac <__adddf3+0x334>
/home/hdg/Desktop/desktop/toolchain/riscv-gnu-toolchain/build-gcc-newlib-stage2/riscv64-vega-elf/rv32im/ilp32/libgcc/../../../../.././riscv-gcc/libgcc/soft-fp/adddf3.c:46 (discriminator 7)
   23fe0:	13005063          	blez	a6,24100 <__adddf3+0x188>
/home/hdg/Desktop/desktop/toolchain/riscv-gnu-toolchain/build-gcc-newlib-stage2/riscv64-vega-elf/rv32im/ilp32/libgcc/../../../../.././riscv-gcc/libgcc/soft-fp/adddf3.c:46 (discriminator 9)
   23fe4:	04031063          	bnez	t1,24024 <__adddf3+0xac>
/home/hdg/Desktop/desktop/toolchain/riscv-gnu-toolchain/build-gcc-newlib-stage2/riscv64-vega-elf/rv32im/ilp32/libgcc/../../../../.././riscv-gcc/libgcc/soft-fp/adddf3.c:46 (discriminator 11)
   23fe8:	00c766b3          	or	a3,a4,a2
   23fec:	70068c63          	beqz	a3,24704 <__adddf3+0x78c>
/home/hdg/Desktop/desktop/toolchain/riscv-gnu-toolchain/build-gcc-newlib-stage2/riscv64-vega-elf/rv32im/ilp32/libgcc/../../../../.././riscv-gcc/libgcc/soft-fp/adddf3.c:46 (discriminator 14)
   23ff0:	fff80513          	addi	a0,a6,-1
   23ff4:	02051063          	bnez	a0,24014 <__adddf3+0x9c>
/home/hdg/Desktop/desktop/toolchain/riscv-gnu-toolchain/build-gcc-newlib-stage2/riscv64-vega-elf/rv32im/ilp32/libgcc/../../../../.././riscv-gcc/libgcc/soft-fp/adddf3.c:46 (discriminator 23)
   23ff8:	00c58633          	add	a2,a1,a2
   23ffc:	00b63533          	sltu	a0,a2,a1
   24000:	00e787b3          	add	a5,a5,a4
   24004:	00a787b3          	add	a5,a5,a0
   24008:	00060593          	mv	a1,a2
/home/hdg/Desktop/desktop/toolchain/riscv-gnu-toolchain/build-gcc-newlib-stage2/riscv64-vega-elf/rv32im/ilp32/libgcc/../../../../.././riscv-gcc/libgcc/soft-fp/adddf3.c:45 (discriminator 80)
   2400c:	00100413          	li	s0,1
/home/hdg/Desktop/desktop/toolchain/riscv-gnu-toolchain/build-gcc-newlib-stage2/riscv64-vega-elf/rv32im/ilp32/libgcc/../../../../.././riscv-gcc/libgcc/soft-fp/adddf3.c:46 (discriminator 80)
   24010:	0700006f          	j	24080 <__adddf3+0x108>
/home/hdg/Desktop/desktop/toolchain/riscv-gnu-toolchain/build-gcc-newlib-stage2/riscv64-vega-elf/rv32im/ilp32/libgcc/../../../../.././riscv-gcc/libgcc/soft-fp/adddf3.c:46 (discriminator 24)
   24014:	7ff00693          	li	a3,2047
   24018:	02d81063          	bne	a6,a3,24038 <__adddf3+0xc0>
/home/hdg/Desktop/desktop/toolchain/riscv-gnu-toolchain/build-gcc-newlib-stage2/riscv64-vega-elf/rv32im/ilp32/libgcc/../../../../.././riscv-gcc/libgcc/soft-fp/adddf3.c:46
   2401c:	7ff00413          	li	s0,2047
   24020:	2140006f          	j	24234 <__adddf3+0x2bc>
/home/hdg/Desktop/desktop/toolchain/riscv-gnu-toolchain/build-gcc-newlib-stage2/riscv64-vega-elf/rv32im/ilp32/libgcc/../../../../.././riscv-gcc/libgcc/soft-fp/adddf3.c:46 (discriminator 12)
   24024:	7ff00693          	li	a3,2047
   24028:	20d40663          	beq	s0,a3,24234 <__adddf3+0x2bc>
/home/hdg/Desktop/desktop/toolchain/riscv-gnu-toolchain/build-gcc-newlib-stage2/riscv64-vega-elf/rv32im/ilp32/libgcc/../../../../.././riscv-gcc/libgcc/soft-fp/adddf3.c:46 (discriminator 38)
   2402c:	008006b7          	lui	a3,0x800
   24030:	00d76733          	or	a4,a4,a3
   24034:	00080513          	mv	a0,a6
/home/hdg/Desktop/desktop/toolchain/riscv-gnu-toolchain/build-gcc-newlib-stage2/riscv64-vega-elf/rv32im/ilp32/libgcc/../../../../.././riscv-gcc/libgcc/soft-fp/adddf3.c:46 (discriminator 47)
   24038:	03800693          	li	a3,56
   2403c:	0aa6cc63          	blt	a3,a0,240f4 <__adddf3+0x17c>
/home/hdg/Desktop/desktop/toolchain/riscv-gnu-toolchain/build-gcc-newlib-stage2/riscv64-vega-elf/rv32im/ilp32/libgcc/../../../../.././riscv-gcc/libgcc/soft-fp/adddf3.c:46 (discriminator 48)
   24040:	01f00693          	li	a3,31
   24044:	06a6ce63          	blt	a3,a0,240c0 <__adddf3+0x148>
/home/hdg/Desktop/desktop/toolchain/riscv-gnu-toolchain/build-gcc-newlib-stage2/riscv64-vega-elf/rv32im/ilp32/libgcc/../../../../.././riscv-gcc/libgcc/soft-fp/adddf3.c:46 (discriminator 50)
   24048:	02000813          	li	a6,32
   2404c:	40a80833          	sub	a6,a6,a0
   24050:	010716b3          	sll	a3,a4,a6
   24054:	00a658b3          	srl	a7,a2,a0
   24058:	01061633          	sll	a2,a2,a6
   2405c:	0116e6b3          	or	a3,a3,a7
   24060:	00c03633          	snez	a2,a2
   24064:	00c6e633          	or	a2,a3,a2
   24068:	00a75733          	srl	a4,a4,a0
/home/hdg/Desktop/desktop/toolchain/riscv-gnu-toolchain/build-gcc-newlib-stage2/riscv64-vega-elf/rv32im/ilp32/libgcc/../../../../.././riscv-gcc/libgcc/soft-fp/adddf3.c:46 (discriminator 64)
   2406c:	00b60633          	add	a2,a2,a1
   24070:	00b63533          	sltu	a0,a2,a1
   24074:	00f70733          	add	a4,a4,a5
   24078:	00a707b3          	add	a5,a4,a0
   2407c:	00060593          	mv	a1,a2
/home/hdg/Desktop/desktop/toolchain/riscv-gnu-toolchain/build-gcc-newlib-stage2/riscv64-vega-elf/rv32im/ilp32/libgcc/../../../../.././riscv-gcc/libgcc/soft-fp/adddf3.c:46 (discriminator 122)
   24080:	00800737          	lui	a4,0x800
   24084:	00e7f733          	and	a4,a5,a4
   24088:	1a070663          	beqz	a4,24234 <__adddf3+0x2bc>
/home/hdg/Desktop/desktop/toolchain/riscv-gnu-toolchain/build-gcc-newlib-stage2/riscv64-vega-elf/rv32im/ilp32/libgcc/../../../../.././riscv-gcc/libgcc/soft-fp/adddf3.c:46 (discriminator 182)
   2408c:	00140413          	addi	s0,s0,1
   24090:	7ff00713          	li	a4,2047
   24094:	5ce40a63          	beq	s0,a4,24668 <__adddf3+0x6f0>
/home/hdg/Desktop/desktop/toolchain/riscv-gnu-toolchain/build-gcc-newlib-stage2/riscv64-vega-elf/rv32im/ilp32/libgcc/../../../../.././riscv-gcc/libgcc/soft-fp/adddf3.c:46
   24098:	ff800737          	lui	a4,0xff800
   2409c:	fff70713          	addi	a4,a4,-1 # ff7fffff <__global_pointer$+0xff7d84bb>
   240a0:	00e7f7b3          	and	a5,a5,a4
   240a4:	0015f513          	andi	a0,a1,1
   240a8:	0015d713          	srli	a4,a1,0x1
   240ac:	00a76533          	or	a0,a4,a0
   240b0:	01f79593          	slli	a1,a5,0x1f
   240b4:	00a5e5b3          	or	a1,a1,a0
   240b8:	0017d793          	srli	a5,a5,0x1
   240bc:	1780006f          	j	24234 <__adddf3+0x2bc>
/home/hdg/Desktop/desktop/toolchain/riscv-gnu-toolchain/build-gcc-newlib-stage2/riscv64-vega-elf/rv32im/ilp32/libgcc/../../../../.././riscv-gcc/libgcc/soft-fp/adddf3.c:46 (discriminator 51)
   240c0:	fe050693          	addi	a3,a0,-32
   240c4:	02000893          	li	a7,32
   240c8:	00d756b3          	srl	a3,a4,a3
   240cc:	00000813          	li	a6,0
   240d0:	01150863          	beq	a0,a7,240e0 <__adddf3+0x168>
/home/hdg/Desktop/desktop/toolchain/riscv-gnu-toolchain/build-gcc-newlib-stage2/riscv64-vega-elf/rv32im/ilp32/libgcc/../../../../.././riscv-gcc/libgcc/soft-fp/adddf3.c:46 (discriminator 58)
   240d4:	04000813          	li	a6,64
   240d8:	40a80533          	sub	a0,a6,a0
   240dc:	00a71833          	sll	a6,a4,a0
/home/hdg/Desktop/desktop/toolchain/riscv-gnu-toolchain/build-gcc-newlib-stage2/riscv64-vega-elf/rv32im/ilp32/libgcc/../../../../.././riscv-gcc/libgcc/soft-fp/adddf3.c:46 (discriminator 61)
   240e0:	00c86633          	or	a2,a6,a2
   240e4:	00c03633          	snez	a2,a2
   240e8:	00c6e633          	or	a2,a3,a2
/home/hdg/Desktop/desktop/toolchain/riscv-gnu-toolchain/build-gcc-newlib-stage2/riscv64-vega-elf/rv32im/ilp32/libgcc/../../../../.././riscv-gcc/libgcc/soft-fp/adddf3.c:46 (discriminator 49)
   240ec:	00000713          	li	a4,0
   240f0:	f7dff06f          	j	2406c <__adddf3+0xf4>
   240f4:	00c76633          	or	a2,a4,a2
   240f8:	00c03633          	snez	a2,a2
   240fc:	ff1ff06f          	j	240ec <__adddf3+0x174>
/home/hdg/Desktop/desktop/toolchain/riscv-gnu-toolchain/build-gcc-newlib-stage2/riscv64-vega-elf/rv32im/ilp32/libgcc/../../../../.././riscv-gcc/libgcc/soft-fp/adddf3.c:46 (discriminator 10)
   24100:	0e080263          	beqz	a6,241e4 <__adddf3+0x26c>
/home/hdg/Desktop/desktop/toolchain/riscv-gnu-toolchain/build-gcc-newlib-stage2/riscv64-vega-elf/rv32im/ilp32/libgcc/../../../../.././riscv-gcc/libgcc/soft-fp/adddf3.c:46 (discriminator 66)
   24104:	40830533          	sub	a0,t1,s0
   24108:	02041e63          	bnez	s0,24144 <__adddf3+0x1cc>
/home/hdg/Desktop/desktop/toolchain/riscv-gnu-toolchain/build-gcc-newlib-stage2/riscv64-vega-elf/rv32im/ilp32/libgcc/../../../../.././riscv-gcc/libgcc/soft-fp/adddf3.c:46 (discriminator 68)
   2410c:	00b7e6b3          	or	a3,a5,a1
   24110:	52068c63          	beqz	a3,24648 <__adddf3+0x6d0>
/home/hdg/Desktop/desktop/toolchain/riscv-gnu-toolchain/build-gcc-newlib-stage2/riscv64-vega-elf/rv32im/ilp32/libgcc/../../../../.././riscv-gcc/libgcc/soft-fp/adddf3.c:46 (discriminator 71)
   24114:	fff50693          	addi	a3,a0,-1
   24118:	00069c63          	bnez	a3,24130 <__adddf3+0x1b8>
/home/hdg/Desktop/desktop/toolchain/riscv-gnu-toolchain/build-gcc-newlib-stage2/riscv64-vega-elf/rv32im/ilp32/libgcc/../../../../.././riscv-gcc/libgcc/soft-fp/adddf3.c:46 (discriminator 80)
   2411c:	00c585b3          	add	a1,a1,a2
   24120:	00e787b3          	add	a5,a5,a4
   24124:	00c5b633          	sltu	a2,a1,a2
   24128:	00c787b3          	add	a5,a5,a2
   2412c:	ee1ff06f          	j	2400c <__adddf3+0x94>
/home/hdg/Desktop/desktop/toolchain/riscv-gnu-toolchain/build-gcc-newlib-stage2/riscv64-vega-elf/rv32im/ilp32/libgcc/../../../../.././riscv-gcc/libgcc/soft-fp/adddf3.c:46 (discriminator 81)
   24130:	7ff00813          	li	a6,2047
   24134:	03051263          	bne	a0,a6,24158 <__adddf3+0x1e0>
/home/hdg/Desktop/desktop/toolchain/riscv-gnu-toolchain/build-gcc-newlib-stage2/riscv64-vega-elf/rv32im/ilp32/libgcc/../../../../.././riscv-gcc/libgcc/soft-fp/adddf3.c:45
   24138:	00070793          	mv	a5,a4
   2413c:	00060593          	mv	a1,a2
   24140:	eddff06f          	j	2401c <__adddf3+0xa4>
/home/hdg/Desktop/desktop/toolchain/riscv-gnu-toolchain/build-gcc-newlib-stage2/riscv64-vega-elf/rv32im/ilp32/libgcc/../../../../.././riscv-gcc/libgcc/soft-fp/adddf3.c:46 (discriminator 69)
   24144:	7ff00693          	li	a3,2047
   24148:	fed308e3          	beq	t1,a3,24138 <__adddf3+0x1c0>
/home/hdg/Desktop/desktop/toolchain/riscv-gnu-toolchain/build-gcc-newlib-stage2/riscv64-vega-elf/rv32im/ilp32/libgcc/../../../../.././riscv-gcc/libgcc/soft-fp/adddf3.c:46 (discriminator 95)
   2414c:	008006b7          	lui	a3,0x800
   24150:	00d7e7b3          	or	a5,a5,a3
   24154:	00050693          	mv	a3,a0
/home/hdg/Desktop/desktop/toolchain/riscv-gnu-toolchain/build-gcc-newlib-stage2/riscv64-vega-elf/rv32im/ilp32/libgcc/../../../../.././riscv-gcc/libgcc/soft-fp/adddf3.c:46 (discriminator 104)
   24158:	03800513          	li	a0,56
   2415c:	06d54e63          	blt	a0,a3,241d8 <__adddf3+0x260>
/home/hdg/Desktop/desktop/toolchain/riscv-gnu-toolchain/build-gcc-newlib-stage2/riscv64-vega-elf/rv32im/ilp32/libgcc/../../../../.././riscv-gcc/libgcc/soft-fp/adddf3.c:46 (discriminator 105)
   24160:	01f00513          	li	a0,31
   24164:	04d54063          	blt	a0,a3,241a4 <__adddf3+0x22c>
/home/hdg/Desktop/desktop/toolchain/riscv-gnu-toolchain/build-gcc-newlib-stage2/riscv64-vega-elf/rv32im/ilp32/libgcc/../../../../.././riscv-gcc/libgcc/soft-fp/adddf3.c:46 (discriminator 107)
   24168:	02000813          	li	a6,32
   2416c:	40d80833          	sub	a6,a6,a3
   24170:	01079533          	sll	a0,a5,a6
   24174:	00d5d8b3          	srl	a7,a1,a3
   24178:	010595b3          	sll	a1,a1,a6
   2417c:	01156533          	or	a0,a0,a7
   24180:	00b035b3          	snez	a1,a1
   24184:	00b56533          	or	a0,a0,a1
   24188:	00d7d7b3          	srl	a5,a5,a3
/home/hdg/Desktop/desktop/toolchain/riscv-gnu-toolchain/build-gcc-newlib-stage2/riscv64-vega-elf/rv32im/ilp32/libgcc/../../../../.././riscv-gcc/libgcc/soft-fp/adddf3.c:46 (discriminator 121)
   2418c:	00c505b3          	add	a1,a0,a2
   24190:	00e787b3          	add	a5,a5,a4
   24194:	00c5b633          	sltu	a2,a1,a2
   24198:	00c787b3          	add	a5,a5,a2
/home/hdg/Desktop/desktop/toolchain/riscv-gnu-toolchain/build-gcc-newlib-stage2/riscv64-vega-elf/rv32im/ilp32/libgcc/../../../../.././riscv-gcc/libgcc/soft-fp/adddf3.c:45 (discriminator 121)
   2419c:	00030413          	mv	s0,t1
   241a0:	ee1ff06f          	j	24080 <__adddf3+0x108>
/home/hdg/Desktop/desktop/toolchain/riscv-gnu-toolchain/build-gcc-newlib-stage2/riscv64-vega-elf/rv32im/ilp32/libgcc/../../../../.././riscv-gcc/libgcc/soft-fp/adddf3.c:46 (discriminator 108)
   241a4:	fe068513          	addi	a0,a3,-32 # 7fffe0 <__global_pointer$+0x7d849c>
   241a8:	02000893          	li	a7,32
   241ac:	00a7d833          	srl	a6,a5,a0
   241b0:	00000513          	li	a0,0
   241b4:	01168863          	beq	a3,a7,241c4 <__adddf3+0x24c>
/home/hdg/Desktop/desktop/toolchain/riscv-gnu-toolchain/build-gcc-newlib-stage2/riscv64-vega-elf/rv32im/ilp32/libgcc/../../../../.././riscv-gcc/libgcc/soft-fp/adddf3.c:46 (discriminator 115)
   241b8:	04000513          	li	a0,64
   241bc:	40d50533          	sub	a0,a0,a3
   241c0:	00a79533          	sll	a0,a5,a0
/home/hdg/Desktop/desktop/toolchain/riscv-gnu-toolchain/build-gcc-newlib-stage2/riscv64-vega-elf/rv32im/ilp32/libgcc/../../../../.././riscv-gcc/libgcc/soft-fp/adddf3.c:46 (discriminator 118)
   241c4:	00b56533          	or	a0,a0,a1
   241c8:	00a03533          	snez	a0,a0
   241cc:	00a86533          	or	a0,a6,a0
/home/hdg/Desktop/desktop/toolchain/riscv-gnu-toolchain/build-gcc-newlib-stage2/riscv64-vega-elf/rv32im/ilp32/libgcc/../../../../.././riscv-gcc/libgcc/soft-fp/adddf3.c:46 (discriminator 106)
   241d0:	00000793          	li	a5,0
   241d4:	fb9ff06f          	j	2418c <__adddf3+0x214>
   241d8:	00b7e533          	or	a0,a5,a1
   241dc:	00a03533          	snez	a0,a0
   241e0:	ff1ff06f          	j	241d0 <__adddf3+0x258>
/home/hdg/Desktop/desktop/toolchain/riscv-gnu-toolchain/build-gcc-newlib-stage2/riscv64-vega-elf/rv32im/ilp32/libgcc/../../../../.././riscv-gcc/libgcc/soft-fp/adddf3.c:46 (discriminator 67)
   241e4:	00140693          	addi	a3,s0,1
   241e8:	7fe6f513          	andi	a0,a3,2046
   241ec:	08051863          	bnez	a0,2427c <__adddf3+0x304>
/home/hdg/Desktop/desktop/toolchain/riscv-gnu-toolchain/build-gcc-newlib-stage2/riscv64-vega-elf/rv32im/ilp32/libgcc/../../../../.././riscv-gcc/libgcc/soft-fp/adddf3.c:46 (discriminator 123)
   241f0:	00b7e6b3          	or	a3,a5,a1
   241f4:	06041463          	bnez	s0,2425c <__adddf3+0x2e4>
/home/hdg/Desktop/desktop/toolchain/riscv-gnu-toolchain/build-gcc-newlib-stage2/riscv64-vega-elf/rv32im/ilp32/libgcc/../../../../.././riscv-gcc/libgcc/soft-fp/adddf3.c:46 (discriminator 125)
   241f8:	46068063          	beqz	a3,24658 <__adddf3+0x6e0>
/home/hdg/Desktop/desktop/toolchain/riscv-gnu-toolchain/build-gcc-newlib-stage2/riscv64-vega-elf/rv32im/ilp32/libgcc/../../../../.././riscv-gcc/libgcc/soft-fp/adddf3.c:46 (discriminator 128)
   241fc:	00c766b3          	or	a3,a4,a2
   24200:	02068a63          	beqz	a3,24234 <__adddf3+0x2bc>
/home/hdg/Desktop/desktop/toolchain/riscv-gnu-toolchain/build-gcc-newlib-stage2/riscv64-vega-elf/rv32im/ilp32/libgcc/../../../../.././riscv-gcc/libgcc/soft-fp/adddf3.c:46 (discriminator 134)
   24204:	00c58633          	add	a2,a1,a2
   24208:	00e787b3          	add	a5,a5,a4
   2420c:	00b63533          	sltu	a0,a2,a1
   24210:	00a787b3          	add	a5,a5,a0
   24214:	00800737          	lui	a4,0x800
   24218:	00e7f733          	and	a4,a5,a4
   2421c:	00060593          	mv	a1,a2
   24220:	00070a63          	beqz	a4,24234 <__adddf3+0x2bc>
/home/hdg/Desktop/desktop/toolchain/riscv-gnu-toolchain/build-gcc-newlib-stage2/riscv64-vega-elf/rv32im/ilp32/libgcc/../../../../.././riscv-gcc/libgcc/soft-fp/adddf3.c:46 (discriminator 136)
   24224:	ff800737          	lui	a4,0xff800
   24228:	fff70713          	addi	a4,a4,-1 # ff7fffff <__global_pointer$+0xff7d84bb>
   2422c:	00e7f7b3          	and	a5,a5,a4
   24230:	00100413          	li	s0,1
/home/hdg/Desktop/desktop/toolchain/riscv-gnu-toolchain/build-gcc-newlib-stage2/riscv64-vega-elf/rv32im/ilp32/libgcc/../../../../.././riscv-gcc/libgcc/soft-fp/adddf3.c:47 (discriminator 421)
   24234:	0075f713          	andi	a4,a1,7
   24238:	42070c63          	beqz	a4,24670 <__adddf3+0x6f8>
/home/hdg/Desktop/desktop/toolchain/riscv-gnu-toolchain/build-gcc-newlib-stage2/riscv64-vega-elf/rv32im/ilp32/libgcc/../../../../.././riscv-gcc/libgcc/soft-fp/adddf3.c:47 (discriminator 37)
   2423c:	00f5f713          	andi	a4,a1,15
   24240:	00400693          	li	a3,4
   24244:	42d70663          	beq	a4,a3,24670 <__adddf3+0x6f8>
/home/hdg/Desktop/desktop/toolchain/riscv-gnu-toolchain/build-gcc-newlib-stage2/riscv64-vega-elf/rv32im/ilp32/libgcc/../../../../.././riscv-gcc/libgcc/soft-fp/adddf3.c:47 (discriminator 44)
   24248:	00458713          	addi	a4,a1,4
   2424c:	00b73533          	sltu	a0,a4,a1
   24250:	00a787b3          	add	a5,a5,a0
   24254:	00070593          	mv	a1,a4
   24258:	4180006f          	j	24670 <__adddf3+0x6f8>
/home/hdg/Desktop/desktop/toolchain/riscv-gnu-toolchain/build-gcc-newlib-stage2/riscv64-vega-elf/rv32im/ilp32/libgcc/../../../../.././riscv-gcc/libgcc/soft-fp/adddf3.c:46 (discriminator 153)
   2425c:	ec068ee3          	beqz	a3,24138 <__adddf3+0x1c0>
/home/hdg/Desktop/desktop/toolchain/riscv-gnu-toolchain/build-gcc-newlib-stage2/riscv64-vega-elf/rv32im/ilp32/libgcc/../../../../.././riscv-gcc/libgcc/soft-fp/adddf3.c:46 (discriminator 155)
   24260:	00c76633          	or	a2,a4,a2
   24264:	da060ce3          	beqz	a2,2401c <__adddf3+0xa4>
/home/hdg/Desktop/desktop/toolchain/riscv-gnu-toolchain/build-gcc-newlib-stage2/riscv64-vega-elf/rv32im/ilp32/libgcc/../../../../.././riscv-gcc/libgcc/soft-fp/adddf3.c:46
   24268:	00000493          	li	s1,0
   2426c:	004007b7          	lui	a5,0x400
   24270:	00000593          	li	a1,0
   24274:	7ff00413          	li	s0,2047
   24278:	3f80006f          	j	24670 <__adddf3+0x6f8>
/home/hdg/Desktop/desktop/toolchain/riscv-gnu-toolchain/build-gcc-newlib-stage2/riscv64-vega-elf/rv32im/ilp32/libgcc/../../../../.././riscv-gcc/libgcc/soft-fp/adddf3.c:46 (discriminator 124)
   2427c:	7ff00513          	li	a0,2047
   24280:	3ea68263          	beq	a3,a0,24664 <__adddf3+0x6ec>
/home/hdg/Desktop/desktop/toolchain/riscv-gnu-toolchain/build-gcc-newlib-stage2/riscv64-vega-elf/rv32im/ilp32/libgcc/../../../../.././riscv-gcc/libgcc/soft-fp/adddf3.c:46
   24284:	00c58633          	add	a2,a1,a2
   24288:	00b63533          	sltu	a0,a2,a1
   2428c:	00e787b3          	add	a5,a5,a4
   24290:	00a787b3          	add	a5,a5,a0
   24294:	01f79513          	slli	a0,a5,0x1f
   24298:	00165613          	srli	a2,a2,0x1
   2429c:	00c565b3          	or	a1,a0,a2
   242a0:	0017d793          	srli	a5,a5,0x1
   242a4:	00068413          	mv	s0,a3
   242a8:	f8dff06f          	j	24234 <__adddf3+0x2bc>
/home/hdg/Desktop/desktop/toolchain/riscv-gnu-toolchain/build-gcc-newlib-stage2/riscv64-vega-elf/rv32im/ilp32/libgcc/../../../../.././riscv-gcc/libgcc/soft-fp/adddf3.c:46 (discriminator 8)
   242ac:	0f005c63          	blez	a6,243a4 <__adddf3+0x42c>
/home/hdg/Desktop/desktop/toolchain/riscv-gnu-toolchain/build-gcc-newlib-stage2/riscv64-vega-elf/rv32im/ilp32/libgcc/../../../../.././riscv-gcc/libgcc/soft-fp/adddf3.c:46 (discriminator 200)
   242b0:	08031e63          	bnez	t1,2434c <__adddf3+0x3d4>
/home/hdg/Desktop/desktop/toolchain/riscv-gnu-toolchain/build-gcc-newlib-stage2/riscv64-vega-elf/rv32im/ilp32/libgcc/../../../../.././riscv-gcc/libgcc/soft-fp/adddf3.c:46 (discriminator 202)
   242b4:	00c766b3          	or	a3,a4,a2
   242b8:	44068663          	beqz	a3,24704 <__adddf3+0x78c>
/home/hdg/Desktop/desktop/toolchain/riscv-gnu-toolchain/build-gcc-newlib-stage2/riscv64-vega-elf/rv32im/ilp32/libgcc/../../../../.././riscv-gcc/libgcc/soft-fp/adddf3.c:46 (discriminator 205)
   242bc:	fff80513          	addi	a0,a6,-1
   242c0:	02051063          	bnez	a0,242e0 <__adddf3+0x368>
/home/hdg/Desktop/desktop/toolchain/riscv-gnu-toolchain/build-gcc-newlib-stage2/riscv64-vega-elf/rv32im/ilp32/libgcc/../../../../.././riscv-gcc/libgcc/soft-fp/adddf3.c:46 (discriminator 214)
   242c4:	40c58633          	sub	a2,a1,a2
   242c8:	00c5b533          	sltu	a0,a1,a2
   242cc:	40e787b3          	sub	a5,a5,a4
   242d0:	40a787b3          	sub	a5,a5,a0
   242d4:	00060593          	mv	a1,a2
/home/hdg/Desktop/desktop/toolchain/riscv-gnu-toolchain/build-gcc-newlib-stage2/riscv64-vega-elf/rv32im/ilp32/libgcc/../../../../.././riscv-gcc/libgcc/soft-fp/adddf3.c:45 (discriminator 271)
   242d8:	00100413          	li	s0,1
/home/hdg/Desktop/desktop/toolchain/riscv-gnu-toolchain/build-gcc-newlib-stage2/riscv64-vega-elf/rv32im/ilp32/libgcc/../../../../.././riscv-gcc/libgcc/soft-fp/adddf3.c:46 (discriminator 271)
   242dc:	0540006f          	j	24330 <__adddf3+0x3b8>
/home/hdg/Desktop/desktop/toolchain/riscv-gnu-toolchain/build-gcc-newlib-stage2/riscv64-vega-elf/rv32im/ilp32/libgcc/../../../../.././riscv-gcc/libgcc/soft-fp/adddf3.c:46 (discriminator 215)
   242e0:	7ff00693          	li	a3,2047
   242e4:	d2d80ce3          	beq	a6,a3,2401c <__adddf3+0xa4>
/home/hdg/Desktop/desktop/toolchain/riscv-gnu-toolchain/build-gcc-newlib-stage2/riscv64-vega-elf/rv32im/ilp32/libgcc/../../../../.././riscv-gcc/libgcc/soft-fp/adddf3.c:46 (discriminator 238)
   242e8:	03800693          	li	a3,56
   242ec:	0aa6c663          	blt	a3,a0,24398 <__adddf3+0x420>
/home/hdg/Desktop/desktop/toolchain/riscv-gnu-toolchain/build-gcc-newlib-stage2/riscv64-vega-elf/rv32im/ilp32/libgcc/../../../../.././riscv-gcc/libgcc/soft-fp/adddf3.c:46 (discriminator 239)
   242f0:	01f00693          	li	a3,31
   242f4:	06a6c863          	blt	a3,a0,24364 <__adddf3+0x3ec>
/home/hdg/Desktop/desktop/toolchain/riscv-gnu-toolchain/build-gcc-newlib-stage2/riscv64-vega-elf/rv32im/ilp32/libgcc/../../../../.././riscv-gcc/libgcc/soft-fp/adddf3.c:46 (discriminator 241)
   242f8:	02000813          	li	a6,32
   242fc:	40a80833          	sub	a6,a6,a0
   24300:	010716b3          	sll	a3,a4,a6
   24304:	00a658b3          	srl	a7,a2,a0
   24308:	01061633          	sll	a2,a2,a6
   2430c:	0116e6b3          	or	a3,a3,a7
   24310:	00c03633          	snez	a2,a2
   24314:	00c6e633          	or	a2,a3,a2
   24318:	00a75733          	srl	a4,a4,a0
/home/hdg/Desktop/desktop/toolchain/riscv-gnu-toolchain/build-gcc-newlib-stage2/riscv64-vega-elf/rv32im/ilp32/libgcc/../../../../.././riscv-gcc/libgcc/soft-fp/adddf3.c:46 (discriminator 255)
   2431c:	40c58633          	sub	a2,a1,a2
   24320:	00c5b533          	sltu	a0,a1,a2
   24324:	40e78733          	sub	a4,a5,a4
   24328:	40a707b3          	sub	a5,a4,a0
   2432c:	00060593          	mv	a1,a2
/home/hdg/Desktop/desktop/toolchain/riscv-gnu-toolchain/build-gcc-newlib-stage2/riscv64-vega-elf/rv32im/ilp32/libgcc/../../../../.././riscv-gcc/libgcc/soft-fp/adddf3.c:46 (discriminator 313)
   24330:	00800937          	lui	s2,0x800
   24334:	0127f733          	and	a4,a5,s2
   24338:	ee070ee3          	beqz	a4,24234 <__adddf3+0x2bc>
/home/hdg/Desktop/desktop/toolchain/riscv-gnu-toolchain/build-gcc-newlib-stage2/riscv64-vega-elf/rv32im/ilp32/libgcc/../../../../.././riscv-gcc/libgcc/soft-fp/adddf3.c:46 (discriminator 373)
   2433c:	fff90913          	addi	s2,s2,-1 # 7fffff <__global_pointer$+0x7d84bb>
   24340:	0127f933          	and	s2,a5,s2
   24344:	00058993          	mv	s3,a1
   24348:	2140006f          	j	2455c <__adddf3+0x5e4>
/home/hdg/Desktop/desktop/toolchain/riscv-gnu-toolchain/build-gcc-newlib-stage2/riscv64-vega-elf/rv32im/ilp32/libgcc/../../../../.././riscv-gcc/libgcc/soft-fp/adddf3.c:46 (discriminator 203)
   2434c:	7ff00693          	li	a3,2047
   24350:	eed402e3          	beq	s0,a3,24234 <__adddf3+0x2bc>
/home/hdg/Desktop/desktop/toolchain/riscv-gnu-toolchain/build-gcc-newlib-stage2/riscv64-vega-elf/rv32im/ilp32/libgcc/../../../../.././riscv-gcc/libgcc/soft-fp/adddf3.c:46 (discriminator 229)
   24354:	008006b7          	lui	a3,0x800
   24358:	00d76733          	or	a4,a4,a3
   2435c:	00080513          	mv	a0,a6
   24360:	f89ff06f          	j	242e8 <__adddf3+0x370>
/home/hdg/Desktop/desktop/toolchain/riscv-gnu-toolchain/build-gcc-newlib-stage2/riscv64-vega-elf/rv32im/ilp32/libgcc/../../../../.././riscv-gcc/libgcc/soft-fp/adddf3.c:46 (discriminator 242)
   24364:	fe050693          	addi	a3,a0,-32
   24368:	02000893          	li	a7,32
   2436c:	00d756b3          	srl	a3,a4,a3
   24370:	00000813          	li	a6,0
   24374:	01150863          	beq	a0,a7,24384 <__adddf3+0x40c>
/home/hdg/Desktop/desktop/toolchain/riscv-gnu-toolchain/build-gcc-newlib-stage2/riscv64-vega-elf/rv32im/ilp32/libgcc/../../../../.././riscv-gcc/libgcc/soft-fp/adddf3.c:46 (discriminator 249)
   24378:	04000813          	li	a6,64
   2437c:	40a80533          	sub	a0,a6,a0
   24380:	00a71833          	sll	a6,a4,a0
/home/hdg/Desktop/desktop/toolchain/riscv-gnu-toolchain/build-gcc-newlib-stage2/riscv64-vega-elf/rv32im/ilp32/libgcc/../../../../.././riscv-gcc/libgcc/soft-fp/adddf3.c:46 (discriminator 252)
   24384:	00c86633          	or	a2,a6,a2
   24388:	00c03633          	snez	a2,a2
   2438c:	00c6e633          	or	a2,a3,a2
/home/hdg/Desktop/desktop/toolchain/riscv-gnu-toolchain/build-gcc-newlib-stage2/riscv64-vega-elf/rv32im/ilp32/libgcc/../../../../.././riscv-gcc/libgcc/soft-fp/adddf3.c:46 (discriminator 240)
   24390:	00000713          	li	a4,0
   24394:	f89ff06f          	j	2431c <__adddf3+0x3a4>
   24398:	00c76633          	or	a2,a4,a2
   2439c:	00c03633          	snez	a2,a2
   243a0:	ff1ff06f          	j	24390 <__adddf3+0x418>
/home/hdg/Desktop/desktop/toolchain/riscv-gnu-toolchain/build-gcc-newlib-stage2/riscv64-vega-elf/rv32im/ilp32/libgcc/../../../../.././riscv-gcc/libgcc/soft-fp/adddf3.c:46 (discriminator 201)
   243a4:	0e080863          	beqz	a6,24494 <__adddf3+0x51c>
/home/hdg/Desktop/desktop/toolchain/riscv-gnu-toolchain/build-gcc-newlib-stage2/riscv64-vega-elf/rv32im/ilp32/libgcc/../../../../.././riscv-gcc/libgcc/soft-fp/adddf3.c:46 (discriminator 257)
   243a8:	40830533          	sub	a0,t1,s0
   243ac:	04041263          	bnez	s0,243f0 <__adddf3+0x478>
/home/hdg/Desktop/desktop/toolchain/riscv-gnu-toolchain/build-gcc-newlib-stage2/riscv64-vega-elf/rv32im/ilp32/libgcc/../../../../.././riscv-gcc/libgcc/soft-fp/adddf3.c:46 (discriminator 259)
   243b0:	00b7e833          	or	a6,a5,a1
   243b4:	34080c63          	beqz	a6,2470c <__adddf3+0x794>
/home/hdg/Desktop/desktop/toolchain/riscv-gnu-toolchain/build-gcc-newlib-stage2/riscv64-vega-elf/rv32im/ilp32/libgcc/../../../../.././riscv-gcc/libgcc/soft-fp/adddf3.c:46 (discriminator 262)
   243b8:	fff50813          	addi	a6,a0,-1
   243bc:	00081e63          	bnez	a6,243d8 <__adddf3+0x460>
/home/hdg/Desktop/desktop/toolchain/riscv-gnu-toolchain/build-gcc-newlib-stage2/riscv64-vega-elf/rv32im/ilp32/libgcc/../../../../.././riscv-gcc/libgcc/soft-fp/adddf3.c:46 (discriminator 271)
   243c0:	40b605b3          	sub	a1,a2,a1
   243c4:	40f707b3          	sub	a5,a4,a5
   243c8:	00b63633          	sltu	a2,a2,a1
   243cc:	40c787b3          	sub	a5,a5,a2
   243d0:	00068493          	mv	s1,a3
   243d4:	f05ff06f          	j	242d8 <__adddf3+0x360>
/home/hdg/Desktop/desktop/toolchain/riscv-gnu-toolchain/build-gcc-newlib-stage2/riscv64-vega-elf/rv32im/ilp32/libgcc/../../../../.././riscv-gcc/libgcc/soft-fp/adddf3.c:46 (discriminator 272)
   243d8:	7ff00893          	li	a7,2047
   243dc:	03151463          	bne	a0,a7,24404 <__adddf3+0x48c>
/home/hdg/Desktop/desktop/toolchain/riscv-gnu-toolchain/build-gcc-newlib-stage2/riscv64-vega-elf/rv32im/ilp32/libgcc/../../../../.././riscv-gcc/libgcc/soft-fp/adddf3.c:45
   243e0:	00070793          	mv	a5,a4
   243e4:	00060593          	mv	a1,a2
/home/hdg/Desktop/desktop/toolchain/riscv-gnu-toolchain/build-gcc-newlib-stage2/riscv64-vega-elf/rv32im/ilp32/libgcc/../../../../.././riscv-gcc/libgcc/soft-fp/adddf3.c:46
   243e8:	7ff00413          	li	s0,2047
   243ec:	0d00006f          	j	244bc <__adddf3+0x544>
/home/hdg/Desktop/desktop/toolchain/riscv-gnu-toolchain/build-gcc-newlib-stage2/riscv64-vega-elf/rv32im/ilp32/libgcc/../../../../.././riscv-gcc/libgcc/soft-fp/adddf3.c:46 (discriminator 260)
   243f0:	7ff00813          	li	a6,2047
   243f4:	ff0306e3          	beq	t1,a6,243e0 <__adddf3+0x468>
/home/hdg/Desktop/desktop/toolchain/riscv-gnu-toolchain/build-gcc-newlib-stage2/riscv64-vega-elf/rv32im/ilp32/libgcc/../../../../.././riscv-gcc/libgcc/soft-fp/adddf3.c:46 (discriminator 286)
   243f8:	00800837          	lui	a6,0x800
   243fc:	0107e7b3          	or	a5,a5,a6
   24400:	00050813          	mv	a6,a0
/home/hdg/Desktop/desktop/toolchain/riscv-gnu-toolchain/build-gcc-newlib-stage2/riscv64-vega-elf/rv32im/ilp32/libgcc/../../../../.././riscv-gcc/libgcc/soft-fp/adddf3.c:46 (discriminator 295)
   24404:	03800513          	li	a0,56
   24408:	09054063          	blt	a0,a6,24488 <__adddf3+0x510>
/home/hdg/Desktop/desktop/toolchain/riscv-gnu-toolchain/build-gcc-newlib-stage2/riscv64-vega-elf/rv32im/ilp32/libgcc/../../../../.././riscv-gcc/libgcc/soft-fp/adddf3.c:46 (discriminator 296)
   2440c:	01f00513          	li	a0,31
   24410:	05054263          	blt	a0,a6,24454 <__adddf3+0x4dc>
/home/hdg/Desktop/desktop/toolchain/riscv-gnu-toolchain/build-gcc-newlib-stage2/riscv64-vega-elf/rv32im/ilp32/libgcc/../../../../.././riscv-gcc/libgcc/soft-fp/adddf3.c:46 (discriminator 298)
   24414:	02000893          	li	a7,32
   24418:	410888b3          	sub	a7,a7,a6
   2441c:	01179533          	sll	a0,a5,a7
   24420:	0105de33          	srl	t3,a1,a6
   24424:	011595b3          	sll	a1,a1,a7
   24428:	01c56533          	or	a0,a0,t3
   2442c:	00b035b3          	snez	a1,a1
   24430:	00b56533          	or	a0,a0,a1
   24434:	0107d7b3          	srl	a5,a5,a6
/home/hdg/Desktop/desktop/toolchain/riscv-gnu-toolchain/build-gcc-newlib-stage2/riscv64-vega-elf/rv32im/ilp32/libgcc/../../../../.././riscv-gcc/libgcc/soft-fp/adddf3.c:46 (discriminator 312)
   24438:	40a605b3          	sub	a1,a2,a0
   2443c:	40f707b3          	sub	a5,a4,a5
   24440:	00b63633          	sltu	a2,a2,a1
   24444:	40c787b3          	sub	a5,a5,a2
/home/hdg/Desktop/desktop/toolchain/riscv-gnu-toolchain/build-gcc-newlib-stage2/riscv64-vega-elf/rv32im/ilp32/libgcc/../../../../.././riscv-gcc/libgcc/soft-fp/adddf3.c:45 (discriminator 312)
   24448:	00030413          	mv	s0,t1
   2444c:	00068493          	mv	s1,a3
   24450:	ee1ff06f          	j	24330 <__adddf3+0x3b8>
/home/hdg/Desktop/desktop/toolchain/riscv-gnu-toolchain/build-gcc-newlib-stage2/riscv64-vega-elf/rv32im/ilp32/libgcc/../../../../.././riscv-gcc/libgcc/soft-fp/adddf3.c:46 (discriminator 299)
   24454:	fe080513          	addi	a0,a6,-32 # 7fffe0 <__global_pointer$+0x7d849c>
   24458:	02000e13          	li	t3,32
   2445c:	00a7d8b3          	srl	a7,a5,a0
   24460:	00000513          	li	a0,0
   24464:	01c80863          	beq	a6,t3,24474 <__adddf3+0x4fc>
/home/hdg/Desktop/desktop/toolchain/riscv-gnu-toolchain/build-gcc-newlib-stage2/riscv64-vega-elf/rv32im/ilp32/libgcc/../../../../.././riscv-gcc/libgcc/soft-fp/adddf3.c:46 (discriminator 306)
   24468:	04000513          	li	a0,64
   2446c:	41050533          	sub	a0,a0,a6
   24470:	00a79533          	sll	a0,a5,a0
/home/hdg/Desktop/desktop/toolchain/riscv-gnu-toolchain/build-gcc-newlib-stage2/riscv64-vega-elf/rv32im/ilp32/libgcc/../../../../.././riscv-gcc/libgcc/soft-fp/adddf3.c:46 (discriminator 309)
   24474:	00b56533          	or	a0,a0,a1
   24478:	00a03533          	snez	a0,a0
   2447c:	00a8e533          	or	a0,a7,a0
/home/hdg/Desktop/desktop/toolchain/riscv-gnu-toolchain/build-gcc-newlib-stage2/riscv64-vega-elf/rv32im/ilp32/libgcc/../../../../.././riscv-gcc/libgcc/soft-fp/adddf3.c:46 (discriminator 297)
   24480:	00000793          	li	a5,0
   24484:	fb5ff06f          	j	24438 <__adddf3+0x4c0>
   24488:	00b7e533          	or	a0,a5,a1
   2448c:	00a03533          	snez	a0,a0
   24490:	ff1ff06f          	j	24480 <__adddf3+0x508>
/home/hdg/Desktop/desktop/toolchain/riscv-gnu-toolchain/build-gcc-newlib-stage2/riscv64-vega-elf/rv32im/ilp32/libgcc/../../../../.././riscv-gcc/libgcc/soft-fp/adddf3.c:46 (discriminator 258)
   24494:	00140513          	addi	a0,s0,1
   24498:	7fe57513          	andi	a0,a0,2046
   2449c:	08051863          	bnez	a0,2452c <__adddf3+0x5b4>
/home/hdg/Desktop/desktop/toolchain/riscv-gnu-toolchain/build-gcc-newlib-stage2/riscv64-vega-elf/rv32im/ilp32/libgcc/../../../../.././riscv-gcc/libgcc/soft-fp/adddf3.c:46 (discriminator 314)
   244a0:	00b7e833          	or	a6,a5,a1
   244a4:	00c76533          	or	a0,a4,a2
   244a8:	06041263          	bnez	s0,2450c <__adddf3+0x594>
/home/hdg/Desktop/desktop/toolchain/riscv-gnu-toolchain/build-gcc-newlib-stage2/riscv64-vega-elf/rv32im/ilp32/libgcc/../../../../.././riscv-gcc/libgcc/soft-fp/adddf3.c:46 (discriminator 316)
   244ac:	00081c63          	bnez	a6,244c4 <__adddf3+0x54c>
/home/hdg/Desktop/desktop/toolchain/riscv-gnu-toolchain/build-gcc-newlib-stage2/riscv64-vega-elf/rv32im/ilp32/libgcc/../../../../.././riscv-gcc/libgcc/soft-fp/adddf3.c:46 (discriminator 318)
   244b0:	26050663          	beqz	a0,2471c <__adddf3+0x7a4>
/home/hdg/Desktop/desktop/toolchain/riscv-gnu-toolchain/build-gcc-newlib-stage2/riscv64-vega-elf/rv32im/ilp32/libgcc/../../../../.././riscv-gcc/libgcc/soft-fp/adddf3.c:45
   244b4:	00070793          	mv	a5,a4
   244b8:	00060593          	mv	a1,a2
   244bc:	00068493          	mv	s1,a3
   244c0:	d75ff06f          	j	24234 <__adddf3+0x2bc>
/home/hdg/Desktop/desktop/toolchain/riscv-gnu-toolchain/build-gcc-newlib-stage2/riscv64-vega-elf/rv32im/ilp32/libgcc/../../../../.././riscv-gcc/libgcc/soft-fp/adddf3.c:46 (discriminator 319)
   244c4:	d60508e3          	beqz	a0,24234 <__adddf3+0x2bc>
/home/hdg/Desktop/desktop/toolchain/riscv-gnu-toolchain/build-gcc-newlib-stage2/riscv64-vega-elf/rv32im/ilp32/libgcc/../../../../.././riscv-gcc/libgcc/soft-fp/adddf3.c:46 (discriminator 326)
   244c8:	40c58833          	sub	a6,a1,a2
   244cc:	0105b8b3          	sltu	a7,a1,a6
   244d0:	40e78533          	sub	a0,a5,a4
   244d4:	41150533          	sub	a0,a0,a7
   244d8:	008008b7          	lui	a7,0x800
   244dc:	011578b3          	and	a7,a0,a7
   244e0:	00088c63          	beqz	a7,244f8 <__adddf3+0x580>
/home/hdg/Desktop/desktop/toolchain/riscv-gnu-toolchain/build-gcc-newlib-stage2/riscv64-vega-elf/rv32im/ilp32/libgcc/../../../../.././riscv-gcc/libgcc/soft-fp/adddf3.c:46 (discriminator 328)
   244e4:	40b605b3          	sub	a1,a2,a1
   244e8:	40f707b3          	sub	a5,a4,a5
   244ec:	00b63633          	sltu	a2,a2,a1
   244f0:	40c787b3          	sub	a5,a5,a2
   244f4:	fc9ff06f          	j	244bc <__adddf3+0x544>
/home/hdg/Desktop/desktop/toolchain/riscv-gnu-toolchain/build-gcc-newlib-stage2/riscv64-vega-elf/rv32im/ilp32/libgcc/../../../../.././riscv-gcc/libgcc/soft-fp/adddf3.c:46 (discriminator 329)
   244f8:	00a865b3          	or	a1,a6,a0
   244fc:	22058863          	beqz	a1,2472c <__adddf3+0x7b4>
/home/hdg/Desktop/desktop/toolchain/riscv-gnu-toolchain/build-gcc-newlib-stage2/riscv64-vega-elf/rv32im/ilp32/libgcc/../../../../.././riscv-gcc/libgcc/soft-fp/adddf3.c:46
   24500:	00050793          	mv	a5,a0
   24504:	00080593          	mv	a1,a6
   24508:	d2dff06f          	j	24234 <__adddf3+0x2bc>
/home/hdg/Desktop/desktop/toolchain/riscv-gnu-toolchain/build-gcc-newlib-stage2/riscv64-vega-elf/rv32im/ilp32/libgcc/../../../../.././riscv-gcc/libgcc/soft-fp/adddf3.c:46 (discriminator 348)
   2450c:	00081c63          	bnez	a6,24524 <__adddf3+0x5ac>
/home/hdg/Desktop/desktop/toolchain/riscv-gnu-toolchain/build-gcc-newlib-stage2/riscv64-vega-elf/rv32im/ilp32/libgcc/../../../../.././riscv-gcc/libgcc/soft-fp/adddf3.c:46 (discriminator 349)
   24510:	22050263          	beqz	a0,24734 <__adddf3+0x7bc>
/home/hdg/Desktop/desktop/toolchain/riscv-gnu-toolchain/build-gcc-newlib-stage2/riscv64-vega-elf/rv32im/ilp32/libgcc/../../../../.././riscv-gcc/libgcc/soft-fp/adddf3.c:45
   24514:	00070793          	mv	a5,a4
   24518:	00060593          	mv	a1,a2
/home/hdg/Desktop/desktop/toolchain/riscv-gnu-toolchain/build-gcc-newlib-stage2/riscv64-vega-elf/rv32im/ilp32/libgcc/../../../../.././riscv-gcc/libgcc/soft-fp/adddf3.c:46
   2451c:	00068493          	mv	s1,a3
   24520:	afdff06f          	j	2401c <__adddf3+0xa4>
/home/hdg/Desktop/desktop/toolchain/riscv-gnu-toolchain/build-gcc-newlib-stage2/riscv64-vega-elf/rv32im/ilp32/libgcc/../../../../.././riscv-gcc/libgcc/soft-fp/adddf3.c:46 (discriminator 350)
   24524:	ae050ce3          	beqz	a0,2401c <__adddf3+0xa4>
   24528:	d41ff06f          	j	24268 <__adddf3+0x2f0>
/home/hdg/Desktop/desktop/toolchain/riscv-gnu-toolchain/build-gcc-newlib-stage2/riscv64-vega-elf/rv32im/ilp32/libgcc/../../../../.././riscv-gcc/libgcc/soft-fp/adddf3.c:46 (discriminator 315)
   2452c:	40c589b3          	sub	s3,a1,a2
   24530:	0135b533          	sltu	a0,a1,s3
   24534:	40e78933          	sub	s2,a5,a4
   24538:	40a90933          	sub	s2,s2,a0
   2453c:	00800537          	lui	a0,0x800
   24540:	00a97533          	and	a0,s2,a0
   24544:	08050463          	beqz	a0,245cc <__adddf3+0x654>
/home/hdg/Desktop/desktop/toolchain/riscv-gnu-toolchain/build-gcc-newlib-stage2/riscv64-vega-elf/rv32im/ilp32/libgcc/../../../../.././riscv-gcc/libgcc/soft-fp/adddf3.c:46 (discriminator 366)
   24548:	40b609b3          	sub	s3,a2,a1
   2454c:	40f707b3          	sub	a5,a4,a5
   24550:	01363633          	sltu	a2,a2,s3
   24554:	40c78933          	sub	s2,a5,a2
   24558:	00068493          	mv	s1,a3
/home/hdg/Desktop/desktop/toolchain/riscv-gnu-toolchain/build-gcc-newlib-stage2/riscv64-vega-elf/rv32im/ilp32/libgcc/../../../../.././riscv-gcc/libgcc/soft-fp/adddf3.c:46 (discriminator 375)
   2455c:	08090263          	beqz	s2,245e0 <__adddf3+0x668>
/home/hdg/Desktop/desktop/toolchain/riscv-gnu-toolchain/build-gcc-newlib-stage2/riscv64-vega-elf/rv32im/ilp32/libgcc/../../../../.././riscv-gcc/libgcc/soft-fp/adddf3.c:46 (discriminator 378)
   24560:	00090513          	mv	a0,s2
   24564:	5fc020ef          	jal	ra,26b60 <__clzsi2>
/home/hdg/Desktop/desktop/toolchain/riscv-gnu-toolchain/build-gcc-newlib-stage2/riscv64-vega-elf/rv32im/ilp32/libgcc/../../../../.././riscv-gcc/libgcc/soft-fp/adddf3.c:46 (discriminator 392)
   24568:	ff850713          	addi	a4,a0,-8 # 7ffff8 <__global_pointer$+0x7d84b4>
   2456c:	01f00793          	li	a5,31
   24570:	08e7c063          	blt	a5,a4,245f0 <__adddf3+0x678>
/home/hdg/Desktop/desktop/toolchain/riscv-gnu-toolchain/build-gcc-newlib-stage2/riscv64-vega-elf/rv32im/ilp32/libgcc/../../../../.././riscv-gcc/libgcc/soft-fp/adddf3.c:46 (discriminator 398)
   24574:	02000793          	li	a5,32
   24578:	40e787b3          	sub	a5,a5,a4
   2457c:	00e91933          	sll	s2,s2,a4
   24580:	00f9d7b3          	srl	a5,s3,a5
   24584:	0127e7b3          	or	a5,a5,s2
   24588:	00e995b3          	sll	a1,s3,a4
/home/hdg/Desktop/desktop/toolchain/riscv-gnu-toolchain/build-gcc-newlib-stage2/riscv64-vega-elf/rv32im/ilp32/libgcc/../../../../.././riscv-gcc/libgcc/soft-fp/adddf3.c:46 (discriminator 402)
   2458c:	0a874463          	blt	a4,s0,24634 <__adddf3+0x6bc>
/home/hdg/Desktop/desktop/toolchain/riscv-gnu-toolchain/build-gcc-newlib-stage2/riscv64-vega-elf/rv32im/ilp32/libgcc/../../../../.././riscv-gcc/libgcc/soft-fp/adddf3.c:46 (discriminator 403)
   24590:	40870733          	sub	a4,a4,s0
   24594:	00170693          	addi	a3,a4,1
   24598:	01f00613          	li	a2,31
   2459c:	06d64263          	blt	a2,a3,24600 <__adddf3+0x688>
/home/hdg/Desktop/desktop/toolchain/riscv-gnu-toolchain/build-gcc-newlib-stage2/riscv64-vega-elf/rv32im/ilp32/libgcc/../../../../.././riscv-gcc/libgcc/soft-fp/adddf3.c:46 (discriminator 405)
   245a0:	02000713          	li	a4,32
   245a4:	40d70733          	sub	a4,a4,a3
   245a8:	00e79633          	sll	a2,a5,a4
   245ac:	00d5d533          	srl	a0,a1,a3
   245b0:	00e595b3          	sll	a1,a1,a4
   245b4:	00a66633          	or	a2,a2,a0
   245b8:	00b035b3          	snez	a1,a1
   245bc:	00b665b3          	or	a1,a2,a1
   245c0:	00d7d7b3          	srl	a5,a5,a3
/home/hdg/Desktop/desktop/toolchain/riscv-gnu-toolchain/build-gcc-newlib-stage2/riscv64-vega-elf/rv32im/ilp32/libgcc/../../../../.././riscv-gcc/libgcc/soft-fp/adddf3.c:46 (discriminator 417)
   245c4:	00000413          	li	s0,0
   245c8:	c6dff06f          	j	24234 <__adddf3+0x2bc>
/home/hdg/Desktop/desktop/toolchain/riscv-gnu-toolchain/build-gcc-newlib-stage2/riscv64-vega-elf/rv32im/ilp32/libgcc/../../../../.././riscv-gcc/libgcc/soft-fp/adddf3.c:46 (discriminator 367)
   245cc:	0129e5b3          	or	a1,s3,s2
   245d0:	f80596e3          	bnez	a1,2455c <__adddf3+0x5e4>
   245d4:	00000793          	li	a5,0
/home/hdg/Desktop/desktop/toolchain/riscv-gnu-toolchain/build-gcc-newlib-stage2/riscv64-vega-elf/rv32im/ilp32/libgcc/../../../../.././riscv-gcc/libgcc/soft-fp/adddf3.c:46
   245d8:	00000413          	li	s0,0
   245dc:	1480006f          	j	24724 <__adddf3+0x7ac>
/home/hdg/Desktop/desktop/toolchain/riscv-gnu-toolchain/build-gcc-newlib-stage2/riscv64-vega-elf/rv32im/ilp32/libgcc/../../../../.././riscv-gcc/libgcc/soft-fp/adddf3.c:46 (discriminator 385)
   245e0:	00098513          	mv	a0,s3
   245e4:	57c020ef          	jal	ra,26b60 <__clzsi2>
   245e8:	02050513          	addi	a0,a0,32
   245ec:	f7dff06f          	j	24568 <__adddf3+0x5f0>
/home/hdg/Desktop/desktop/toolchain/riscv-gnu-toolchain/build-gcc-newlib-stage2/riscv64-vega-elf/rv32im/ilp32/libgcc/../../../../.././riscv-gcc/libgcc/soft-fp/adddf3.c:46 (discriminator 394)
   245f0:	fd850793          	addi	a5,a0,-40
   245f4:	00f997b3          	sll	a5,s3,a5
   245f8:	00000593          	li	a1,0
   245fc:	f91ff06f          	j	2458c <__adddf3+0x614>
/home/hdg/Desktop/desktop/toolchain/riscv-gnu-toolchain/build-gcc-newlib-stage2/riscv64-vega-elf/rv32im/ilp32/libgcc/../../../../.././riscv-gcc/libgcc/soft-fp/adddf3.c:46 (discriminator 406)
   24600:	fe170713          	addi	a4,a4,-31
   24604:	02000613          	li	a2,32
   24608:	00e7d733          	srl	a4,a5,a4
   2460c:	00000513          	li	a0,0
   24610:	00c68863          	beq	a3,a2,24620 <__adddf3+0x6a8>
/home/hdg/Desktop/desktop/toolchain/riscv-gnu-toolchain/build-gcc-newlib-stage2/riscv64-vega-elf/rv32im/ilp32/libgcc/../../../../.././riscv-gcc/libgcc/soft-fp/adddf3.c:46 (discriminator 414)
   24614:	04000513          	li	a0,64
   24618:	40d50533          	sub	a0,a0,a3
   2461c:	00a79533          	sll	a0,a5,a0
/home/hdg/Desktop/desktop/toolchain/riscv-gnu-toolchain/build-gcc-newlib-stage2/riscv64-vega-elf/rv32im/ilp32/libgcc/../../../../.././riscv-gcc/libgcc/soft-fp/adddf3.c:46 (discriminator 417)
   24620:	00a5e533          	or	a0,a1,a0
   24624:	00a03533          	snez	a0,a0
   24628:	00a765b3          	or	a1,a4,a0
   2462c:	00000793          	li	a5,0
   24630:	f95ff06f          	j	245c4 <__adddf3+0x64c>
/home/hdg/Desktop/desktop/toolchain/riscv-gnu-toolchain/build-gcc-newlib-stage2/riscv64-vega-elf/rv32im/ilp32/libgcc/../../../../.././riscv-gcc/libgcc/soft-fp/adddf3.c:46 (discriminator 404)
   24634:	40e40433          	sub	s0,s0,a4
   24638:	ff800737          	lui	a4,0xff800
   2463c:	fff70713          	addi	a4,a4,-1 # ff7fffff <__global_pointer$+0xff7d84bb>
   24640:	00e7f7b3          	and	a5,a5,a4
   24644:	bf1ff06f          	j	24234 <__adddf3+0x2bc>
/home/hdg/Desktop/desktop/toolchain/riscv-gnu-toolchain/build-gcc-newlib-stage2/riscv64-vega-elf/rv32im/ilp32/libgcc/../../../../.././riscv-gcc/libgcc/soft-fp/adddf3.c:45
   24648:	00070793          	mv	a5,a4
   2464c:	00060593          	mv	a1,a2
/home/hdg/Desktop/desktop/toolchain/riscv-gnu-toolchain/build-gcc-newlib-stage2/riscv64-vega-elf/rv32im/ilp32/libgcc/../../../../.././riscv-gcc/libgcc/soft-fp/adddf3.c:46
   24650:	00050413          	mv	s0,a0
   24654:	be1ff06f          	j	24234 <__adddf3+0x2bc>
/home/hdg/Desktop/desktop/toolchain/riscv-gnu-toolchain/build-gcc-newlib-stage2/riscv64-vega-elf/rv32im/ilp32/libgcc/../../../../.././riscv-gcc/libgcc/soft-fp/adddf3.c:45
   24658:	00070793          	mv	a5,a4
   2465c:	00060593          	mv	a1,a2
   24660:	bd5ff06f          	j	24234 <__adddf3+0x2bc>
   24664:	7ff00413          	li	s0,2047
   24668:	00000793          	li	a5,0
   2466c:	00000593          	li	a1,0
/home/hdg/Desktop/desktop/toolchain/riscv-gnu-toolchain/build-gcc-newlib-stage2/riscv64-vega-elf/rv32im/ilp32/libgcc/../../../../.././riscv-gcc/libgcc/soft-fp/adddf3.c:47 (discriminator 47)
   24670:	00800737          	lui	a4,0x800
   24674:	00e7f733          	and	a4,a5,a4
   24678:	00070e63          	beqz	a4,24694 <__adddf3+0x71c>
/home/hdg/Desktop/desktop/toolchain/riscv-gnu-toolchain/build-gcc-newlib-stage2/riscv64-vega-elf/rv32im/ilp32/libgcc/../../../../.././riscv-gcc/libgcc/soft-fp/adddf3.c:47 (discriminator 63)
   2467c:	00140413          	addi	s0,s0,1
   24680:	7ff00713          	li	a4,2047
   24684:	0ce40063          	beq	s0,a4,24744 <__adddf3+0x7cc>
/home/hdg/Desktop/desktop/toolchain/riscv-gnu-toolchain/build-gcc-newlib-stage2/riscv64-vega-elf/rv32im/ilp32/libgcc/../../../../.././riscv-gcc/libgcc/soft-fp/adddf3.c:47
   24688:	ff800737          	lui	a4,0xff800
   2468c:	fff70713          	addi	a4,a4,-1 # ff7fffff <__global_pointer$+0xff7d84bb>
   24690:	00e7f7b3          	and	a5,a5,a4
/home/hdg/Desktop/desktop/toolchain/riscv-gnu-toolchain/build-gcc-newlib-stage2/riscv64-vega-elf/rv32im/ilp32/libgcc/../../../../.././riscv-gcc/libgcc/soft-fp/adddf3.c:47 (discriminator 79)
   24694:	01d79713          	slli	a4,a5,0x1d
   24698:	0035d513          	srli	a0,a1,0x3
   2469c:	00a76533          	or	a0,a4,a0
   246a0:	7ff00713          	li	a4,2047
   246a4:	0037d793          	srli	a5,a5,0x3
   246a8:	00e41e63          	bne	s0,a4,246c4 <__adddf3+0x74c>
/home/hdg/Desktop/desktop/toolchain/riscv-gnu-toolchain/build-gcc-newlib-stage2/riscv64-vega-elf/rv32im/ilp32/libgcc/../../../../.././riscv-gcc/libgcc/soft-fp/adddf3.c:47 (discriminator 80)
   246ac:	00f56533          	or	a0,a0,a5
   246b0:	00000793          	li	a5,0
   246b4:	00050863          	beqz	a0,246c4 <__adddf3+0x74c>
/home/hdg/Desktop/desktop/toolchain/riscv-gnu-toolchain/build-gcc-newlib-stage2/riscv64-vega-elf/rv32im/ilp32/libgcc/../../../../.././riscv-gcc/libgcc/soft-fp/adddf3.c:47
   246b8:	000807b7          	lui	a5,0x80
   246bc:	00000513          	li	a0,0
   246c0:	00000493          	li	s1,0
/home/hdg/Desktop/desktop/toolchain/riscv-gnu-toolchain/build-gcc-newlib-stage2/riscv64-vega-elf/rv32im/ilp32/libgcc/../../../../.././riscv-gcc/libgcc/soft-fp/adddf3.c:47 (discriminator 90)
   246c4:	01441713          	slli	a4,s0,0x14
   246c8:	7ff006b7          	lui	a3,0x7ff00
   246cc:	00c79793          	slli	a5,a5,0xc
/home/hdg/Desktop/desktop/toolchain/riscv-gnu-toolchain/build-gcc-newlib-stage2/riscv64-vega-elf/rv32im/ilp32/libgcc/../../../../.././riscv-gcc/libgcc/soft-fp/adddf3.c:51 (discriminator 90)
   246d0:	01c12083          	lw	ra,28(sp)
   246d4:	01812403          	lw	s0,24(sp)
/home/hdg/Desktop/desktop/toolchain/riscv-gnu-toolchain/build-gcc-newlib-stage2/riscv64-vega-elf/rv32im/ilp32/libgcc/../../../../.././riscv-gcc/libgcc/soft-fp/adddf3.c:47 (discriminator 90)
   246d8:	00d77733          	and	a4,a4,a3
   246dc:	00c7d793          	srli	a5,a5,0xc
   246e0:	01f49493          	slli	s1,s1,0x1f
   246e4:	00f767b3          	or	a5,a4,a5
   246e8:	0097e733          	or	a4,a5,s1
/home/hdg/Desktop/desktop/toolchain/riscv-gnu-toolchain/build-gcc-newlib-stage2/riscv64-vega-elf/rv32im/ilp32/libgcc/../../../../.././riscv-gcc/libgcc/soft-fp/adddf3.c:51 (discriminator 90)
   246ec:	01012903          	lw	s2,16(sp)
   246f0:	01412483          	lw	s1,20(sp)
   246f4:	00c12983          	lw	s3,12(sp)
   246f8:	00070593          	mv	a1,a4
   246fc:	02010113          	addi	sp,sp,32
   24700:	00008067          	ret
   24704:	00080413          	mv	s0,a6
   24708:	b2dff06f          	j	24234 <__adddf3+0x2bc>
/home/hdg/Desktop/desktop/toolchain/riscv-gnu-toolchain/build-gcc-newlib-stage2/riscv64-vega-elf/rv32im/ilp32/libgcc/../../../../.././riscv-gcc/libgcc/soft-fp/adddf3.c:45
   2470c:	00070793          	mv	a5,a4
   24710:	00060593          	mv	a1,a2
/home/hdg/Desktop/desktop/toolchain/riscv-gnu-toolchain/build-gcc-newlib-stage2/riscv64-vega-elf/rv32im/ilp32/libgcc/../../../../.././riscv-gcc/libgcc/soft-fp/adddf3.c:46
   24714:	00050413          	mv	s0,a0
   24718:	da5ff06f          	j	244bc <__adddf3+0x544>
   2471c:	00000793          	li	a5,0
   24720:	00000593          	li	a1,0
   24724:	00000493          	li	s1,0
   24728:	f49ff06f          	j	24670 <__adddf3+0x6f8>
   2472c:	00000793          	li	a5,0
   24730:	ff5ff06f          	j	24724 <__adddf3+0x7ac>
   24734:	00000593          	li	a1,0
   24738:	00000493          	li	s1,0
   2473c:	004007b7          	lui	a5,0x400
   24740:	b35ff06f          	j	24274 <__adddf3+0x2fc>
   24744:	00000793          	li	a5,0
   24748:	00000593          	li	a1,0
   2474c:	f49ff06f          	j	24694 <__adddf3+0x71c>

00024750 <__divdf3>:
__divdf3():
/home/hdg/Desktop/desktop/toolchain/riscv-gnu-toolchain/build-gcc-newlib-stage2/riscv64-vega-elf/rv32im/ilp32/libgcc/../../../../.././riscv-gcc/libgcc/soft-fp/divdf3.c:36
   24750:	fd010113          	addi	sp,sp,-48
   24754:	03212023          	sw	s2,32(sp)
/home/hdg/Desktop/desktop/toolchain/riscv-gnu-toolchain/build-gcc-newlib-stage2/riscv64-vega-elf/rv32im/ilp32/libgcc/../../../../.././riscv-gcc/libgcc/soft-fp/divdf3.c:44
   24758:	0145d913          	srli	s2,a1,0x14
/home/hdg/Desktop/desktop/toolchain/riscv-gnu-toolchain/build-gcc-newlib-stage2/riscv64-vega-elf/rv32im/ilp32/libgcc/../../../../.././riscv-gcc/libgcc/soft-fp/divdf3.c:36
   2475c:	02912223          	sw	s1,36(sp)
   24760:	01312e23          	sw	s3,28(sp)
   24764:	01412c23          	sw	s4,24(sp)
   24768:	01612823          	sw	s6,16(sp)
   2476c:	01812423          	sw	s8,8(sp)
/home/hdg/Desktop/desktop/toolchain/riscv-gnu-toolchain/build-gcc-newlib-stage2/riscv64-vega-elf/rv32im/ilp32/libgcc/../../../../.././riscv-gcc/libgcc/soft-fp/divdf3.c:44
   24770:	00c59493          	slli	s1,a1,0xc
/home/hdg/Desktop/desktop/toolchain/riscv-gnu-toolchain/build-gcc-newlib-stage2/riscv64-vega-elf/rv32im/ilp32/libgcc/../../../../.././riscv-gcc/libgcc/soft-fp/divdf3.c:36
   24774:	02112623          	sw	ra,44(sp)
   24778:	02812423          	sw	s0,40(sp)
   2477c:	01512a23          	sw	s5,20(sp)
   24780:	01712623          	sw	s7,12(sp)
/home/hdg/Desktop/desktop/toolchain/riscv-gnu-toolchain/build-gcc-newlib-stage2/riscv64-vega-elf/rv32im/ilp32/libgcc/../../../../.././riscv-gcc/libgcc/soft-fp/divdf3.c:44
   24784:	7ff97913          	andi	s2,s2,2047
/home/hdg/Desktop/desktop/toolchain/riscv-gnu-toolchain/build-gcc-newlib-stage2/riscv64-vega-elf/rv32im/ilp32/libgcc/../../../../.././riscv-gcc/libgcc/soft-fp/divdf3.c:36
   24788:	00050a13          	mv	s4,a0
   2478c:	00060b13          	mv	s6,a2
   24790:	00068c13          	mv	s8,a3
/home/hdg/Desktop/desktop/toolchain/riscv-gnu-toolchain/build-gcc-newlib-stage2/riscv64-vega-elf/rv32im/ilp32/libgcc/../../../../.././riscv-gcc/libgcc/soft-fp/divdf3.c:44
   24794:	00c4d493          	srli	s1,s1,0xc
   24798:	01f5d993          	srli	s3,a1,0x1f
   2479c:	0a090263          	beqz	s2,24840 <__divdf3+0xf0>
   247a0:	7ff00793          	li	a5,2047
   247a4:	10f90063          	beq	s2,a5,248a4 <__divdf3+0x154>
/home/hdg/Desktop/desktop/toolchain/riscv-gnu-toolchain/build-gcc-newlib-stage2/riscv64-vega-elf/rv32im/ilp32/libgcc/../../../../.././riscv-gcc/libgcc/soft-fp/divdf3.c:44 (discriminator 1)
   247a8:	01d55a93          	srli	s5,a0,0x1d
   247ac:	00349493          	slli	s1,s1,0x3
   247b0:	009ae4b3          	or	s1,s5,s1
   247b4:	00800ab7          	lui	s5,0x800
   247b8:	0154eab3          	or	s5,s1,s5
   247bc:	00351413          	slli	s0,a0,0x3
   247c0:	c0190913          	addi	s2,s2,-1023
/home/hdg/Desktop/desktop/toolchain/riscv-gnu-toolchain/build-gcc-newlib-stage2/riscv64-vega-elf/rv32im/ilp32/libgcc/../../../../.././riscv-gcc/libgcc/soft-fp/divdf3.c:44 (discriminator 41)
   247c4:	00000b93          	li	s7,0
/home/hdg/Desktop/desktop/toolchain/riscv-gnu-toolchain/build-gcc-newlib-stage2/riscv64-vega-elf/rv32im/ilp32/libgcc/../../../../.././riscv-gcc/libgcc/soft-fp/divdf3.c:45 (discriminator 8)
   247c8:	00cc1513          	slli	a0,s8,0xc
   247cc:	00c55493          	srli	s1,a0,0xc
   247d0:	014c5513          	srli	a0,s8,0x14
   247d4:	7ff57593          	andi	a1,a0,2047
   247d8:	01fc5c13          	srli	s8,s8,0x1f
   247dc:	10058263          	beqz	a1,248e0 <__divdf3+0x190>
/home/hdg/Desktop/desktop/toolchain/riscv-gnu-toolchain/build-gcc-newlib-stage2/riscv64-vega-elf/rv32im/ilp32/libgcc/../../../../.././riscv-gcc/libgcc/soft-fp/divdf3.c:45
   247e0:	7ff00793          	li	a5,2047
   247e4:	16f58463          	beq	a1,a5,2494c <__divdf3+0x1fc>
/home/hdg/Desktop/desktop/toolchain/riscv-gnu-toolchain/build-gcc-newlib-stage2/riscv64-vega-elf/rv32im/ilp32/libgcc/../../../../.././riscv-gcc/libgcc/soft-fp/divdf3.c:45 (discriminator 1)
   247e8:	00349513          	slli	a0,s1,0x3
   247ec:	01db5793          	srli	a5,s6,0x1d
   247f0:	00a7e533          	or	a0,a5,a0
   247f4:	008004b7          	lui	s1,0x800
   247f8:	009564b3          	or	s1,a0,s1
   247fc:	003b1f93          	slli	t6,s6,0x3
   24800:	c0158513          	addi	a0,a1,-1023
/home/hdg/Desktop/desktop/toolchain/riscv-gnu-toolchain/build-gcc-newlib-stage2/riscv64-vega-elf/rv32im/ilp32/libgcc/../../../../.././riscv-gcc/libgcc/soft-fp/divdf3.c:45 (discriminator 41)
   24804:	00000793          	li	a5,0
/home/hdg/Desktop/desktop/toolchain/riscv-gnu-toolchain/build-gcc-newlib-stage2/riscv64-vega-elf/rv32im/ilp32/libgcc/../../../../.././riscv-gcc/libgcc/soft-fp/divdf3.c:46 (discriminator 8)
   24808:	002b9713          	slli	a4,s7,0x2
   2480c:	00f76733          	or	a4,a4,a5
   24810:	fff70713          	addi	a4,a4,-1
   24814:	00e00613          	li	a2,14
   24818:	0189c6b3          	xor	a3,s3,s8
   2481c:	40a905b3          	sub	a1,s2,a0
   24820:	16e66263          	bltu	a2,a4,24984 <__divdf3+0x234>
   24824:	00003617          	auipc	a2,0x3
   24828:	8f460613          	addi	a2,a2,-1804 # 27118 <main+0x56c>
   2482c:	00271713          	slli	a4,a4,0x2
   24830:	00c70733          	add	a4,a4,a2
   24834:	00072703          	lw	a4,0(a4)
   24838:	00c70733          	add	a4,a4,a2
   2483c:	00070067          	jr	a4
/home/hdg/Desktop/desktop/toolchain/riscv-gnu-toolchain/build-gcc-newlib-stage2/riscv64-vega-elf/rv32im/ilp32/libgcc/../../../../.././riscv-gcc/libgcc/soft-fp/divdf3.c:44 (discriminator 2)
   24840:	00a4eab3          	or	s5,s1,a0
   24844:	060a8e63          	beqz	s5,248c0 <__divdf3+0x170>
/home/hdg/Desktop/desktop/toolchain/riscv-gnu-toolchain/build-gcc-newlib-stage2/riscv64-vega-elf/rv32im/ilp32/libgcc/../../../../.././riscv-gcc/libgcc/soft-fp/divdf3.c:44 (discriminator 13)
   24848:	04048063          	beqz	s1,24888 <__divdf3+0x138>
/home/hdg/Desktop/desktop/toolchain/riscv-gnu-toolchain/build-gcc-newlib-stage2/riscv64-vega-elf/rv32im/ilp32/libgcc/../../../../.././riscv-gcc/libgcc/soft-fp/divdf3.c:44 (discriminator 17)
   2484c:	00048513          	mv	a0,s1
   24850:	310020ef          	jal	ra,26b60 <__clzsi2>
/home/hdg/Desktop/desktop/toolchain/riscv-gnu-toolchain/build-gcc-newlib-stage2/riscv64-vega-elf/rv32im/ilp32/libgcc/../../../../.././riscv-gcc/libgcc/soft-fp/divdf3.c:44 (discriminator 31)
   24854:	ff550793          	addi	a5,a0,-11
   24858:	01c00713          	li	a4,28
   2485c:	02f74c63          	blt	a4,a5,24894 <__divdf3+0x144>
/home/hdg/Desktop/desktop/toolchain/riscv-gnu-toolchain/build-gcc-newlib-stage2/riscv64-vega-elf/rv32im/ilp32/libgcc/../../../../.././riscv-gcc/libgcc/soft-fp/divdf3.c:44 (discriminator 32)
   24860:	01d00a93          	li	s5,29
   24864:	ff850413          	addi	s0,a0,-8
   24868:	40fa8ab3          	sub	s5,s5,a5
   2486c:	008494b3          	sll	s1,s1,s0
   24870:	015a5ab3          	srl	s5,s4,s5
   24874:	009aeab3          	or	s5,s5,s1
   24878:	008a1433          	sll	s0,s4,s0
/home/hdg/Desktop/desktop/toolchain/riscv-gnu-toolchain/build-gcc-newlib-stage2/riscv64-vega-elf/rv32im/ilp32/libgcc/../../../../.././riscv-gcc/libgcc/soft-fp/divdf3.c:44 (discriminator 41)
   2487c:	c0d00593          	li	a1,-1011
   24880:	40a58933          	sub	s2,a1,a0
   24884:	f41ff06f          	j	247c4 <__divdf3+0x74>
/home/hdg/Desktop/desktop/toolchain/riscv-gnu-toolchain/build-gcc-newlib-stage2/riscv64-vega-elf/rv32im/ilp32/libgcc/../../../../.././riscv-gcc/libgcc/soft-fp/divdf3.c:44 (discriminator 24)
   24888:	2d8020ef          	jal	ra,26b60 <__clzsi2>
   2488c:	02050513          	addi	a0,a0,32
   24890:	fc5ff06f          	j	24854 <__divdf3+0x104>
/home/hdg/Desktop/desktop/toolchain/riscv-gnu-toolchain/build-gcc-newlib-stage2/riscv64-vega-elf/rv32im/ilp32/libgcc/../../../../.././riscv-gcc/libgcc/soft-fp/divdf3.c:44 (discriminator 33)
   24894:	fd850493          	addi	s1,a0,-40
   24898:	009a1ab3          	sll	s5,s4,s1
   2489c:	00000413          	li	s0,0
   248a0:	fddff06f          	j	2487c <__divdf3+0x12c>
/home/hdg/Desktop/desktop/toolchain/riscv-gnu-toolchain/build-gcc-newlib-stage2/riscv64-vega-elf/rv32im/ilp32/libgcc/../../../../.././riscv-gcc/libgcc/soft-fp/divdf3.c:44 (discriminator 3)
   248a4:	00a4eab3          	or	s5,s1,a0
   248a8:	020a8463          	beqz	s5,248d0 <__divdf3+0x180>
   248ac:	00050413          	mv	s0,a0
/home/hdg/Desktop/desktop/toolchain/riscv-gnu-toolchain/build-gcc-newlib-stage2/riscv64-vega-elf/rv32im/ilp32/libgcc/../../../../.././riscv-gcc/libgcc/soft-fp/divdf3.c:44
   248b0:	00048a93          	mv	s5,s1
   248b4:	7ff00913          	li	s2,2047
   248b8:	00300b93          	li	s7,3
   248bc:	f0dff06f          	j	247c8 <__divdf3+0x78>
   248c0:	00000413          	li	s0,0
   248c4:	00000913          	li	s2,0
   248c8:	00100b93          	li	s7,1
   248cc:	efdff06f          	j	247c8 <__divdf3+0x78>
   248d0:	00000413          	li	s0,0
   248d4:	7ff00913          	li	s2,2047
   248d8:	00200b93          	li	s7,2
   248dc:	eedff06f          	j	247c8 <__divdf3+0x78>
/home/hdg/Desktop/desktop/toolchain/riscv-gnu-toolchain/build-gcc-newlib-stage2/riscv64-vega-elf/rv32im/ilp32/libgcc/../../../../.././riscv-gcc/libgcc/soft-fp/divdf3.c:45 (discriminator 2)
   248e0:	0164efb3          	or	t6,s1,s6
   248e4:	080f8063          	beqz	t6,24964 <__divdf3+0x214>
/home/hdg/Desktop/desktop/toolchain/riscv-gnu-toolchain/build-gcc-newlib-stage2/riscv64-vega-elf/rv32im/ilp32/libgcc/../../../../.././riscv-gcc/libgcc/soft-fp/divdf3.c:45 (discriminator 13)
   248e8:	04048263          	beqz	s1,2492c <__divdf3+0x1dc>
/home/hdg/Desktop/desktop/toolchain/riscv-gnu-toolchain/build-gcc-newlib-stage2/riscv64-vega-elf/rv32im/ilp32/libgcc/../../../../.././riscv-gcc/libgcc/soft-fp/divdf3.c:45 (discriminator 17)
   248ec:	00048513          	mv	a0,s1
   248f0:	270020ef          	jal	ra,26b60 <__clzsi2>
   248f4:	00050593          	mv	a1,a0
/home/hdg/Desktop/desktop/toolchain/riscv-gnu-toolchain/build-gcc-newlib-stage2/riscv64-vega-elf/rv32im/ilp32/libgcc/../../../../.././riscv-gcc/libgcc/soft-fp/divdf3.c:45 (discriminator 31)
   248f8:	ff558793          	addi	a5,a1,-11
   248fc:	01c00713          	li	a4,28
   24900:	02f74e63          	blt	a4,a5,2493c <__divdf3+0x1ec>
/home/hdg/Desktop/desktop/toolchain/riscv-gnu-toolchain/build-gcc-newlib-stage2/riscv64-vega-elf/rv32im/ilp32/libgcc/../../../../.././riscv-gcc/libgcc/soft-fp/divdf3.c:45 (discriminator 32)
   24904:	01d00693          	li	a3,29
   24908:	ff858f93          	addi	t6,a1,-8
   2490c:	40f686b3          	sub	a3,a3,a5
   24910:	01f49533          	sll	a0,s1,t6
   24914:	00db56b3          	srl	a3,s6,a3
   24918:	00a6e4b3          	or	s1,a3,a0
   2491c:	01fb1fb3          	sll	t6,s6,t6
/home/hdg/Desktop/desktop/toolchain/riscv-gnu-toolchain/build-gcc-newlib-stage2/riscv64-vega-elf/rv32im/ilp32/libgcc/../../../../.././riscv-gcc/libgcc/soft-fp/divdf3.c:45 (discriminator 41)
   24920:	c0d00693          	li	a3,-1011
   24924:	40b68533          	sub	a0,a3,a1
   24928:	eddff06f          	j	24804 <__divdf3+0xb4>
/home/hdg/Desktop/desktop/toolchain/riscv-gnu-toolchain/build-gcc-newlib-stage2/riscv64-vega-elf/rv32im/ilp32/libgcc/../../../../.././riscv-gcc/libgcc/soft-fp/divdf3.c:45 (discriminator 24)
   2492c:	000b0513          	mv	a0,s6
   24930:	230020ef          	jal	ra,26b60 <__clzsi2>
   24934:	02050593          	addi	a1,a0,32
   24938:	fc1ff06f          	j	248f8 <__divdf3+0x1a8>
/home/hdg/Desktop/desktop/toolchain/riscv-gnu-toolchain/build-gcc-newlib-stage2/riscv64-vega-elf/rv32im/ilp32/libgcc/../../../../.././riscv-gcc/libgcc/soft-fp/divdf3.c:45 (discriminator 33)
   2493c:	fd858513          	addi	a0,a1,-40
   24940:	00ab14b3          	sll	s1,s6,a0
   24944:	00000f93          	li	t6,0
   24948:	fd9ff06f          	j	24920 <__divdf3+0x1d0>
/home/hdg/Desktop/desktop/toolchain/riscv-gnu-toolchain/build-gcc-newlib-stage2/riscv64-vega-elf/rv32im/ilp32/libgcc/../../../../.././riscv-gcc/libgcc/soft-fp/divdf3.c:45 (discriminator 3)
   2494c:	0164efb3          	or	t6,s1,s6
   24950:	020f8263          	beqz	t6,24974 <__divdf3+0x224>
/home/hdg/Desktop/desktop/toolchain/riscv-gnu-toolchain/build-gcc-newlib-stage2/riscv64-vega-elf/rv32im/ilp32/libgcc/../../../../.././riscv-gcc/libgcc/soft-fp/divdf3.c:45
   24954:	000b0f93          	mv	t6,s6
   24958:	7ff00513          	li	a0,2047
   2495c:	00300793          	li	a5,3
   24960:	ea9ff06f          	j	24808 <__divdf3+0xb8>
   24964:	00000493          	li	s1,0
   24968:	00000513          	li	a0,0
   2496c:	00100793          	li	a5,1
   24970:	e99ff06f          	j	24808 <__divdf3+0xb8>
   24974:	00000493          	li	s1,0
   24978:	7ff00513          	li	a0,2047
   2497c:	00200793          	li	a5,2
   24980:	e89ff06f          	j	24808 <__divdf3+0xb8>
/home/hdg/Desktop/desktop/toolchain/riscv-gnu-toolchain/build-gcc-newlib-stage2/riscv64-vega-elf/rv32im/ilp32/libgcc/../../../../.././riscv-gcc/libgcc/soft-fp/divdf3.c:46 (discriminator 2)
   24984:	0154e663          	bltu	s1,s5,24990 <__divdf3+0x240>
/home/hdg/Desktop/desktop/toolchain/riscv-gnu-toolchain/build-gcc-newlib-stage2/riscv64-vega-elf/rv32im/ilp32/libgcc/../../../../.././riscv-gcc/libgcc/soft-fp/divdf3.c:46 (discriminator 11)
   24988:	349a9e63          	bne	s5,s1,24ce4 <__divdf3+0x594>
/home/hdg/Desktop/desktop/toolchain/riscv-gnu-toolchain/build-gcc-newlib-stage2/riscv64-vega-elf/rv32im/ilp32/libgcc/../../../../.././riscv-gcc/libgcc/soft-fp/divdf3.c:46 (discriminator 12)
   2498c:	35f46c63          	bltu	s0,t6,24ce4 <__divdf3+0x594>
/home/hdg/Desktop/desktop/toolchain/riscv-gnu-toolchain/build-gcc-newlib-stage2/riscv64-vega-elf/rv32im/ilp32/libgcc/../../../../.././riscv-gcc/libgcc/soft-fp/divdf3.c:46 (discriminator 14)
   24990:	01fa9613          	slli	a2,s5,0x1f
   24994:	00145713          	srli	a4,s0,0x1
   24998:	01f41793          	slli	a5,s0,0x1f
   2499c:	001ada93          	srli	s5,s5,0x1
   249a0:	00e66433          	or	s0,a2,a4
/home/hdg/Desktop/desktop/toolchain/riscv-gnu-toolchain/build-gcc-newlib-stage2/riscv64-vega-elf/rv32im/ilp32/libgcc/../../../../.././riscv-gcc/libgcc/soft-fp/divdf3.c:46 (discriminator 19)
   249a4:	00849513          	slli	a0,s1,0x8
   249a8:	018fd893          	srli	a7,t6,0x18
   249ac:	00a8e8b3          	or	a7,a7,a0
   249b0:	01055513          	srli	a0,a0,0x10
   249b4:	02aade33          	divu	t3,s5,a0
   249b8:	01089e93          	slli	t4,a7,0x10
   249bc:	010ede93          	srli	t4,t4,0x10
   249c0:	01045713          	srli	a4,s0,0x10
   249c4:	008f9313          	slli	t1,t6,0x8
   249c8:	02aafab3          	remu	s5,s5,a0
   249cc:	000e0613          	mv	a2,t3
   249d0:	03ce8833          	mul	a6,t4,t3
   249d4:	010a9a93          	slli	s5,s5,0x10
   249d8:	01576733          	or	a4,a4,s5
   249dc:	01077e63          	bgeu	a4,a6,249f8 <__divdf3+0x2a8>
/home/hdg/Desktop/desktop/toolchain/riscv-gnu-toolchain/build-gcc-newlib-stage2/riscv64-vega-elf/rv32im/ilp32/libgcc/../../../../.././riscv-gcc/libgcc/soft-fp/divdf3.c:46 (discriminator 22)
   249e0:	01170733          	add	a4,a4,a7
   249e4:	fffe0613          	addi	a2,t3,-1
   249e8:	01176863          	bltu	a4,a7,249f8 <__divdf3+0x2a8>
/home/hdg/Desktop/desktop/toolchain/riscv-gnu-toolchain/build-gcc-newlib-stage2/riscv64-vega-elf/rv32im/ilp32/libgcc/../../../../.././riscv-gcc/libgcc/soft-fp/divdf3.c:46 (discriminator 24)
   249ec:	01077663          	bgeu	a4,a6,249f8 <__divdf3+0x2a8>
/home/hdg/Desktop/desktop/toolchain/riscv-gnu-toolchain/build-gcc-newlib-stage2/riscv64-vega-elf/rv32im/ilp32/libgcc/../../../../.././riscv-gcc/libgcc/soft-fp/divdf3.c:46 (discriminator 26)
   249f0:	ffee0613          	addi	a2,t3,-2
   249f4:	01170733          	add	a4,a4,a7
/home/hdg/Desktop/desktop/toolchain/riscv-gnu-toolchain/build-gcc-newlib-stage2/riscv64-vega-elf/rv32im/ilp32/libgcc/../../../../.././riscv-gcc/libgcc/soft-fp/divdf3.c:46 (discriminator 28)
   249f8:	41070733          	sub	a4,a4,a6
   249fc:	02a75e33          	divu	t3,a4,a0
   24a00:	01041413          	slli	s0,s0,0x10
   24a04:	01045413          	srli	s0,s0,0x10
   24a08:	02a77733          	remu	a4,a4,a0
   24a0c:	000e0293          	mv	t0,t3
   24a10:	03ce8833          	mul	a6,t4,t3
   24a14:	01071713          	slli	a4,a4,0x10
   24a18:	00e46733          	or	a4,s0,a4
   24a1c:	01077e63          	bgeu	a4,a6,24a38 <__divdf3+0x2e8>
/home/hdg/Desktop/desktop/toolchain/riscv-gnu-toolchain/build-gcc-newlib-stage2/riscv64-vega-elf/rv32im/ilp32/libgcc/../../../../.././riscv-gcc/libgcc/soft-fp/divdf3.c:46 (discriminator 29)
   24a20:	01170733          	add	a4,a4,a7
   24a24:	fffe0293          	addi	t0,t3,-1
   24a28:	01176863          	bltu	a4,a7,24a38 <__divdf3+0x2e8>
/home/hdg/Desktop/desktop/toolchain/riscv-gnu-toolchain/build-gcc-newlib-stage2/riscv64-vega-elf/rv32im/ilp32/libgcc/../../../../.././riscv-gcc/libgcc/soft-fp/divdf3.c:46 (discriminator 31)
   24a2c:	01077663          	bgeu	a4,a6,24a38 <__divdf3+0x2e8>
/home/hdg/Desktop/desktop/toolchain/riscv-gnu-toolchain/build-gcc-newlib-stage2/riscv64-vega-elf/rv32im/ilp32/libgcc/../../../../.././riscv-gcc/libgcc/soft-fp/divdf3.c:46 (discriminator 33)
   24a30:	ffee0293          	addi	t0,t3,-2
   24a34:	01170733          	add	a4,a4,a7
/home/hdg/Desktop/desktop/toolchain/riscv-gnu-toolchain/build-gcc-newlib-stage2/riscv64-vega-elf/rv32im/ilp32/libgcc/../../../../.././riscv-gcc/libgcc/soft-fp/divdf3.c:46 (discriminator 35)
   24a38:	41070433          	sub	s0,a4,a6
   24a3c:	01061613          	slli	a2,a2,0x10
   24a40:	00010837          	lui	a6,0x10
   24a44:	005662b3          	or	t0,a2,t0
   24a48:	fff80e13          	addi	t3,a6,-1 # ffff <_tbss_end+0xffff>
   24a4c:	0102d613          	srli	a2,t0,0x10
   24a50:	01c2f733          	and	a4,t0,t3
   24a54:	01035f13          	srli	t5,t1,0x10
   24a58:	01c37e33          	and	t3,t1,t3
   24a5c:	02ee03b3          	mul	t2,t3,a4
   24a60:	03c604b3          	mul	s1,a2,t3
   24a64:	02ef0733          	mul	a4,t5,a4
   24a68:	03e60fb3          	mul	t6,a2,t5
   24a6c:	00970633          	add	a2,a4,s1
   24a70:	0103d713          	srli	a4,t2,0x10
   24a74:	00c70733          	add	a4,a4,a2
   24a78:	00977463          	bgeu	a4,s1,24a80 <__divdf3+0x330>
/home/hdg/Desktop/desktop/toolchain/riscv-gnu-toolchain/build-gcc-newlib-stage2/riscv64-vega-elf/rv32im/ilp32/libgcc/../../../../.././riscv-gcc/libgcc/soft-fp/divdf3.c:46 (discriminator 36)
   24a7c:	010f8fb3          	add	t6,t6,a6
/home/hdg/Desktop/desktop/toolchain/riscv-gnu-toolchain/build-gcc-newlib-stage2/riscv64-vega-elf/rv32im/ilp32/libgcc/../../../../.././riscv-gcc/libgcc/soft-fp/divdf3.c:46 (discriminator 38)
   24a80:	01075613          	srli	a2,a4,0x10
   24a84:	01f60633          	add	a2,a2,t6
   24a88:	00010fb7          	lui	t6,0x10
   24a8c:	ffff8f93          	addi	t6,t6,-1 # ffff <_tbss_end+0xffff>
   24a90:	01f77833          	and	a6,a4,t6
   24a94:	01081813          	slli	a6,a6,0x10
   24a98:	01f3f3b3          	and	t2,t2,t6
   24a9c:	00780833          	add	a6,a6,t2
   24aa0:	00c46863          	bltu	s0,a2,24ab0 <__divdf3+0x360>
/home/hdg/Desktop/desktop/toolchain/riscv-gnu-toolchain/build-gcc-newlib-stage2/riscv64-vega-elf/rv32im/ilp32/libgcc/../../../../.././riscv-gcc/libgcc/soft-fp/divdf3.c:46 (discriminator 40)
   24aa4:	00028493          	mv	s1,t0
   24aa8:	04c41463          	bne	s0,a2,24af0 <__divdf3+0x3a0>
/home/hdg/Desktop/desktop/toolchain/riscv-gnu-toolchain/build-gcc-newlib-stage2/riscv64-vega-elf/rv32im/ilp32/libgcc/../../../../.././riscv-gcc/libgcc/soft-fp/divdf3.c:46 (discriminator 41)
   24aac:	0507f263          	bgeu	a5,a6,24af0 <__divdf3+0x3a0>
/home/hdg/Desktop/desktop/toolchain/riscv-gnu-toolchain/build-gcc-newlib-stage2/riscv64-vega-elf/rv32im/ilp32/libgcc/../../../../.././riscv-gcc/libgcc/soft-fp/divdf3.c:46 (discriminator 43)
   24ab0:	006787b3          	add	a5,a5,t1
   24ab4:	0067b733          	sltu	a4,a5,t1
   24ab8:	01170733          	add	a4,a4,a7
   24abc:	00e40433          	add	s0,s0,a4
   24ac0:	fff28493          	addi	s1,t0,-1 # 23c9f <memset+0xb3>
   24ac4:	0088e663          	bltu	a7,s0,24ad0 <__divdf3+0x380>
/home/hdg/Desktop/desktop/toolchain/riscv-gnu-toolchain/build-gcc-newlib-stage2/riscv64-vega-elf/rv32im/ilp32/libgcc/../../../../.././riscv-gcc/libgcc/soft-fp/divdf3.c:46 (discriminator 46)
   24ac8:	02889463          	bne	a7,s0,24af0 <__divdf3+0x3a0>
/home/hdg/Desktop/desktop/toolchain/riscv-gnu-toolchain/build-gcc-newlib-stage2/riscv64-vega-elf/rv32im/ilp32/libgcc/../../../../.././riscv-gcc/libgcc/soft-fp/divdf3.c:46 (discriminator 47)
   24acc:	0267e263          	bltu	a5,t1,24af0 <__divdf3+0x3a0>
/home/hdg/Desktop/desktop/toolchain/riscv-gnu-toolchain/build-gcc-newlib-stage2/riscv64-vega-elf/rv32im/ilp32/libgcc/../../../../.././riscv-gcc/libgcc/soft-fp/divdf3.c:46 (discriminator 49)
   24ad0:	00c46663          	bltu	s0,a2,24adc <__divdf3+0x38c>
/home/hdg/Desktop/desktop/toolchain/riscv-gnu-toolchain/build-gcc-newlib-stage2/riscv64-vega-elf/rv32im/ilp32/libgcc/../../../../.././riscv-gcc/libgcc/soft-fp/divdf3.c:46 (discriminator 52)
   24ad4:	00861e63          	bne	a2,s0,24af0 <__divdf3+0x3a0>
/home/hdg/Desktop/desktop/toolchain/riscv-gnu-toolchain/build-gcc-newlib-stage2/riscv64-vega-elf/rv32im/ilp32/libgcc/../../../../.././riscv-gcc/libgcc/soft-fp/divdf3.c:46 (discriminator 53)
   24ad8:	0107fc63          	bgeu	a5,a6,24af0 <__divdf3+0x3a0>
/home/hdg/Desktop/desktop/toolchain/riscv-gnu-toolchain/build-gcc-newlib-stage2/riscv64-vega-elf/rv32im/ilp32/libgcc/../../../../.././riscv-gcc/libgcc/soft-fp/divdf3.c:46 (discriminator 55)
   24adc:	006787b3          	add	a5,a5,t1
   24ae0:	0067b733          	sltu	a4,a5,t1
   24ae4:	01170733          	add	a4,a4,a7
   24ae8:	ffe28493          	addi	s1,t0,-2
   24aec:	00e40433          	add	s0,s0,a4
/home/hdg/Desktop/desktop/toolchain/riscv-gnu-toolchain/build-gcc-newlib-stage2/riscv64-vega-elf/rv32im/ilp32/libgcc/../../../../.././riscv-gcc/libgcc/soft-fp/divdf3.c:46 (discriminator 57)
   24af0:	41078833          	sub	a6,a5,a6
   24af4:	40c40433          	sub	s0,s0,a2
   24af8:	0107b7b3          	sltu	a5,a5,a6
   24afc:	40f40433          	sub	s0,s0,a5
   24b00:	fff00f93          	li	t6,-1
   24b04:	12888463          	beq	a7,s0,24c2c <__divdf3+0x4dc>
/home/hdg/Desktop/desktop/toolchain/riscv-gnu-toolchain/build-gcc-newlib-stage2/riscv64-vega-elf/rv32im/ilp32/libgcc/../../../../.././riscv-gcc/libgcc/soft-fp/divdf3.c:46 (discriminator 59)
   24b08:	02a45fb3          	divu	t6,s0,a0
   24b0c:	01085713          	srli	a4,a6,0x10
   24b10:	02a47433          	remu	s0,s0,a0
   24b14:	000f8613          	mv	a2,t6
   24b18:	03fe87b3          	mul	a5,t4,t6
   24b1c:	01041413          	slli	s0,s0,0x10
   24b20:	00876433          	or	s0,a4,s0
   24b24:	00f47e63          	bgeu	s0,a5,24b40 <__divdf3+0x3f0>
/home/hdg/Desktop/desktop/toolchain/riscv-gnu-toolchain/build-gcc-newlib-stage2/riscv64-vega-elf/rv32im/ilp32/libgcc/../../../../.././riscv-gcc/libgcc/soft-fp/divdf3.c:46 (discriminator 61)
   24b28:	01140433          	add	s0,s0,a7
   24b2c:	ffff8613          	addi	a2,t6,-1
   24b30:	01146863          	bltu	s0,a7,24b40 <__divdf3+0x3f0>
/home/hdg/Desktop/desktop/toolchain/riscv-gnu-toolchain/build-gcc-newlib-stage2/riscv64-vega-elf/rv32im/ilp32/libgcc/../../../../.././riscv-gcc/libgcc/soft-fp/divdf3.c:46 (discriminator 63)
   24b34:	00f47663          	bgeu	s0,a5,24b40 <__divdf3+0x3f0>
/home/hdg/Desktop/desktop/toolchain/riscv-gnu-toolchain/build-gcc-newlib-stage2/riscv64-vega-elf/rv32im/ilp32/libgcc/../../../../.././riscv-gcc/libgcc/soft-fp/divdf3.c:46 (discriminator 65)
   24b38:	ffef8613          	addi	a2,t6,-2
   24b3c:	01140433          	add	s0,s0,a7
/home/hdg/Desktop/desktop/toolchain/riscv-gnu-toolchain/build-gcc-newlib-stage2/riscv64-vega-elf/rv32im/ilp32/libgcc/../../../../.././riscv-gcc/libgcc/soft-fp/divdf3.c:46 (discriminator 67)
   24b40:	40f40433          	sub	s0,s0,a5
   24b44:	02a45733          	divu	a4,s0,a0
   24b48:	01081813          	slli	a6,a6,0x10
   24b4c:	01085813          	srli	a6,a6,0x10
   24b50:	02a47433          	remu	s0,s0,a0
   24b54:	00070793          	mv	a5,a4
   24b58:	02ee8eb3          	mul	t4,t4,a4
   24b5c:	01041413          	slli	s0,s0,0x10
   24b60:	00886433          	or	s0,a6,s0
   24b64:	01d47e63          	bgeu	s0,t4,24b80 <__divdf3+0x430>
/home/hdg/Desktop/desktop/toolchain/riscv-gnu-toolchain/build-gcc-newlib-stage2/riscv64-vega-elf/rv32im/ilp32/libgcc/../../../../.././riscv-gcc/libgcc/soft-fp/divdf3.c:46 (discriminator 68)
   24b68:	01140433          	add	s0,s0,a7
   24b6c:	fff70793          	addi	a5,a4,-1
   24b70:	01146863          	bltu	s0,a7,24b80 <__divdf3+0x430>
/home/hdg/Desktop/desktop/toolchain/riscv-gnu-toolchain/build-gcc-newlib-stage2/riscv64-vega-elf/rv32im/ilp32/libgcc/../../../../.././riscv-gcc/libgcc/soft-fp/divdf3.c:46 (discriminator 70)
   24b74:	01d47663          	bgeu	s0,t4,24b80 <__divdf3+0x430>
/home/hdg/Desktop/desktop/toolchain/riscv-gnu-toolchain/build-gcc-newlib-stage2/riscv64-vega-elf/rv32im/ilp32/libgcc/../../../../.././riscv-gcc/libgcc/soft-fp/divdf3.c:46 (discriminator 72)
   24b78:	ffe70793          	addi	a5,a4,-2
   24b7c:	01140433          	add	s0,s0,a7
/home/hdg/Desktop/desktop/toolchain/riscv-gnu-toolchain/build-gcc-newlib-stage2/riscv64-vega-elf/rv32im/ilp32/libgcc/../../../../.././riscv-gcc/libgcc/soft-fp/divdf3.c:46 (discriminator 74)
   24b80:	01061613          	slli	a2,a2,0x10
   24b84:	00f66633          	or	a2,a2,a5
   24b88:	01061793          	slli	a5,a2,0x10
   24b8c:	0107d793          	srli	a5,a5,0x10
   24b90:	01065713          	srli	a4,a2,0x10
   24b94:	02ef0833          	mul	a6,t5,a4
   24b98:	41d40433          	sub	s0,s0,t4
   24b9c:	02ff0f33          	mul	t5,t5,a5
   24ba0:	03c78eb3          	mul	t4,a5,t3
   24ba4:	03c70e33          	mul	t3,a4,t3
   24ba8:	010ed793          	srli	a5,t4,0x10
   24bac:	01cf0f33          	add	t5,t5,t3
   24bb0:	01e787b3          	add	a5,a5,t5
   24bb4:	01c7f663          	bgeu	a5,t3,24bc0 <__divdf3+0x470>
/home/hdg/Desktop/desktop/toolchain/riscv-gnu-toolchain/build-gcc-newlib-stage2/riscv64-vega-elf/rv32im/ilp32/libgcc/../../../../.././riscv-gcc/libgcc/soft-fp/divdf3.c:46 (discriminator 75)
   24bb8:	00010737          	lui	a4,0x10
   24bbc:	00e80833          	add	a6,a6,a4
/home/hdg/Desktop/desktop/toolchain/riscv-gnu-toolchain/build-gcc-newlib-stage2/riscv64-vega-elf/rv32im/ilp32/libgcc/../../../../.././riscv-gcc/libgcc/soft-fp/divdf3.c:46 (discriminator 77)
   24bc0:	0107d713          	srli	a4,a5,0x10
   24bc4:	01070733          	add	a4,a4,a6
   24bc8:	00010837          	lui	a6,0x10
   24bcc:	fff80813          	addi	a6,a6,-1 # ffff <_tbss_end+0xffff>
   24bd0:	0107f533          	and	a0,a5,a6
   24bd4:	01051513          	slli	a0,a0,0x10
   24bd8:	010efeb3          	and	t4,t4,a6
   24bdc:	01d50533          	add	a0,a0,t4
   24be0:	00e46863          	bltu	s0,a4,24bf0 <__divdf3+0x4a0>
/home/hdg/Desktop/desktop/toolchain/riscv-gnu-toolchain/build-gcc-newlib-stage2/riscv64-vega-elf/rv32im/ilp32/libgcc/../../../../.././riscv-gcc/libgcc/soft-fp/divdf3.c:46 (discriminator 79)
   24be4:	24e41463          	bne	s0,a4,24e2c <__divdf3+0x6dc>
/home/hdg/Desktop/desktop/toolchain/riscv-gnu-toolchain/build-gcc-newlib-stage2/riscv64-vega-elf/rv32im/ilp32/libgcc/../../../../.././riscv-gcc/libgcc/soft-fp/divdf3.c:46 (discriminator 80)
   24be8:	00060f93          	mv	t6,a2
   24bec:	04050063          	beqz	a0,24c2c <__divdf3+0x4dc>
/home/hdg/Desktop/desktop/toolchain/riscv-gnu-toolchain/build-gcc-newlib-stage2/riscv64-vega-elf/rv32im/ilp32/libgcc/../../../../.././riscv-gcc/libgcc/soft-fp/divdf3.c:46 (discriminator 82)
   24bf0:	00888433          	add	s0,a7,s0
   24bf4:	fff60f93          	addi	t6,a2,-1
   24bf8:	03146463          	bltu	s0,a7,24c20 <__divdf3+0x4d0>
/home/hdg/Desktop/desktop/toolchain/riscv-gnu-toolchain/build-gcc-newlib-stage2/riscv64-vega-elf/rv32im/ilp32/libgcc/../../../../.././riscv-gcc/libgcc/soft-fp/divdf3.c:46 (discriminator 88)
   24bfc:	00e46663          	bltu	s0,a4,24c08 <__divdf3+0x4b8>
/home/hdg/Desktop/desktop/toolchain/riscv-gnu-toolchain/build-gcc-newlib-stage2/riscv64-vega-elf/rv32im/ilp32/libgcc/../../../../.././riscv-gcc/libgcc/soft-fp/divdf3.c:46 (discriminator 91)
   24c00:	22e41463          	bne	s0,a4,24e28 <__divdf3+0x6d8>
/home/hdg/Desktop/desktop/toolchain/riscv-gnu-toolchain/build-gcc-newlib-stage2/riscv64-vega-elf/rv32im/ilp32/libgcc/../../../../.././riscv-gcc/libgcc/soft-fp/divdf3.c:46 (discriminator 92)
   24c04:	02a37063          	bgeu	t1,a0,24c24 <__divdf3+0x4d4>
/home/hdg/Desktop/desktop/toolchain/riscv-gnu-toolchain/build-gcc-newlib-stage2/riscv64-vega-elf/rv32im/ilp32/libgcc/../../../../.././riscv-gcc/libgcc/soft-fp/divdf3.c:46 (discriminator 94)
   24c08:	00131793          	slli	a5,t1,0x1
   24c0c:	0067b333          	sltu	t1,a5,t1
   24c10:	011308b3          	add	a7,t1,a7
   24c14:	ffe60f93          	addi	t6,a2,-2
   24c18:	01140433          	add	s0,s0,a7
   24c1c:	00078313          	mv	t1,a5
/home/hdg/Desktop/desktop/toolchain/riscv-gnu-toolchain/build-gcc-newlib-stage2/riscv64-vega-elf/rv32im/ilp32/libgcc/../../../../.././riscv-gcc/libgcc/soft-fp/divdf3.c:46 (discriminator 96)
   24c20:	00e41463          	bne	s0,a4,24c28 <__divdf3+0x4d8>
/home/hdg/Desktop/desktop/toolchain/riscv-gnu-toolchain/build-gcc-newlib-stage2/riscv64-vega-elf/rv32im/ilp32/libgcc/../../../../.././riscv-gcc/libgcc/soft-fp/divdf3.c:46 (discriminator 98)
   24c24:	00650463          	beq	a0,t1,24c2c <__divdf3+0x4dc>
/home/hdg/Desktop/desktop/toolchain/riscv-gnu-toolchain/build-gcc-newlib-stage2/riscv64-vega-elf/rv32im/ilp32/libgcc/../../../../.././riscv-gcc/libgcc/soft-fp/divdf3.c:46 (discriminator 99)
   24c28:	001fef93          	ori	t6,t6,1
/home/hdg/Desktop/desktop/toolchain/riscv-gnu-toolchain/build-gcc-newlib-stage2/riscv64-vega-elf/rv32im/ilp32/libgcc/../../../../.././riscv-gcc/libgcc/soft-fp/divdf3.c:47 (discriminator 2)
   24c2c:	3ff58793          	addi	a5,a1,1023
   24c30:	10f05a63          	blez	a5,24d44 <__divdf3+0x5f4>
/home/hdg/Desktop/desktop/toolchain/riscv-gnu-toolchain/build-gcc-newlib-stage2/riscv64-vega-elf/rv32im/ilp32/libgcc/../../../../.././riscv-gcc/libgcc/soft-fp/divdf3.c:47 (discriminator 6)
   24c34:	007ff713          	andi	a4,t6,7
   24c38:	02070063          	beqz	a4,24c58 <__divdf3+0x508>
/home/hdg/Desktop/desktop/toolchain/riscv-gnu-toolchain/build-gcc-newlib-stage2/riscv64-vega-elf/rv32im/ilp32/libgcc/../../../../.././riscv-gcc/libgcc/soft-fp/divdf3.c:47 (discriminator 8)
   24c3c:	00fff713          	andi	a4,t6,15
   24c40:	00400613          	li	a2,4
   24c44:	00c70a63          	beq	a4,a2,24c58 <__divdf3+0x508>
/home/hdg/Desktop/desktop/toolchain/riscv-gnu-toolchain/build-gcc-newlib-stage2/riscv64-vega-elf/rv32im/ilp32/libgcc/../../../../.././riscv-gcc/libgcc/soft-fp/divdf3.c:47 (discriminator 10)
   24c48:	004f8613          	addi	a2,t6,4
   24c4c:	01f63fb3          	sltu	t6,a2,t6
   24c50:	01f484b3          	add	s1,s1,t6
   24c54:	00060f93          	mv	t6,a2
/home/hdg/Desktop/desktop/toolchain/riscv-gnu-toolchain/build-gcc-newlib-stage2/riscv64-vega-elf/rv32im/ilp32/libgcc/../../../../.././riscv-gcc/libgcc/soft-fp/divdf3.c:47 (discriminator 9)
   24c58:	01000737          	lui	a4,0x1000
   24c5c:	00e4f733          	and	a4,s1,a4
   24c60:	00070a63          	beqz	a4,24c74 <__divdf3+0x524>
/home/hdg/Desktop/desktop/toolchain/riscv-gnu-toolchain/build-gcc-newlib-stage2/riscv64-vega-elf/rv32im/ilp32/libgcc/../../../../.././riscv-gcc/libgcc/soft-fp/divdf3.c:47 (discriminator 24)
   24c64:	ff0007b7          	lui	a5,0xff000
   24c68:	fff78793          	addi	a5,a5,-1 # feffffff <__global_pointer$+0xfefd84bb>
   24c6c:	00f4f4b3          	and	s1,s1,a5
   24c70:	40058793          	addi	a5,a1,1024
/home/hdg/Desktop/desktop/toolchain/riscv-gnu-toolchain/build-gcc-newlib-stage2/riscv64-vega-elf/rv32im/ilp32/libgcc/../../../../.././riscv-gcc/libgcc/soft-fp/divdf3.c:47 (discriminator 26)
   24c74:	7fe00713          	li	a4,2046
   24c78:	0af74063          	blt	a4,a5,24d18 <__divdf3+0x5c8>
/home/hdg/Desktop/desktop/toolchain/riscv-gnu-toolchain/build-gcc-newlib-stage2/riscv64-vega-elf/rv32im/ilp32/libgcc/../../../../.././riscv-gcc/libgcc/soft-fp/divdf3.c:47
   24c7c:	003fdf93          	srli	t6,t6,0x3
   24c80:	01d49713          	slli	a4,s1,0x1d
   24c84:	01f76733          	or	a4,a4,t6
   24c88:	0034d513          	srli	a0,s1,0x3
/home/hdg/Desktop/desktop/toolchain/riscv-gnu-toolchain/build-gcc-newlib-stage2/riscv64-vega-elf/rv32im/ilp32/libgcc/../../../../.././riscv-gcc/libgcc/soft-fp/divdf3.c:47 (discriminator 119)
   24c8c:	01479793          	slli	a5,a5,0x14
   24c90:	7ff00637          	lui	a2,0x7ff00
   24c94:	00c51513          	slli	a0,a0,0xc
/home/hdg/Desktop/desktop/toolchain/riscv-gnu-toolchain/build-gcc-newlib-stage2/riscv64-vega-elf/rv32im/ilp32/libgcc/../../../../.././riscv-gcc/libgcc/soft-fp/divdf3.c:51 (discriminator 119)
   24c98:	02c12083          	lw	ra,44(sp)
   24c9c:	02812403          	lw	s0,40(sp)
/home/hdg/Desktop/desktop/toolchain/riscv-gnu-toolchain/build-gcc-newlib-stage2/riscv64-vega-elf/rv32im/ilp32/libgcc/../../../../.././riscv-gcc/libgcc/soft-fp/divdf3.c:47 (discriminator 119)
   24ca0:	00c7f7b3          	and	a5,a5,a2
   24ca4:	00c55513          	srli	a0,a0,0xc
   24ca8:	00a7e533          	or	a0,a5,a0
   24cac:	01f69693          	slli	a3,a3,0x1f
   24cb0:	00d567b3          	or	a5,a0,a3
/home/hdg/Desktop/desktop/toolchain/riscv-gnu-toolchain/build-gcc-newlib-stage2/riscv64-vega-elf/rv32im/ilp32/libgcc/../../../../.././riscv-gcc/libgcc/soft-fp/divdf3.c:51 (discriminator 119)
   24cb4:	02412483          	lw	s1,36(sp)
   24cb8:	02012903          	lw	s2,32(sp)
   24cbc:	01c12983          	lw	s3,28(sp)
   24cc0:	01812a03          	lw	s4,24(sp)
   24cc4:	01412a83          	lw	s5,20(sp)
   24cc8:	01012b03          	lw	s6,16(sp)
   24ccc:	00c12b83          	lw	s7,12(sp)
   24cd0:	00812c03          	lw	s8,8(sp)
   24cd4:	00070513          	mv	a0,a4
   24cd8:	00078593          	mv	a1,a5
   24cdc:	03010113          	addi	sp,sp,48
   24ce0:	00008067          	ret
/home/hdg/Desktop/desktop/toolchain/riscv-gnu-toolchain/build-gcc-newlib-stage2/riscv64-vega-elf/rv32im/ilp32/libgcc/../../../../.././riscv-gcc/libgcc/soft-fp/divdf3.c:46 (discriminator 15)
   24ce4:	fff58593          	addi	a1,a1,-1
   24ce8:	00000793          	li	a5,0
   24cec:	cb9ff06f          	j	249a4 <__divdf3+0x254>
/home/hdg/Desktop/desktop/toolchain/riscv-gnu-toolchain/build-gcc-newlib-stage2/riscv64-vega-elf/rv32im/ilp32/libgcc/../../../../.././riscv-gcc/libgcc/soft-fp/divdf3.c:44 (discriminator 8)
   24cf0:	00098693          	mv	a3,s3
/home/hdg/Desktop/desktop/toolchain/riscv-gnu-toolchain/build-gcc-newlib-stage2/riscv64-vega-elf/rv32im/ilp32/libgcc/../../../../.././riscv-gcc/libgcc/soft-fp/divdf3.c:46 (discriminator 8)
   24cf4:	000a8493          	mv	s1,s5
   24cf8:	00040f93          	mv	t6,s0
   24cfc:	000b8793          	mv	a5,s7
/home/hdg/Desktop/desktop/toolchain/riscv-gnu-toolchain/build-gcc-newlib-stage2/riscv64-vega-elf/rv32im/ilp32/libgcc/../../../../.././riscv-gcc/libgcc/soft-fp/divdf3.c:47 (discriminator 108)
   24d00:	00300713          	li	a4,3
   24d04:	0ee78a63          	beq	a5,a4,24df8 <__divdf3+0x6a8>
/home/hdg/Desktop/desktop/toolchain/riscv-gnu-toolchain/build-gcc-newlib-stage2/riscv64-vega-elf/rv32im/ilp32/libgcc/../../../../.././riscv-gcc/libgcc/soft-fp/divdf3.c:47
   24d08:	00100713          	li	a4,1
   24d0c:	10e78063          	beq	a5,a4,24e0c <__divdf3+0x6bc>
   24d10:	00200713          	li	a4,2
   24d14:	f0e79ce3          	bne	a5,a4,24c2c <__divdf3+0x4dc>
   24d18:	00000513          	li	a0,0
   24d1c:	00000713          	li	a4,0
   24d20:	7ff00793          	li	a5,2047
   24d24:	f69ff06f          	j	24c8c <__divdf3+0x53c>
/home/hdg/Desktop/desktop/toolchain/riscv-gnu-toolchain/build-gcc-newlib-stage2/riscv64-vega-elf/rv32im/ilp32/libgcc/../../../../.././riscv-gcc/libgcc/soft-fp/divdf3.c:45 (discriminator 5)
   24d28:	000c0693          	mv	a3,s8
/home/hdg/Desktop/desktop/toolchain/riscv-gnu-toolchain/build-gcc-newlib-stage2/riscv64-vega-elf/rv32im/ilp32/libgcc/../../../../.././riscv-gcc/libgcc/soft-fp/divdf3.c:46 (discriminator 5)
   24d2c:	fd5ff06f          	j	24d00 <__divdf3+0x5b0>
/home/hdg/Desktop/desktop/toolchain/riscv-gnu-toolchain/build-gcc-newlib-stage2/riscv64-vega-elf/rv32im/ilp32/libgcc/../../../../.././riscv-gcc/libgcc/soft-fp/divdf3.c:46
   24d30:	000804b7          	lui	s1,0x80
   24d34:	00000f93          	li	t6,0
   24d38:	00000693          	li	a3,0
   24d3c:	00300793          	li	a5,3
   24d40:	fc1ff06f          	j	24d00 <__divdf3+0x5b0>
/home/hdg/Desktop/desktop/toolchain/riscv-gnu-toolchain/build-gcc-newlib-stage2/riscv64-vega-elf/rv32im/ilp32/libgcc/../../../../.././riscv-gcc/libgcc/soft-fp/divdf3.c:47 (discriminator 59)
   24d44:	00100513          	li	a0,1
   24d48:	40f50533          	sub	a0,a0,a5
   24d4c:	03800713          	li	a4,56
   24d50:	0aa74e63          	blt	a4,a0,24e0c <__divdf3+0x6bc>
/home/hdg/Desktop/desktop/toolchain/riscv-gnu-toolchain/build-gcc-newlib-stage2/riscv64-vega-elf/rv32im/ilp32/libgcc/../../../../.././riscv-gcc/libgcc/soft-fp/divdf3.c:47 (discriminator 60)
   24d54:	01f00713          	li	a4,31
   24d58:	06a74663          	blt	a4,a0,24dc4 <__divdf3+0x674>
/home/hdg/Desktop/desktop/toolchain/riscv-gnu-toolchain/build-gcc-newlib-stage2/riscv64-vega-elf/rv32im/ilp32/libgcc/../../../../.././riscv-gcc/libgcc/soft-fp/divdf3.c:47 (discriminator 62)
   24d5c:	41e58593          	addi	a1,a1,1054
   24d60:	00b497b3          	sll	a5,s1,a1
   24d64:	00afd733          	srl	a4,t6,a0
   24d68:	00bf95b3          	sll	a1,t6,a1
   24d6c:	00e7e7b3          	or	a5,a5,a4
   24d70:	00b035b3          	snez	a1,a1
   24d74:	00b7e7b3          	or	a5,a5,a1
   24d78:	00a4d533          	srl	a0,s1,a0
/home/hdg/Desktop/desktop/toolchain/riscv-gnu-toolchain/build-gcc-newlib-stage2/riscv64-vega-elf/rv32im/ilp32/libgcc/../../../../.././riscv-gcc/libgcc/soft-fp/divdf3.c:47 (discriminator 75)
   24d7c:	0077f713          	andi	a4,a5,7
   24d80:	02070063          	beqz	a4,24da0 <__divdf3+0x650>
/home/hdg/Desktop/desktop/toolchain/riscv-gnu-toolchain/build-gcc-newlib-stage2/riscv64-vega-elf/rv32im/ilp32/libgcc/../../../../.././riscv-gcc/libgcc/soft-fp/divdf3.c:47 (discriminator 76)
   24d84:	00f7f713          	andi	a4,a5,15
   24d88:	00400613          	li	a2,4
   24d8c:	00c70a63          	beq	a4,a2,24da0 <__divdf3+0x650>
/home/hdg/Desktop/desktop/toolchain/riscv-gnu-toolchain/build-gcc-newlib-stage2/riscv64-vega-elf/rv32im/ilp32/libgcc/../../../../.././riscv-gcc/libgcc/soft-fp/divdf3.c:47 (discriminator 78)
   24d90:	00478713          	addi	a4,a5,4
   24d94:	00f737b3          	sltu	a5,a4,a5
   24d98:	00f50533          	add	a0,a0,a5
   24d9c:	00070793          	mv	a5,a4
/home/hdg/Desktop/desktop/toolchain/riscv-gnu-toolchain/build-gcc-newlib-stage2/riscv64-vega-elf/rv32im/ilp32/libgcc/../../../../.././riscv-gcc/libgcc/soft-fp/divdf3.c:47 (discriminator 77)
   24da0:	00800737          	lui	a4,0x800
   24da4:	00e57733          	and	a4,a0,a4
   24da8:	06071863          	bnez	a4,24e18 <__divdf3+0x6c8>
/home/hdg/Desktop/desktop/toolchain/riscv-gnu-toolchain/build-gcc-newlib-stage2/riscv64-vega-elf/rv32im/ilp32/libgcc/../../../../.././riscv-gcc/libgcc/soft-fp/divdf3.c:47 (discriminator 93)
   24dac:	01d51713          	slli	a4,a0,0x1d
   24db0:	0037d793          	srli	a5,a5,0x3
   24db4:	00f76733          	or	a4,a4,a5
   24db8:	00355513          	srli	a0,a0,0x3
/home/hdg/Desktop/desktop/toolchain/riscv-gnu-toolchain/build-gcc-newlib-stage2/riscv64-vega-elf/rv32im/ilp32/libgcc/../../../../.././riscv-gcc/libgcc/soft-fp/divdf3.c:47
   24dbc:	00000793          	li	a5,0
   24dc0:	ecdff06f          	j	24c8c <__divdf3+0x53c>
/home/hdg/Desktop/desktop/toolchain/riscv-gnu-toolchain/build-gcc-newlib-stage2/riscv64-vega-elf/rv32im/ilp32/libgcc/../../../../.././riscv-gcc/libgcc/soft-fp/divdf3.c:47 (discriminator 63)
   24dc4:	fe100713          	li	a4,-31
   24dc8:	40f707b3          	sub	a5,a4,a5
   24dcc:	02000613          	li	a2,32
   24dd0:	00f4d7b3          	srl	a5,s1,a5
   24dd4:	00000713          	li	a4,0
   24dd8:	00c50663          	beq	a0,a2,24de4 <__divdf3+0x694>
/home/hdg/Desktop/desktop/toolchain/riscv-gnu-toolchain/build-gcc-newlib-stage2/riscv64-vega-elf/rv32im/ilp32/libgcc/../../../../.././riscv-gcc/libgcc/soft-fp/divdf3.c:47 (discriminator 71)
   24ddc:	43e58713          	addi	a4,a1,1086
   24de0:	00e49733          	sll	a4,s1,a4
/home/hdg/Desktop/desktop/toolchain/riscv-gnu-toolchain/build-gcc-newlib-stage2/riscv64-vega-elf/rv32im/ilp32/libgcc/../../../../.././riscv-gcc/libgcc/soft-fp/divdf3.c:47 (discriminator 74)
   24de4:	01f76733          	or	a4,a4,t6
   24de8:	00e03733          	snez	a4,a4
   24dec:	00e7e7b3          	or	a5,a5,a4
   24df0:	00000513          	li	a0,0
   24df4:	f89ff06f          	j	24d7c <__divdf3+0x62c>
/home/hdg/Desktop/desktop/toolchain/riscv-gnu-toolchain/build-gcc-newlib-stage2/riscv64-vega-elf/rv32im/ilp32/libgcc/../../../../.././riscv-gcc/libgcc/soft-fp/divdf3.c:47
   24df8:	00080537          	lui	a0,0x80
   24dfc:	00000713          	li	a4,0
   24e00:	7ff00793          	li	a5,2047
   24e04:	00000693          	li	a3,0
   24e08:	e85ff06f          	j	24c8c <__divdf3+0x53c>
   24e0c:	00000513          	li	a0,0
   24e10:	00000713          	li	a4,0
   24e14:	fa9ff06f          	j	24dbc <__divdf3+0x66c>
   24e18:	00000513          	li	a0,0
   24e1c:	00000713          	li	a4,0
   24e20:	00100793          	li	a5,1
   24e24:	e69ff06f          	j	24c8c <__divdf3+0x53c>
/home/hdg/Desktop/desktop/toolchain/riscv-gnu-toolchain/build-gcc-newlib-stage2/riscv64-vega-elf/rv32im/ilp32/libgcc/../../../../.././riscv-gcc/libgcc/soft-fp/divdf3.c:46
   24e28:	000f8613          	mv	a2,t6
   24e2c:	00060f93          	mv	t6,a2
   24e30:	df9ff06f          	j	24c28 <__divdf3+0x4d8>

00024e34 <__eqdf2>:
__eqdf2():
/home/hdg/Desktop/desktop/toolchain/riscv-gnu-toolchain/build-gcc-newlib-stage2/riscv64-vega-elf/rv32im/ilp32/libgcc/../../../../.././riscv-gcc/libgcc/soft-fp/eqdf2.c:43
   24e34:	0145d713          	srli	a4,a1,0x14
   24e38:	001007b7          	lui	a5,0x100
   24e3c:	fff78793          	addi	a5,a5,-1 # fffff <__global_pointer$+0xd84bb>
/home/hdg/Desktop/desktop/toolchain/riscv-gnu-toolchain/build-gcc-newlib-stage2/riscv64-vega-elf/rv32im/ilp32/libgcc/../../../../.././riscv-gcc/libgcc/soft-fp/eqdf2.c:44
   24e40:	0146d813          	srli	a6,a3,0x14
/home/hdg/Desktop/desktop/toolchain/riscv-gnu-toolchain/build-gcc-newlib-stage2/riscv64-vega-elf/rv32im/ilp32/libgcc/../../../../.././riscv-gcc/libgcc/soft-fp/eqdf2.c:36
   24e44:	00050313          	mv	t1,a0
   24e48:	00050e93          	mv	t4,a0
/home/hdg/Desktop/desktop/toolchain/riscv-gnu-toolchain/build-gcc-newlib-stage2/riscv64-vega-elf/rv32im/ilp32/libgcc/../../../../.././riscv-gcc/libgcc/soft-fp/eqdf2.c:43
   24e4c:	7ff77713          	andi	a4,a4,2047
/home/hdg/Desktop/desktop/toolchain/riscv-gnu-toolchain/build-gcc-newlib-stage2/riscv64-vega-elf/rv32im/ilp32/libgcc/../../../../.././riscv-gcc/libgcc/soft-fp/eqdf2.c:45
   24e50:	7ff00513          	li	a0,2047
/home/hdg/Desktop/desktop/toolchain/riscv-gnu-toolchain/build-gcc-newlib-stage2/riscv64-vega-elf/rv32im/ilp32/libgcc/../../../../.././riscv-gcc/libgcc/soft-fp/eqdf2.c:43
   24e54:	00b7f8b3          	and	a7,a5,a1
   24e58:	00060f13          	mv	t5,a2
/home/hdg/Desktop/desktop/toolchain/riscv-gnu-toolchain/build-gcc-newlib-stage2/riscv64-vega-elf/rv32im/ilp32/libgcc/../../../../.././riscv-gcc/libgcc/soft-fp/eqdf2.c:44
   24e5c:	00d7f7b3          	and	a5,a5,a3
/home/hdg/Desktop/desktop/toolchain/riscv-gnu-toolchain/build-gcc-newlib-stage2/riscv64-vega-elf/rv32im/ilp32/libgcc/../../../../.././riscv-gcc/libgcc/soft-fp/eqdf2.c:43
   24e60:	01f5d593          	srli	a1,a1,0x1f
/home/hdg/Desktop/desktop/toolchain/riscv-gnu-toolchain/build-gcc-newlib-stage2/riscv64-vega-elf/rv32im/ilp32/libgcc/../../../../.././riscv-gcc/libgcc/soft-fp/eqdf2.c:44
   24e64:	7ff87813          	andi	a6,a6,2047
   24e68:	01f6d693          	srli	a3,a3,0x1f
/home/hdg/Desktop/desktop/toolchain/riscv-gnu-toolchain/build-gcc-newlib-stage2/riscv64-vega-elf/rv32im/ilp32/libgcc/../../../../.././riscv-gcc/libgcc/soft-fp/eqdf2.c:45
   24e6c:	00a71c63          	bne	a4,a0,24e84 <__eqdf2+0x50>
/home/hdg/Desktop/desktop/toolchain/riscv-gnu-toolchain/build-gcc-newlib-stage2/riscv64-vega-elf/rv32im/ilp32/libgcc/../../../../.././riscv-gcc/libgcc/soft-fp/eqdf2.c:45 (discriminator 20)
   24e70:	0068ee33          	or	t3,a7,t1
   24e74:	00100513          	li	a0,1
   24e78:	000e1463          	bnez	t3,24e80 <__eqdf2+0x4c>
/home/hdg/Desktop/desktop/toolchain/riscv-gnu-toolchain/build-gcc-newlib-stage2/riscv64-vega-elf/rv32im/ilp32/libgcc/../../../../.././riscv-gcc/libgcc/soft-fp/eqdf2.c:45
   24e7c:	00e80663          	beq	a6,a4,24e88 <__eqdf2+0x54>
/home/hdg/Desktop/desktop/toolchain/riscv-gnu-toolchain/build-gcc-newlib-stage2/riscv64-vega-elf/rv32im/ilp32/libgcc/../../../../.././riscv-gcc/libgcc/soft-fp/eqdf2.c:49
   24e80:	00008067          	ret
/home/hdg/Desktop/desktop/toolchain/riscv-gnu-toolchain/build-gcc-newlib-stage2/riscv64-vega-elf/rv32im/ilp32/libgcc/../../../../.././riscv-gcc/libgcc/soft-fp/eqdf2.c:45 (discriminator 23)
   24e84:	00a81863          	bne	a6,a0,24e94 <__eqdf2+0x60>
/home/hdg/Desktop/desktop/toolchain/riscv-gnu-toolchain/build-gcc-newlib-stage2/riscv64-vega-elf/rv32im/ilp32/libgcc/../../../../.././riscv-gcc/libgcc/soft-fp/eqdf2.c:45 (discriminator 24)
   24e88:	00c7e633          	or	a2,a5,a2
   24e8c:	00100513          	li	a0,1
   24e90:	fe0618e3          	bnez	a2,24e80 <__eqdf2+0x4c>
/home/hdg/Desktop/desktop/toolchain/riscv-gnu-toolchain/build-gcc-newlib-stage2/riscv64-vega-elf/rv32im/ilp32/libgcc/../../../../.././riscv-gcc/libgcc/soft-fp/eqdf2.c:45 (discriminator 78)
   24e94:	00100513          	li	a0,1
   24e98:	ff0714e3          	bne	a4,a6,24e80 <__eqdf2+0x4c>
/home/hdg/Desktop/desktop/toolchain/riscv-gnu-toolchain/build-gcc-newlib-stage2/riscv64-vega-elf/rv32im/ilp32/libgcc/../../../../.././riscv-gcc/libgcc/soft-fp/eqdf2.c:45 (discriminator 80)
   24e9c:	fef892e3          	bne	a7,a5,24e80 <__eqdf2+0x4c>
/home/hdg/Desktop/desktop/toolchain/riscv-gnu-toolchain/build-gcc-newlib-stage2/riscv64-vega-elf/rv32im/ilp32/libgcc/../../../../.././riscv-gcc/libgcc/soft-fp/eqdf2.c:45 (discriminator 82)
   24ea0:	ffee90e3          	bne	t4,t5,24e80 <__eqdf2+0x4c>
/home/hdg/Desktop/desktop/toolchain/riscv-gnu-toolchain/build-gcc-newlib-stage2/riscv64-vega-elf/rv32im/ilp32/libgcc/../../../../.././riscv-gcc/libgcc/soft-fp/eqdf2.c:45 (discriminator 84)
   24ea4:	00d58a63          	beq	a1,a3,24eb8 <__eqdf2+0x84>
/home/hdg/Desktop/desktop/toolchain/riscv-gnu-toolchain/build-gcc-newlib-stage2/riscv64-vega-elf/rv32im/ilp32/libgcc/../../../../.././riscv-gcc/libgcc/soft-fp/eqdf2.c:45 (discriminator 85)
   24ea8:	fc071ce3          	bnez	a4,24e80 <__eqdf2+0x4c>
/home/hdg/Desktop/desktop/toolchain/riscv-gnu-toolchain/build-gcc-newlib-stage2/riscv64-vega-elf/rv32im/ilp32/libgcc/../../../../.././riscv-gcc/libgcc/soft-fp/eqdf2.c:45 (discriminator 88)
   24eac:	0068e533          	or	a0,a7,t1
   24eb0:	00a03533          	snez	a0,a0
   24eb4:	00008067          	ret
/home/hdg/Desktop/desktop/toolchain/riscv-gnu-toolchain/build-gcc-newlib-stage2/riscv64-vega-elf/rv32im/ilp32/libgcc/../../../../.././riscv-gcc/libgcc/soft-fp/eqdf2.c:45
   24eb8:	00000513          	li	a0,0
   24ebc:	00008067          	ret

00024ec0 <__gedf2>:
__gedf2():
/home/hdg/Desktop/desktop/toolchain/riscv-gnu-toolchain/build-gcc-newlib-stage2/riscv64-vega-elf/rv32im/ilp32/libgcc/../../../../.././riscv-gcc/libgcc/soft-fp/gedf2.c:43
   24ec0:	00100737          	lui	a4,0x100
   24ec4:	fff70713          	addi	a4,a4,-1 # fffff <__global_pointer$+0xd84bb>
   24ec8:	0145d813          	srli	a6,a1,0x14
   24ecc:	00b778b3          	and	a7,a4,a1
/home/hdg/Desktop/desktop/toolchain/riscv-gnu-toolchain/build-gcc-newlib-stage2/riscv64-vega-elf/rv32im/ilp32/libgcc/../../../../.././riscv-gcc/libgcc/soft-fp/gedf2.c:36
   24ed0:	00050793          	mv	a5,a0
   24ed4:	00050313          	mv	t1,a0
/home/hdg/Desktop/desktop/toolchain/riscv-gnu-toolchain/build-gcc-newlib-stage2/riscv64-vega-elf/rv32im/ilp32/libgcc/../../../../.././riscv-gcc/libgcc/soft-fp/gedf2.c:43
   24ed8:	7ff87813          	andi	a6,a6,2047
   24edc:	01f5d513          	srli	a0,a1,0x1f
/home/hdg/Desktop/desktop/toolchain/riscv-gnu-toolchain/build-gcc-newlib-stage2/riscv64-vega-elf/rv32im/ilp32/libgcc/../../../../.././riscv-gcc/libgcc/soft-fp/gedf2.c:45
   24ee0:	7ff00e93          	li	t4,2047
/home/hdg/Desktop/desktop/toolchain/riscv-gnu-toolchain/build-gcc-newlib-stage2/riscv64-vega-elf/rv32im/ilp32/libgcc/../../../../.././riscv-gcc/libgcc/soft-fp/gedf2.c:44
   24ee4:	0146d593          	srli	a1,a3,0x14
   24ee8:	00d77733          	and	a4,a4,a3
   24eec:	00060e13          	mv	t3,a2
   24ef0:	7ff5f593          	andi	a1,a1,2047
   24ef4:	01f6d693          	srli	a3,a3,0x1f
/home/hdg/Desktop/desktop/toolchain/riscv-gnu-toolchain/build-gcc-newlib-stage2/riscv64-vega-elf/rv32im/ilp32/libgcc/../../../../.././riscv-gcc/libgcc/soft-fp/gedf2.c:45
   24ef8:	01d81a63          	bne	a6,t4,24f0c <__gedf2+0x4c>
/home/hdg/Desktop/desktop/toolchain/riscv-gnu-toolchain/build-gcc-newlib-stage2/riscv64-vega-elf/rv32im/ilp32/libgcc/../../../../.././riscv-gcc/libgcc/soft-fp/gedf2.c:45 (discriminator 20)
   24efc:	00f8eeb3          	or	t4,a7,a5
   24f00:	080e8a63          	beqz	t4,24f94 <__gedf2+0xd4>
/home/hdg/Desktop/desktop/toolchain/riscv-gnu-toolchain/build-gcc-newlib-stage2/riscv64-vega-elf/rv32im/ilp32/libgcc/../../../../.././riscv-gcc/libgcc/soft-fp/gedf2.c:45
   24f04:	ffe00513          	li	a0,-2
   24f08:	00008067          	ret
/home/hdg/Desktop/desktop/toolchain/riscv-gnu-toolchain/build-gcc-newlib-stage2/riscv64-vega-elf/rv32im/ilp32/libgcc/../../../../.././riscv-gcc/libgcc/soft-fp/gedf2.c:45 (discriminator 23)
   24f0c:	01d59663          	bne	a1,t4,24f18 <__gedf2+0x58>
/home/hdg/Desktop/desktop/toolchain/riscv-gnu-toolchain/build-gcc-newlib-stage2/riscv64-vega-elf/rv32im/ilp32/libgcc/../../../../.././riscv-gcc/libgcc/soft-fp/gedf2.c:45 (discriminator 24)
   24f10:	00c76eb3          	or	t4,a4,a2
   24f14:	fe0e98e3          	bnez	t4,24f04 <__gedf2+0x44>
/home/hdg/Desktop/desktop/toolchain/riscv-gnu-toolchain/build-gcc-newlib-stage2/riscv64-vega-elf/rv32im/ilp32/libgcc/../../../../.././riscv-gcc/libgcc/soft-fp/gedf2.c:45 (discriminator 62)
   24f18:	08081063          	bnez	a6,24f98 <__gedf2+0xd8>
/home/hdg/Desktop/desktop/toolchain/riscv-gnu-toolchain/build-gcc-newlib-stage2/riscv64-vega-elf/rv32im/ilp32/libgcc/../../../../.././riscv-gcc/libgcc/soft-fp/gedf2.c:45 (discriminator 63)
   24f1c:	00f8e7b3          	or	a5,a7,a5
   24f20:	0017b793          	seqz	a5,a5
   24f24:	00059663          	bnez	a1,24f30 <__gedf2+0x70>
/home/hdg/Desktop/desktop/toolchain/riscv-gnu-toolchain/build-gcc-newlib-stage2/riscv64-vega-elf/rv32im/ilp32/libgcc/../../../../.././riscv-gcc/libgcc/soft-fp/gedf2.c:45 (discriminator 69)
   24f28:	00c76633          	or	a2,a4,a2
   24f2c:	04060c63          	beqz	a2,24f84 <__gedf2+0xc4>
/home/hdg/Desktop/desktop/toolchain/riscv-gnu-toolchain/build-gcc-newlib-stage2/riscv64-vega-elf/rv32im/ilp32/libgcc/../../../../.././riscv-gcc/libgcc/soft-fp/gedf2.c:45
   24f30:	00079c63          	bnez	a5,24f48 <__gedf2+0x88>
   24f34:	00d51463          	bne	a0,a3,24f3c <__gedf2+0x7c>
/home/hdg/Desktop/desktop/toolchain/riscv-gnu-toolchain/build-gcc-newlib-stage2/riscv64-vega-elf/rv32im/ilp32/libgcc/../../../../.././riscv-gcc/libgcc/soft-fp/gedf2.c:45 (discriminator 95)
   24f38:	0305d063          	bge	a1,a6,24f58 <__gedf2+0x98>
/home/hdg/Desktop/desktop/toolchain/riscv-gnu-toolchain/build-gcc-newlib-stage2/riscv64-vega-elf/rv32im/ilp32/libgcc/../../../../.././riscv-gcc/libgcc/soft-fp/gedf2.c:45 (discriminator 119)
   24f3c:	04050063          	beqz	a0,24f7c <__gedf2+0xbc>
/home/hdg/Desktop/desktop/toolchain/riscv-gnu-toolchain/build-gcc-newlib-stage2/riscv64-vega-elf/rv32im/ilp32/libgcc/../../../../.././riscv-gcc/libgcc/soft-fp/gedf2.c:45
   24f40:	fff00513          	li	a0,-1
   24f44:	00008067          	ret
/home/hdg/Desktop/desktop/toolchain/riscv-gnu-toolchain/build-gcc-newlib-stage2/riscv64-vega-elf/rv32im/ilp32/libgcc/../../../../.././riscv-gcc/libgcc/soft-fp/gedf2.c:45 (discriminator 80)
   24f48:	fff00513          	li	a0,-1
   24f4c:	00068a63          	beqz	a3,24f60 <__gedf2+0xa0>
/home/hdg/Desktop/desktop/toolchain/riscv-gnu-toolchain/build-gcc-newlib-stage2/riscv64-vega-elf/rv32im/ilp32/libgcc/../../../../.././riscv-gcc/libgcc/soft-fp/gedf2.c:45
   24f50:	00068513          	mv	a0,a3
   24f54:	00008067          	ret
/home/hdg/Desktop/desktop/toolchain/riscv-gnu-toolchain/build-gcc-newlib-stage2/riscv64-vega-elf/rv32im/ilp32/libgcc/../../../../.././riscv-gcc/libgcc/soft-fp/gedf2.c:45 (discriminator 102)
   24f58:	00b85663          	bge	a6,a1,24f64 <__gedf2+0xa4>
/home/hdg/Desktop/desktop/toolchain/riscv-gnu-toolchain/build-gcc-newlib-stage2/riscv64-vega-elf/rv32im/ilp32/libgcc/../../../../.././riscv-gcc/libgcc/soft-fp/gedf2.c:45 (discriminator 130)
   24f5c:	fe0502e3          	beqz	a0,24f40 <__gedf2+0x80>
/home/hdg/Desktop/desktop/toolchain/riscv-gnu-toolchain/build-gcc-newlib-stage2/riscv64-vega-elf/rv32im/ilp32/libgcc/../../../../.././riscv-gcc/libgcc/soft-fp/gedf2.c:49
   24f60:	00008067          	ret
/home/hdg/Desktop/desktop/toolchain/riscv-gnu-toolchain/build-gcc-newlib-stage2/riscv64-vega-elf/rv32im/ilp32/libgcc/../../../../.././riscv-gcc/libgcc/soft-fp/gedf2.c:45 (discriminator 109)
   24f64:	fd176ce3          	bltu	a4,a7,24f3c <__gedf2+0x7c>
/home/hdg/Desktop/desktop/toolchain/riscv-gnu-toolchain/build-gcc-newlib-stage2/riscv64-vega-elf/rv32im/ilp32/libgcc/../../../../.././riscv-gcc/libgcc/soft-fp/gedf2.c:45 (discriminator 116)
   24f68:	02e89263          	bne	a7,a4,24f8c <__gedf2+0xcc>
/home/hdg/Desktop/desktop/toolchain/riscv-gnu-toolchain/build-gcc-newlib-stage2/riscv64-vega-elf/rv32im/ilp32/libgcc/../../../../.././riscv-gcc/libgcc/soft-fp/gedf2.c:45 (discriminator 117)
   24f6c:	fc6e68e3          	bltu	t3,t1,24f3c <__gedf2+0x7c>
/home/hdg/Desktop/desktop/toolchain/riscv-gnu-toolchain/build-gcc-newlib-stage2/riscv64-vega-elf/rv32im/ilp32/libgcc/../../../../.././riscv-gcc/libgcc/soft-fp/gedf2.c:45 (discriminator 128)
   24f70:	ffc366e3          	bltu	t1,t3,24f5c <__gedf2+0x9c>
/home/hdg/Desktop/desktop/toolchain/riscv-gnu-toolchain/build-gcc-newlib-stage2/riscv64-vega-elf/rv32im/ilp32/libgcc/../../../../.././riscv-gcc/libgcc/soft-fp/gedf2.c:45
   24f74:	00000513          	li	a0,0
   24f78:	00008067          	ret
   24f7c:	00100513          	li	a0,1
   24f80:	00008067          	ret
   24f84:	fe0798e3          	bnez	a5,24f74 <__gedf2+0xb4>
   24f88:	fb5ff06f          	j	24f3c <__gedf2+0x7c>
   24f8c:	fce8e8e3          	bltu	a7,a4,24f5c <__gedf2+0x9c>
   24f90:	fe5ff06f          	j	24f74 <__gedf2+0xb4>
   24f94:	f7058ee3          	beq	a1,a6,24f10 <__gedf2+0x50>
   24f98:	f8059ee3          	bnez	a1,24f34 <__gedf2+0x74>
   24f9c:	00000793          	li	a5,0
   24fa0:	f89ff06f          	j	24f28 <__gedf2+0x68>

00024fa4 <__ledf2>:
__ledf2():
/home/hdg/Desktop/desktop/toolchain/riscv-gnu-toolchain/build-gcc-newlib-stage2/riscv64-vega-elf/rv32im/ilp32/libgcc/../../../../.././riscv-gcc/libgcc/soft-fp/ledf2.c:43
   24fa4:	00100737          	lui	a4,0x100
   24fa8:	fff70713          	addi	a4,a4,-1 # fffff <__global_pointer$+0xd84bb>
   24fac:	0145d813          	srli	a6,a1,0x14
   24fb0:	00b778b3          	and	a7,a4,a1
/home/hdg/Desktop/desktop/toolchain/riscv-gnu-toolchain/build-gcc-newlib-stage2/riscv64-vega-elf/rv32im/ilp32/libgcc/../../../../.././riscv-gcc/libgcc/soft-fp/ledf2.c:36
   24fb4:	00050793          	mv	a5,a0
   24fb8:	00050313          	mv	t1,a0
/home/hdg/Desktop/desktop/toolchain/riscv-gnu-toolchain/build-gcc-newlib-stage2/riscv64-vega-elf/rv32im/ilp32/libgcc/../../../../.././riscv-gcc/libgcc/soft-fp/ledf2.c:43
   24fbc:	7ff87813          	andi	a6,a6,2047
   24fc0:	01f5d513          	srli	a0,a1,0x1f
/home/hdg/Desktop/desktop/toolchain/riscv-gnu-toolchain/build-gcc-newlib-stage2/riscv64-vega-elf/rv32im/ilp32/libgcc/../../../../.././riscv-gcc/libgcc/soft-fp/ledf2.c:45
   24fc4:	7ff00e93          	li	t4,2047
/home/hdg/Desktop/desktop/toolchain/riscv-gnu-toolchain/build-gcc-newlib-stage2/riscv64-vega-elf/rv32im/ilp32/libgcc/../../../../.././riscv-gcc/libgcc/soft-fp/ledf2.c:44
   24fc8:	0146d593          	srli	a1,a3,0x14
   24fcc:	00d77733          	and	a4,a4,a3
   24fd0:	00060e13          	mv	t3,a2
   24fd4:	7ff5f593          	andi	a1,a1,2047
   24fd8:	01f6d693          	srli	a3,a3,0x1f
/home/hdg/Desktop/desktop/toolchain/riscv-gnu-toolchain/build-gcc-newlib-stage2/riscv64-vega-elf/rv32im/ilp32/libgcc/../../../../.././riscv-gcc/libgcc/soft-fp/ledf2.c:45
   24fdc:	01d81a63          	bne	a6,t4,24ff0 <__ledf2+0x4c>
/home/hdg/Desktop/desktop/toolchain/riscv-gnu-toolchain/build-gcc-newlib-stage2/riscv64-vega-elf/rv32im/ilp32/libgcc/../../../../.././riscv-gcc/libgcc/soft-fp/ledf2.c:45 (discriminator 20)
   24fe0:	00f8eeb3          	or	t4,a7,a5
   24fe4:	080e8a63          	beqz	t4,25078 <__ledf2+0xd4>
/home/hdg/Desktop/desktop/toolchain/riscv-gnu-toolchain/build-gcc-newlib-stage2/riscv64-vega-elf/rv32im/ilp32/libgcc/../../../../.././riscv-gcc/libgcc/soft-fp/ledf2.c:45
   24fe8:	00200513          	li	a0,2
   24fec:	00008067          	ret
/home/hdg/Desktop/desktop/toolchain/riscv-gnu-toolchain/build-gcc-newlib-stage2/riscv64-vega-elf/rv32im/ilp32/libgcc/../../../../.././riscv-gcc/libgcc/soft-fp/ledf2.c:45 (discriminator 23)
   24ff0:	01d59663          	bne	a1,t4,24ffc <__ledf2+0x58>
/home/hdg/Desktop/desktop/toolchain/riscv-gnu-toolchain/build-gcc-newlib-stage2/riscv64-vega-elf/rv32im/ilp32/libgcc/../../../../.././riscv-gcc/libgcc/soft-fp/ledf2.c:45 (discriminator 24)
   24ff4:	00c76eb3          	or	t4,a4,a2
   24ff8:	fe0e98e3          	bnez	t4,24fe8 <__ledf2+0x44>
/home/hdg/Desktop/desktop/toolchain/riscv-gnu-toolchain/build-gcc-newlib-stage2/riscv64-vega-elf/rv32im/ilp32/libgcc/../../../../.././riscv-gcc/libgcc/soft-fp/ledf2.c:45 (discriminator 62)
   24ffc:	08081063          	bnez	a6,2507c <__ledf2+0xd8>
/home/hdg/Desktop/desktop/toolchain/riscv-gnu-toolchain/build-gcc-newlib-stage2/riscv64-vega-elf/rv32im/ilp32/libgcc/../../../../.././riscv-gcc/libgcc/soft-fp/ledf2.c:45 (discriminator 63)
   25000:	00f8e7b3          	or	a5,a7,a5
   25004:	0017b793          	seqz	a5,a5
   25008:	00059663          	bnez	a1,25014 <__ledf2+0x70>
/home/hdg/Desktop/desktop/toolchain/riscv-gnu-toolchain/build-gcc-newlib-stage2/riscv64-vega-elf/rv32im/ilp32/libgcc/../../../../.././riscv-gcc/libgcc/soft-fp/ledf2.c:45 (discriminator 69)
   2500c:	00c76633          	or	a2,a4,a2
   25010:	04060c63          	beqz	a2,25068 <__ledf2+0xc4>
/home/hdg/Desktop/desktop/toolchain/riscv-gnu-toolchain/build-gcc-newlib-stage2/riscv64-vega-elf/rv32im/ilp32/libgcc/../../../../.././riscv-gcc/libgcc/soft-fp/ledf2.c:45
   25014:	00079c63          	bnez	a5,2502c <__ledf2+0x88>
   25018:	00d51463          	bne	a0,a3,25020 <__ledf2+0x7c>
/home/hdg/Desktop/desktop/toolchain/riscv-gnu-toolchain/build-gcc-newlib-stage2/riscv64-vega-elf/rv32im/ilp32/libgcc/../../../../.././riscv-gcc/libgcc/soft-fp/ledf2.c:45 (discriminator 95)
   2501c:	0305d063          	bge	a1,a6,2503c <__ledf2+0x98>
/home/hdg/Desktop/desktop/toolchain/riscv-gnu-toolchain/build-gcc-newlib-stage2/riscv64-vega-elf/rv32im/ilp32/libgcc/../../../../.././riscv-gcc/libgcc/soft-fp/ledf2.c:45 (discriminator 119)
   25020:	04050063          	beqz	a0,25060 <__ledf2+0xbc>
/home/hdg/Desktop/desktop/toolchain/riscv-gnu-toolchain/build-gcc-newlib-stage2/riscv64-vega-elf/rv32im/ilp32/libgcc/../../../../.././riscv-gcc/libgcc/soft-fp/ledf2.c:45
   25024:	fff00513          	li	a0,-1
   25028:	00008067          	ret
/home/hdg/Desktop/desktop/toolchain/riscv-gnu-toolchain/build-gcc-newlib-stage2/riscv64-vega-elf/rv32im/ilp32/libgcc/../../../../.././riscv-gcc/libgcc/soft-fp/ledf2.c:45 (discriminator 80)
   2502c:	fff00513          	li	a0,-1
   25030:	00068a63          	beqz	a3,25044 <__ledf2+0xa0>
/home/hdg/Desktop/desktop/toolchain/riscv-gnu-toolchain/build-gcc-newlib-stage2/riscv64-vega-elf/rv32im/ilp32/libgcc/../../../../.././riscv-gcc/libgcc/soft-fp/ledf2.c:45
   25034:	00068513          	mv	a0,a3
   25038:	00008067          	ret
/home/hdg/Desktop/desktop/toolchain/riscv-gnu-toolchain/build-gcc-newlib-stage2/riscv64-vega-elf/rv32im/ilp32/libgcc/../../../../.././riscv-gcc/libgcc/soft-fp/ledf2.c:45 (discriminator 102)
   2503c:	00b85663          	bge	a6,a1,25048 <__ledf2+0xa4>
/home/hdg/Desktop/desktop/toolchain/riscv-gnu-toolchain/build-gcc-newlib-stage2/riscv64-vega-elf/rv32im/ilp32/libgcc/../../../../.././riscv-gcc/libgcc/soft-fp/ledf2.c:45 (discriminator 130)
   25040:	fe0502e3          	beqz	a0,25024 <__ledf2+0x80>
/home/hdg/Desktop/desktop/toolchain/riscv-gnu-toolchain/build-gcc-newlib-stage2/riscv64-vega-elf/rv32im/ilp32/libgcc/../../../../.././riscv-gcc/libgcc/soft-fp/ledf2.c:49
   25044:	00008067          	ret
/home/hdg/Desktop/desktop/toolchain/riscv-gnu-toolchain/build-gcc-newlib-stage2/riscv64-vega-elf/rv32im/ilp32/libgcc/../../../../.././riscv-gcc/libgcc/soft-fp/ledf2.c:45 (discriminator 109)
   25048:	fd176ce3          	bltu	a4,a7,25020 <__ledf2+0x7c>
/home/hdg/Desktop/desktop/toolchain/riscv-gnu-toolchain/build-gcc-newlib-stage2/riscv64-vega-elf/rv32im/ilp32/libgcc/../../../../.././riscv-gcc/libgcc/soft-fp/ledf2.c:45 (discriminator 116)
   2504c:	02e89263          	bne	a7,a4,25070 <__ledf2+0xcc>
/home/hdg/Desktop/desktop/toolchain/riscv-gnu-toolchain/build-gcc-newlib-stage2/riscv64-vega-elf/rv32im/ilp32/libgcc/../../../../.././riscv-gcc/libgcc/soft-fp/ledf2.c:45 (discriminator 117)
   25050:	fc6e68e3          	bltu	t3,t1,25020 <__ledf2+0x7c>
/home/hdg/Desktop/desktop/toolchain/riscv-gnu-toolchain/build-gcc-newlib-stage2/riscv64-vega-elf/rv32im/ilp32/libgcc/../../../../.././riscv-gcc/libgcc/soft-fp/ledf2.c:45 (discriminator 128)
   25054:	ffc366e3          	bltu	t1,t3,25040 <__ledf2+0x9c>
/home/hdg/Desktop/desktop/toolchain/riscv-gnu-toolchain/build-gcc-newlib-stage2/riscv64-vega-elf/rv32im/ilp32/libgcc/../../../../.././riscv-gcc/libgcc/soft-fp/ledf2.c:45
   25058:	00000513          	li	a0,0
   2505c:	00008067          	ret
   25060:	00100513          	li	a0,1
   25064:	00008067          	ret
   25068:	fe0798e3          	bnez	a5,25058 <__ledf2+0xb4>
   2506c:	fb5ff06f          	j	25020 <__ledf2+0x7c>
   25070:	fce8e8e3          	bltu	a7,a4,25040 <__ledf2+0x9c>
   25074:	fe5ff06f          	j	25058 <__ledf2+0xb4>
   25078:	f7058ee3          	beq	a1,a6,24ff4 <__ledf2+0x50>
   2507c:	f8059ee3          	bnez	a1,25018 <__ledf2+0x74>
   25080:	00000793          	li	a5,0
   25084:	f89ff06f          	j	2500c <__ledf2+0x68>

00025088 <__muldf3>:
__muldf3():
/home/hdg/Desktop/desktop/toolchain/riscv-gnu-toolchain/build-gcc-newlib-stage2/riscv64-vega-elf/rv32im/ilp32/libgcc/../../../../.././riscv-gcc/libgcc/soft-fp/muldf3.c:36
   25088:	fd010113          	addi	sp,sp,-48
   2508c:	01312e23          	sw	s3,28(sp)
/home/hdg/Desktop/desktop/toolchain/riscv-gnu-toolchain/build-gcc-newlib-stage2/riscv64-vega-elf/rv32im/ilp32/libgcc/../../../../.././riscv-gcc/libgcc/soft-fp/muldf3.c:44
   25090:	0145d993          	srli	s3,a1,0x14
/home/hdg/Desktop/desktop/toolchain/riscv-gnu-toolchain/build-gcc-newlib-stage2/riscv64-vega-elf/rv32im/ilp32/libgcc/../../../../.././riscv-gcc/libgcc/soft-fp/muldf3.c:36
   25094:	02812423          	sw	s0,40(sp)
   25098:	02912223          	sw	s1,36(sp)
   2509c:	01412c23          	sw	s4,24(sp)
   250a0:	01512a23          	sw	s5,20(sp)
   250a4:	01712623          	sw	s7,12(sp)
/home/hdg/Desktop/desktop/toolchain/riscv-gnu-toolchain/build-gcc-newlib-stage2/riscv64-vega-elf/rv32im/ilp32/libgcc/../../../../.././riscv-gcc/libgcc/soft-fp/muldf3.c:44
   250a8:	00c59493          	slli	s1,a1,0xc
/home/hdg/Desktop/desktop/toolchain/riscv-gnu-toolchain/build-gcc-newlib-stage2/riscv64-vega-elf/rv32im/ilp32/libgcc/../../../../.././riscv-gcc/libgcc/soft-fp/muldf3.c:36
   250ac:	02112623          	sw	ra,44(sp)
   250b0:	03212023          	sw	s2,32(sp)
   250b4:	01612823          	sw	s6,16(sp)
/home/hdg/Desktop/desktop/toolchain/riscv-gnu-toolchain/build-gcc-newlib-stage2/riscv64-vega-elf/rv32im/ilp32/libgcc/../../../../.././riscv-gcc/libgcc/soft-fp/muldf3.c:44
   250b8:	7ff9f993          	andi	s3,s3,2047
/home/hdg/Desktop/desktop/toolchain/riscv-gnu-toolchain/build-gcc-newlib-stage2/riscv64-vega-elf/rv32im/ilp32/libgcc/../../../../.././riscv-gcc/libgcc/soft-fp/muldf3.c:36
   250bc:	00050413          	mv	s0,a0
   250c0:	00060b93          	mv	s7,a2
   250c4:	00068a93          	mv	s5,a3
/home/hdg/Desktop/desktop/toolchain/riscv-gnu-toolchain/build-gcc-newlib-stage2/riscv64-vega-elf/rv32im/ilp32/libgcc/../../../../.././riscv-gcc/libgcc/soft-fp/muldf3.c:44
   250c8:	00c4d493          	srli	s1,s1,0xc
   250cc:	01f5da13          	srli	s4,a1,0x1f
   250d0:	0a098463          	beqz	s3,25178 <__muldf3+0xf0>
   250d4:	7ff00793          	li	a5,2047
   250d8:	10f98263          	beq	s3,a5,251dc <__muldf3+0x154>
/home/hdg/Desktop/desktop/toolchain/riscv-gnu-toolchain/build-gcc-newlib-stage2/riscv64-vega-elf/rv32im/ilp32/libgcc/../../../../.././riscv-gcc/libgcc/soft-fp/muldf3.c:44 (discriminator 1)
   250dc:	01d55793          	srli	a5,a0,0x1d
   250e0:	00349493          	slli	s1,s1,0x3
   250e4:	0097e4b3          	or	s1,a5,s1
   250e8:	008007b7          	lui	a5,0x800
   250ec:	00f4e4b3          	or	s1,s1,a5
   250f0:	00351913          	slli	s2,a0,0x3
   250f4:	c0198993          	addi	s3,s3,-1023
/home/hdg/Desktop/desktop/toolchain/riscv-gnu-toolchain/build-gcc-newlib-stage2/riscv64-vega-elf/rv32im/ilp32/libgcc/../../../../.././riscv-gcc/libgcc/soft-fp/muldf3.c:44 (discriminator 41)
   250f8:	00000b13          	li	s6,0
/home/hdg/Desktop/desktop/toolchain/riscv-gnu-toolchain/build-gcc-newlib-stage2/riscv64-vega-elf/rv32im/ilp32/libgcc/../../../../.././riscv-gcc/libgcc/soft-fp/muldf3.c:45 (discriminator 8)
   250fc:	014ad513          	srli	a0,s5,0x14
   25100:	00ca9413          	slli	s0,s5,0xc
   25104:	7ff57513          	andi	a0,a0,2047
   25108:	00c45413          	srli	s0,s0,0xc
   2510c:	01fada93          	srli	s5,s5,0x1f
   25110:	10050263          	beqz	a0,25214 <__muldf3+0x18c>
/home/hdg/Desktop/desktop/toolchain/riscv-gnu-toolchain/build-gcc-newlib-stage2/riscv64-vega-elf/rv32im/ilp32/libgcc/../../../../.././riscv-gcc/libgcc/soft-fp/muldf3.c:45
   25114:	7ff00793          	li	a5,2047
   25118:	16f50263          	beq	a0,a5,2527c <__muldf3+0x1f4>
/home/hdg/Desktop/desktop/toolchain/riscv-gnu-toolchain/build-gcc-newlib-stage2/riscv64-vega-elf/rv32im/ilp32/libgcc/../../../../.././riscv-gcc/libgcc/soft-fp/muldf3.c:45 (discriminator 1)
   2511c:	01dbd793          	srli	a5,s7,0x1d
   25120:	00341413          	slli	s0,s0,0x3
   25124:	0087e433          	or	s0,a5,s0
   25128:	008007b7          	lui	a5,0x800
   2512c:	00f46433          	or	s0,s0,a5
   25130:	c0150513          	addi	a0,a0,-1023 # 7fc01 <__global_pointer$+0x580bd>
   25134:	003b9793          	slli	a5,s7,0x3
/home/hdg/Desktop/desktop/toolchain/riscv-gnu-toolchain/build-gcc-newlib-stage2/riscv64-vega-elf/rv32im/ilp32/libgcc/../../../../.././riscv-gcc/libgcc/soft-fp/muldf3.c:45 (discriminator 41)
   25138:	00000713          	li	a4,0
/home/hdg/Desktop/desktop/toolchain/riscv-gnu-toolchain/build-gcc-newlib-stage2/riscv64-vega-elf/rv32im/ilp32/libgcc/../../../../.././riscv-gcc/libgcc/soft-fp/muldf3.c:46 (discriminator 8)
   2513c:	002b1693          	slli	a3,s6,0x2
   25140:	00e6e6b3          	or	a3,a3,a4
   25144:	00a98533          	add	a0,s3,a0
   25148:	fff68693          	addi	a3,a3,-1 # 7fefffff <__global_pointer$+0x7fed84bb>
   2514c:	00e00813          	li	a6,14
   25150:	015a4633          	xor	a2,s4,s5
   25154:	00150593          	addi	a1,a0,1
   25158:	14d86e63          	bltu	a6,a3,252b4 <__muldf3+0x22c>
   2515c:	00002517          	auipc	a0,0x2
   25160:	ff850513          	addi	a0,a0,-8 # 27154 <main+0x5a8>
   25164:	00269693          	slli	a3,a3,0x2
   25168:	00a686b3          	add	a3,a3,a0
   2516c:	0006a683          	lw	a3,0(a3)
   25170:	00a686b3          	add	a3,a3,a0
   25174:	00068067          	jr	a3
/home/hdg/Desktop/desktop/toolchain/riscv-gnu-toolchain/build-gcc-newlib-stage2/riscv64-vega-elf/rv32im/ilp32/libgcc/../../../../.././riscv-gcc/libgcc/soft-fp/muldf3.c:44 (discriminator 2)
   25178:	00a4e933          	or	s2,s1,a0
   2517c:	06090c63          	beqz	s2,251f4 <__muldf3+0x16c>
/home/hdg/Desktop/desktop/toolchain/riscv-gnu-toolchain/build-gcc-newlib-stage2/riscv64-vega-elf/rv32im/ilp32/libgcc/../../../../.././riscv-gcc/libgcc/soft-fp/muldf3.c:44 (discriminator 13)
   25180:	04048063          	beqz	s1,251c0 <__muldf3+0x138>
/home/hdg/Desktop/desktop/toolchain/riscv-gnu-toolchain/build-gcc-newlib-stage2/riscv64-vega-elf/rv32im/ilp32/libgcc/../../../../.././riscv-gcc/libgcc/soft-fp/muldf3.c:44 (discriminator 17)
   25184:	00048513          	mv	a0,s1
   25188:	1d9010ef          	jal	ra,26b60 <__clzsi2>
/home/hdg/Desktop/desktop/toolchain/riscv-gnu-toolchain/build-gcc-newlib-stage2/riscv64-vega-elf/rv32im/ilp32/libgcc/../../../../.././riscv-gcc/libgcc/soft-fp/muldf3.c:44 (discriminator 31)
   2518c:	ff550713          	addi	a4,a0,-11
   25190:	01c00793          	li	a5,28
   25194:	02e7cc63          	blt	a5,a4,251cc <__muldf3+0x144>
/home/hdg/Desktop/desktop/toolchain/riscv-gnu-toolchain/build-gcc-newlib-stage2/riscv64-vega-elf/rv32im/ilp32/libgcc/../../../../.././riscv-gcc/libgcc/soft-fp/muldf3.c:44 (discriminator 32)
   25198:	01d00793          	li	a5,29
   2519c:	ff850913          	addi	s2,a0,-8
   251a0:	40e787b3          	sub	a5,a5,a4
   251a4:	012494b3          	sll	s1,s1,s2
   251a8:	00f457b3          	srl	a5,s0,a5
   251ac:	0097e4b3          	or	s1,a5,s1
   251b0:	01241933          	sll	s2,s0,s2
/home/hdg/Desktop/desktop/toolchain/riscv-gnu-toolchain/build-gcc-newlib-stage2/riscv64-vega-elf/rv32im/ilp32/libgcc/../../../../.././riscv-gcc/libgcc/soft-fp/muldf3.c:44 (discriminator 41)
   251b4:	c0d00993          	li	s3,-1011
   251b8:	40a989b3          	sub	s3,s3,a0
   251bc:	f3dff06f          	j	250f8 <__muldf3+0x70>
/home/hdg/Desktop/desktop/toolchain/riscv-gnu-toolchain/build-gcc-newlib-stage2/riscv64-vega-elf/rv32im/ilp32/libgcc/../../../../.././riscv-gcc/libgcc/soft-fp/muldf3.c:44 (discriminator 24)
   251c0:	1a1010ef          	jal	ra,26b60 <__clzsi2>
   251c4:	02050513          	addi	a0,a0,32
   251c8:	fc5ff06f          	j	2518c <__muldf3+0x104>
/home/hdg/Desktop/desktop/toolchain/riscv-gnu-toolchain/build-gcc-newlib-stage2/riscv64-vega-elf/rv32im/ilp32/libgcc/../../../../.././riscv-gcc/libgcc/soft-fp/muldf3.c:44 (discriminator 33)
   251cc:	fd850493          	addi	s1,a0,-40
   251d0:	009414b3          	sll	s1,s0,s1
   251d4:	00000913          	li	s2,0
   251d8:	fddff06f          	j	251b4 <__muldf3+0x12c>
/home/hdg/Desktop/desktop/toolchain/riscv-gnu-toolchain/build-gcc-newlib-stage2/riscv64-vega-elf/rv32im/ilp32/libgcc/../../../../.././riscv-gcc/libgcc/soft-fp/muldf3.c:44 (discriminator 3)
   251dc:	00a4e933          	or	s2,s1,a0
   251e0:	02090263          	beqz	s2,25204 <__muldf3+0x17c>
/home/hdg/Desktop/desktop/toolchain/riscv-gnu-toolchain/build-gcc-newlib-stage2/riscv64-vega-elf/rv32im/ilp32/libgcc/../../../../.././riscv-gcc/libgcc/soft-fp/muldf3.c:44
   251e4:	00050913          	mv	s2,a0
   251e8:	7ff00993          	li	s3,2047
   251ec:	00300b13          	li	s6,3
   251f0:	f0dff06f          	j	250fc <__muldf3+0x74>
   251f4:	00000493          	li	s1,0
   251f8:	00000993          	li	s3,0
   251fc:	00100b13          	li	s6,1
   25200:	efdff06f          	j	250fc <__muldf3+0x74>
   25204:	00000493          	li	s1,0
   25208:	7ff00993          	li	s3,2047
   2520c:	00200b13          	li	s6,2
   25210:	eedff06f          	j	250fc <__muldf3+0x74>
/home/hdg/Desktop/desktop/toolchain/riscv-gnu-toolchain/build-gcc-newlib-stage2/riscv64-vega-elf/rv32im/ilp32/libgcc/../../../../.././riscv-gcc/libgcc/soft-fp/muldf3.c:45 (discriminator 2)
   25214:	017467b3          	or	a5,s0,s7
   25218:	06078e63          	beqz	a5,25294 <__muldf3+0x20c>
/home/hdg/Desktop/desktop/toolchain/riscv-gnu-toolchain/build-gcc-newlib-stage2/riscv64-vega-elf/rv32im/ilp32/libgcc/../../../../.././riscv-gcc/libgcc/soft-fp/muldf3.c:45 (discriminator 13)
   2521c:	04040063          	beqz	s0,2525c <__muldf3+0x1d4>
/home/hdg/Desktop/desktop/toolchain/riscv-gnu-toolchain/build-gcc-newlib-stage2/riscv64-vega-elf/rv32im/ilp32/libgcc/../../../../.././riscv-gcc/libgcc/soft-fp/muldf3.c:45 (discriminator 17)
   25220:	00040513          	mv	a0,s0
   25224:	13d010ef          	jal	ra,26b60 <__clzsi2>
/home/hdg/Desktop/desktop/toolchain/riscv-gnu-toolchain/build-gcc-newlib-stage2/riscv64-vega-elf/rv32im/ilp32/libgcc/../../../../.././riscv-gcc/libgcc/soft-fp/muldf3.c:45 (discriminator 31)
   25228:	ff550693          	addi	a3,a0,-11
   2522c:	01c00793          	li	a5,28
   25230:	02d7ce63          	blt	a5,a3,2526c <__muldf3+0x1e4>
/home/hdg/Desktop/desktop/toolchain/riscv-gnu-toolchain/build-gcc-newlib-stage2/riscv64-vega-elf/rv32im/ilp32/libgcc/../../../../.././riscv-gcc/libgcc/soft-fp/muldf3.c:45 (discriminator 32)
   25234:	01d00713          	li	a4,29
   25238:	ff850793          	addi	a5,a0,-8
   2523c:	40d70733          	sub	a4,a4,a3
   25240:	00f41433          	sll	s0,s0,a5
   25244:	00ebd733          	srl	a4,s7,a4
   25248:	00876433          	or	s0,a4,s0
   2524c:	00fb97b3          	sll	a5,s7,a5
/home/hdg/Desktop/desktop/toolchain/riscv-gnu-toolchain/build-gcc-newlib-stage2/riscv64-vega-elf/rv32im/ilp32/libgcc/../../../../.././riscv-gcc/libgcc/soft-fp/muldf3.c:45 (discriminator 41)
   25250:	c0d00713          	li	a4,-1011
   25254:	40a70533          	sub	a0,a4,a0
   25258:	ee1ff06f          	j	25138 <__muldf3+0xb0>
/home/hdg/Desktop/desktop/toolchain/riscv-gnu-toolchain/build-gcc-newlib-stage2/riscv64-vega-elf/rv32im/ilp32/libgcc/../../../../.././riscv-gcc/libgcc/soft-fp/muldf3.c:45 (discriminator 24)
   2525c:	000b8513          	mv	a0,s7
   25260:	101010ef          	jal	ra,26b60 <__clzsi2>
   25264:	02050513          	addi	a0,a0,32
   25268:	fc1ff06f          	j	25228 <__muldf3+0x1a0>
/home/hdg/Desktop/desktop/toolchain/riscv-gnu-toolchain/build-gcc-newlib-stage2/riscv64-vega-elf/rv32im/ilp32/libgcc/../../../../.././riscv-gcc/libgcc/soft-fp/muldf3.c:45 (discriminator 33)
   2526c:	fd850413          	addi	s0,a0,-40
   25270:	008b9433          	sll	s0,s7,s0
   25274:	00000793          	li	a5,0
   25278:	fd9ff06f          	j	25250 <__muldf3+0x1c8>
/home/hdg/Desktop/desktop/toolchain/riscv-gnu-toolchain/build-gcc-newlib-stage2/riscv64-vega-elf/rv32im/ilp32/libgcc/../../../../.././riscv-gcc/libgcc/soft-fp/muldf3.c:45 (discriminator 3)
   2527c:	017467b3          	or	a5,s0,s7
   25280:	02078263          	beqz	a5,252a4 <__muldf3+0x21c>
/home/hdg/Desktop/desktop/toolchain/riscv-gnu-toolchain/build-gcc-newlib-stage2/riscv64-vega-elf/rv32im/ilp32/libgcc/../../../../.././riscv-gcc/libgcc/soft-fp/muldf3.c:45
   25284:	000b8793          	mv	a5,s7
   25288:	7ff00513          	li	a0,2047
   2528c:	00300713          	li	a4,3
   25290:	eadff06f          	j	2513c <__muldf3+0xb4>
   25294:	00000413          	li	s0,0
   25298:	00000513          	li	a0,0
   2529c:	00100713          	li	a4,1
   252a0:	e9dff06f          	j	2513c <__muldf3+0xb4>
   252a4:	00000413          	li	s0,0
   252a8:	7ff00513          	li	a0,2047
   252ac:	00200713          	li	a4,2
   252b0:	e8dff06f          	j	2513c <__muldf3+0xb4>
/home/hdg/Desktop/desktop/toolchain/riscv-gnu-toolchain/build-gcc-newlib-stage2/riscv64-vega-elf/rv32im/ilp32/libgcc/../../../../.././riscv-gcc/libgcc/soft-fp/muldf3.c:46 (discriminator 2)
   252b4:	00010f37          	lui	t5,0x10
   252b8:	ffff0e93          	addi	t4,t5,-1 # ffff <_tbss_end+0xffff>
   252bc:	01095713          	srli	a4,s2,0x10
   252c0:	0107d893          	srli	a7,a5,0x10
   252c4:	01d97933          	and	s2,s2,t4
   252c8:	01d7f7b3          	and	a5,a5,t4
   252cc:	03288833          	mul	a6,a7,s2
   252d0:	02f906b3          	mul	a3,s2,a5
   252d4:	02f70fb3          	mul	t6,a4,a5
   252d8:	01f80333          	add	t1,a6,t6
   252dc:	0106d813          	srli	a6,a3,0x10
   252e0:	00680833          	add	a6,a6,t1
   252e4:	03170e33          	mul	t3,a4,a7
   252e8:	01f87463          	bgeu	a6,t6,252f0 <__muldf3+0x268>
/home/hdg/Desktop/desktop/toolchain/riscv-gnu-toolchain/build-gcc-newlib-stage2/riscv64-vega-elf/rv32im/ilp32/libgcc/../../../../.././riscv-gcc/libgcc/soft-fp/muldf3.c:46 (discriminator 9)
   252ec:	01ee0e33          	add	t3,t3,t5
/home/hdg/Desktop/desktop/toolchain/riscv-gnu-toolchain/build-gcc-newlib-stage2/riscv64-vega-elf/rv32im/ilp32/libgcc/../../../../.././riscv-gcc/libgcc/soft-fp/muldf3.c:46 (discriminator 11)
   252f0:	01085393          	srli	t2,a6,0x10
   252f4:	01d87833          	and	a6,a6,t4
   252f8:	01d6f6b3          	and	a3,a3,t4
   252fc:	01045f13          	srli	t5,s0,0x10
   25300:	01d472b3          	and	t0,s0,t4
   25304:	01081813          	slli	a6,a6,0x10
   25308:	00d80833          	add	a6,a6,a3
   2530c:	02570eb3          	mul	t4,a4,t0
   25310:	025906b3          	mul	a3,s2,t0
   25314:	032f0933          	mul	s2,t5,s2
   25318:	01d90333          	add	t1,s2,t4
   2531c:	0106d913          	srli	s2,a3,0x10
   25320:	00690933          	add	s2,s2,t1
   25324:	03e70733          	mul	a4,a4,t5
   25328:	01d97663          	bgeu	s2,t4,25334 <__muldf3+0x2ac>
/home/hdg/Desktop/desktop/toolchain/riscv-gnu-toolchain/build-gcc-newlib-stage2/riscv64-vega-elf/rv32im/ilp32/libgcc/../../../../.././riscv-gcc/libgcc/soft-fp/muldf3.c:46 (discriminator 12)
   2532c:	00010337          	lui	t1,0x10
   25330:	00670733          	add	a4,a4,t1
/home/hdg/Desktop/desktop/toolchain/riscv-gnu-toolchain/build-gcc-newlib-stage2/riscv64-vega-elf/rv32im/ilp32/libgcc/../../../../.././riscv-gcc/libgcc/soft-fp/muldf3.c:46 (discriminator 14)
   25334:	01095e93          	srli	t4,s2,0x10
   25338:	000109b7          	lui	s3,0x10
   2533c:	00ee8eb3          	add	t4,t4,a4
   25340:	fff98713          	addi	a4,s3,-1 # ffff <_tbss_end+0xffff>
   25344:	00e97933          	and	s2,s2,a4
   25348:	00e6f6b3          	and	a3,a3,a4
   2534c:	0104d413          	srli	s0,s1,0x10
   25350:	01091913          	slli	s2,s2,0x10
   25354:	00e4f4b3          	and	s1,s1,a4
   25358:	02978733          	mul	a4,a5,s1
   2535c:	00d90933          	add	s2,s2,a3
   25360:	012383b3          	add	t2,t2,s2
   25364:	02f40333          	mul	t1,s0,a5
   25368:	029886b3          	mul	a3,a7,s1
   2536c:	028887b3          	mul	a5,a7,s0
   25370:	006688b3          	add	a7,a3,t1
   25374:	01075693          	srli	a3,a4,0x10
   25378:	011686b3          	add	a3,a3,a7
   2537c:	0066f463          	bgeu	a3,t1,25384 <__muldf3+0x2fc>
/home/hdg/Desktop/desktop/toolchain/riscv-gnu-toolchain/build-gcc-newlib-stage2/riscv64-vega-elf/rv32im/ilp32/libgcc/../../../../.././riscv-gcc/libgcc/soft-fp/muldf3.c:46 (discriminator 15)
   25380:	013787b3          	add	a5,a5,s3
/home/hdg/Desktop/desktop/toolchain/riscv-gnu-toolchain/build-gcc-newlib-stage2/riscv64-vega-elf/rv32im/ilp32/libgcc/../../../../.././riscv-gcc/libgcc/soft-fp/muldf3.c:46 (discriminator 17)
   25384:	0106d893          	srli	a7,a3,0x10
   25388:	000109b7          	lui	s3,0x10
   2538c:	00f88fb3          	add	t6,a7,a5
   25390:	fff98793          	addi	a5,s3,-1 # ffff <_tbss_end+0xffff>
   25394:	029288b3          	mul	a7,t0,s1
   25398:	00f6f6b3          	and	a3,a3,a5
   2539c:	00f77733          	and	a4,a4,a5
   253a0:	01069693          	slli	a3,a3,0x10
   253a4:	00e686b3          	add	a3,a3,a4
   253a8:	025407b3          	mul	a5,s0,t0
   253ac:	029f04b3          	mul	s1,t5,s1
   253b0:	028f0333          	mul	t1,t5,s0
   253b4:	00f484b3          	add	s1,s1,a5
   253b8:	0108d413          	srli	s0,a7,0x10
   253bc:	009404b3          	add	s1,s0,s1
   253c0:	00f4f463          	bgeu	s1,a5,253c8 <__muldf3+0x340>
/home/hdg/Desktop/desktop/toolchain/riscv-gnu-toolchain/build-gcc-newlib-stage2/riscv64-vega-elf/rv32im/ilp32/libgcc/../../../../.././riscv-gcc/libgcc/soft-fp/muldf3.c:46 (discriminator 18)
   253c4:	01330333          	add	t1,t1,s3
/home/hdg/Desktop/desktop/toolchain/riscv-gnu-toolchain/build-gcc-newlib-stage2/riscv64-vega-elf/rv32im/ilp32/libgcc/../../../../.././riscv-gcc/libgcc/soft-fp/muldf3.c:46 (discriminator 20)
   253c8:	000107b7          	lui	a5,0x10
   253cc:	fff78793          	addi	a5,a5,-1 # ffff <_tbss_end+0xffff>
   253d0:	00f4f733          	and	a4,s1,a5
   253d4:	00f8f8b3          	and	a7,a7,a5
   253d8:	01071713          	slli	a4,a4,0x10
   253dc:	007e0e33          	add	t3,t3,t2
   253e0:	01170733          	add	a4,a4,a7
   253e4:	012e3933          	sltu	s2,t3,s2
   253e8:	01d70733          	add	a4,a4,t4
   253ec:	01270433          	add	s0,a4,s2
   253f0:	00de0e33          	add	t3,t3,a3
   253f4:	00de36b3          	sltu	a3,t3,a3
   253f8:	01f408b3          	add	a7,s0,t6
   253fc:	00d88f33          	add	t5,a7,a3
   25400:	01d73733          	sltu	a4,a4,t4
   25404:	01243433          	sltu	s0,s0,s2
   25408:	00876433          	or	s0,a4,s0
   2540c:	0104d493          	srli	s1,s1,0x10
   25410:	01f8b8b3          	sltu	a7,a7,t6
   25414:	00df36b3          	sltu	a3,t5,a3
   25418:	00940433          	add	s0,s0,s1
   2541c:	00d8e6b3          	or	a3,a7,a3
   25420:	00d40433          	add	s0,s0,a3
   25424:	00640433          	add	s0,s0,t1
   25428:	017f5793          	srli	a5,t5,0x17
   2542c:	00941413          	slli	s0,s0,0x9
   25430:	00f46433          	or	s0,s0,a5
   25434:	009e1793          	slli	a5,t3,0x9
   25438:	0107e7b3          	or	a5,a5,a6
   2543c:	00f037b3          	snez	a5,a5
   25440:	017e5e13          	srli	t3,t3,0x17
   25444:	009f1713          	slli	a4,t5,0x9
   25448:	01c7e7b3          	or	a5,a5,t3
   2544c:	00e7e7b3          	or	a5,a5,a4
   25450:	01000737          	lui	a4,0x1000
   25454:	00e47733          	and	a4,s0,a4
   25458:	10070663          	beqz	a4,25564 <__muldf3+0x4dc>
/home/hdg/Desktop/desktop/toolchain/riscv-gnu-toolchain/build-gcc-newlib-stage2/riscv64-vega-elf/rv32im/ilp32/libgcc/../../../../.././riscv-gcc/libgcc/soft-fp/muldf3.c:46 (discriminator 38)
   2545c:	0017d713          	srli	a4,a5,0x1
   25460:	0017f793          	andi	a5,a5,1
   25464:	00f767b3          	or	a5,a4,a5
   25468:	01f41713          	slli	a4,s0,0x1f
   2546c:	00e7e7b3          	or	a5,a5,a4
   25470:	00145413          	srli	s0,s0,0x1
/home/hdg/Desktop/desktop/toolchain/riscv-gnu-toolchain/build-gcc-newlib-stage2/riscv64-vega-elf/rv32im/ilp32/libgcc/../../../../.././riscv-gcc/libgcc/soft-fp/muldf3.c:47 (discriminator 2)
   25474:	3ff58693          	addi	a3,a1,1023
   25478:	0ed05a63          	blez	a3,2556c <__muldf3+0x4e4>
/home/hdg/Desktop/desktop/toolchain/riscv-gnu-toolchain/build-gcc-newlib-stage2/riscv64-vega-elf/rv32im/ilp32/libgcc/../../../../.././riscv-gcc/libgcc/soft-fp/muldf3.c:47 (discriminator 6)
   2547c:	0077f713          	andi	a4,a5,7
   25480:	02070063          	beqz	a4,254a0 <__muldf3+0x418>
/home/hdg/Desktop/desktop/toolchain/riscv-gnu-toolchain/build-gcc-newlib-stage2/riscv64-vega-elf/rv32im/ilp32/libgcc/../../../../.././riscv-gcc/libgcc/soft-fp/muldf3.c:47 (discriminator 8)
   25484:	00f7f713          	andi	a4,a5,15
   25488:	00400513          	li	a0,4
   2548c:	00a70a63          	beq	a4,a0,254a0 <__muldf3+0x418>
/home/hdg/Desktop/desktop/toolchain/riscv-gnu-toolchain/build-gcc-newlib-stage2/riscv64-vega-elf/rv32im/ilp32/libgcc/../../../../.././riscv-gcc/libgcc/soft-fp/muldf3.c:47 (discriminator 10)
   25490:	00478713          	addi	a4,a5,4
   25494:	00f737b3          	sltu	a5,a4,a5
   25498:	00f40433          	add	s0,s0,a5
   2549c:	00070793          	mv	a5,a4
/home/hdg/Desktop/desktop/toolchain/riscv-gnu-toolchain/build-gcc-newlib-stage2/riscv64-vega-elf/rv32im/ilp32/libgcc/../../../../.././riscv-gcc/libgcc/soft-fp/muldf3.c:47 (discriminator 9)
   254a0:	01000737          	lui	a4,0x1000
   254a4:	00e47733          	and	a4,s0,a4
   254a8:	00070a63          	beqz	a4,254bc <__muldf3+0x434>
/home/hdg/Desktop/desktop/toolchain/riscv-gnu-toolchain/build-gcc-newlib-stage2/riscv64-vega-elf/rv32im/ilp32/libgcc/../../../../.././riscv-gcc/libgcc/soft-fp/muldf3.c:47 (discriminator 24)
   254ac:	ff000737          	lui	a4,0xff000
   254b0:	fff70713          	addi	a4,a4,-1 # feffffff <__global_pointer$+0xfefd84bb>
   254b4:	00e47433          	and	s0,s0,a4
   254b8:	40058693          	addi	a3,a1,1024
/home/hdg/Desktop/desktop/toolchain/riscv-gnu-toolchain/build-gcc-newlib-stage2/riscv64-vega-elf/rv32im/ilp32/libgcc/../../../../.././riscv-gcc/libgcc/soft-fp/muldf3.c:47 (discriminator 26)
   254bc:	7fe00713          	li	a4,2046
   254c0:	16d74a63          	blt	a4,a3,25634 <__muldf3+0x5ac>
/home/hdg/Desktop/desktop/toolchain/riscv-gnu-toolchain/build-gcc-newlib-stage2/riscv64-vega-elf/rv32im/ilp32/libgcc/../../../../.././riscv-gcc/libgcc/soft-fp/muldf3.c:47
   254c4:	0037d713          	srli	a4,a5,0x3
   254c8:	01d41793          	slli	a5,s0,0x1d
   254cc:	00e7e7b3          	or	a5,a5,a4
   254d0:	00345413          	srli	s0,s0,0x3
/home/hdg/Desktop/desktop/toolchain/riscv-gnu-toolchain/build-gcc-newlib-stage2/riscv64-vega-elf/rv32im/ilp32/libgcc/../../../../.././riscv-gcc/libgcc/soft-fp/muldf3.c:47 (discriminator 119)
   254d4:	01469713          	slli	a4,a3,0x14
   254d8:	00c41413          	slli	s0,s0,0xc
   254dc:	7ff006b7          	lui	a3,0x7ff00
   254e0:	00d77733          	and	a4,a4,a3
   254e4:	00c45413          	srli	s0,s0,0xc
   254e8:	00876433          	or	s0,a4,s0
   254ec:	01f61613          	slli	a2,a2,0x1f
/home/hdg/Desktop/desktop/toolchain/riscv-gnu-toolchain/build-gcc-newlib-stage2/riscv64-vega-elf/rv32im/ilp32/libgcc/../../../../.././riscv-gcc/libgcc/soft-fp/muldf3.c:51 (discriminator 119)
   254f0:	02c12083          	lw	ra,44(sp)
/home/hdg/Desktop/desktop/toolchain/riscv-gnu-toolchain/build-gcc-newlib-stage2/riscv64-vega-elf/rv32im/ilp32/libgcc/../../../../.././riscv-gcc/libgcc/soft-fp/muldf3.c:47 (discriminator 119)
   254f4:	00c46733          	or	a4,s0,a2
/home/hdg/Desktop/desktop/toolchain/riscv-gnu-toolchain/build-gcc-newlib-stage2/riscv64-vega-elf/rv32im/ilp32/libgcc/../../../../.././riscv-gcc/libgcc/soft-fp/muldf3.c:51 (discriminator 119)
   254f8:	02812403          	lw	s0,40(sp)
   254fc:	02412483          	lw	s1,36(sp)
   25500:	02012903          	lw	s2,32(sp)
   25504:	01c12983          	lw	s3,28(sp)
   25508:	01812a03          	lw	s4,24(sp)
   2550c:	01412a83          	lw	s5,20(sp)
   25510:	01012b03          	lw	s6,16(sp)
   25514:	00c12b83          	lw	s7,12(sp)
   25518:	00078513          	mv	a0,a5
   2551c:	00070593          	mv	a1,a4
   25520:	03010113          	addi	sp,sp,48
   25524:	00008067          	ret
/home/hdg/Desktop/desktop/toolchain/riscv-gnu-toolchain/build-gcc-newlib-stage2/riscv64-vega-elf/rv32im/ilp32/libgcc/../../../../.././riscv-gcc/libgcc/soft-fp/muldf3.c:44 (discriminator 7)
   25528:	000a0613          	mv	a2,s4
/home/hdg/Desktop/desktop/toolchain/riscv-gnu-toolchain/build-gcc-newlib-stage2/riscv64-vega-elf/rv32im/ilp32/libgcc/../../../../.././riscv-gcc/libgcc/soft-fp/muldf3.c:46 (discriminator 7)
   2552c:	00048413          	mv	s0,s1
   25530:	00090793          	mv	a5,s2
   25534:	000b0713          	mv	a4,s6
/home/hdg/Desktop/desktop/toolchain/riscv-gnu-toolchain/build-gcc-newlib-stage2/riscv64-vega-elf/rv32im/ilp32/libgcc/../../../../.././riscv-gcc/libgcc/soft-fp/muldf3.c:47 (discriminator 47)
   25538:	00200693          	li	a3,2
   2553c:	0ed70c63          	beq	a4,a3,25634 <__muldf3+0x5ac>
/home/hdg/Desktop/desktop/toolchain/riscv-gnu-toolchain/build-gcc-newlib-stage2/riscv64-vega-elf/rv32im/ilp32/libgcc/../../../../.././riscv-gcc/libgcc/soft-fp/muldf3.c:47
   25540:	00300693          	li	a3,3
   25544:	0cd70e63          	beq	a4,a3,25620 <__muldf3+0x598>
   25548:	00100693          	li	a3,1
   2554c:	f2d714e3          	bne	a4,a3,25474 <__muldf3+0x3ec>
   25550:	00000413          	li	s0,0
   25554:	00000793          	li	a5,0
   25558:	08c0006f          	j	255e4 <__muldf3+0x55c>
/home/hdg/Desktop/desktop/toolchain/riscv-gnu-toolchain/build-gcc-newlib-stage2/riscv64-vega-elf/rv32im/ilp32/libgcc/../../../../.././riscv-gcc/libgcc/soft-fp/muldf3.c:45 (discriminator 4)
   2555c:	000a8613          	mv	a2,s5
/home/hdg/Desktop/desktop/toolchain/riscv-gnu-toolchain/build-gcc-newlib-stage2/riscv64-vega-elf/rv32im/ilp32/libgcc/../../../../.././riscv-gcc/libgcc/soft-fp/muldf3.c:46 (discriminator 4)
   25560:	fd9ff06f          	j	25538 <__muldf3+0x4b0>
/home/hdg/Desktop/desktop/toolchain/riscv-gnu-toolchain/build-gcc-newlib-stage2/riscv64-vega-elf/rv32im/ilp32/libgcc/../../../../.././riscv-gcc/libgcc/soft-fp/muldf3.c:46
   25564:	00050593          	mv	a1,a0
   25568:	f0dff06f          	j	25474 <__muldf3+0x3ec>
/home/hdg/Desktop/desktop/toolchain/riscv-gnu-toolchain/build-gcc-newlib-stage2/riscv64-vega-elf/rv32im/ilp32/libgcc/../../../../.././riscv-gcc/libgcc/soft-fp/muldf3.c:47 (discriminator 59)
   2556c:	00100513          	li	a0,1
   25570:	40d50533          	sub	a0,a0,a3
   25574:	03800713          	li	a4,56
   25578:	fca74ce3          	blt	a4,a0,25550 <__muldf3+0x4c8>
/home/hdg/Desktop/desktop/toolchain/riscv-gnu-toolchain/build-gcc-newlib-stage2/riscv64-vega-elf/rv32im/ilp32/libgcc/../../../../.././riscv-gcc/libgcc/soft-fp/muldf3.c:47 (discriminator 60)
   2557c:	01f00713          	li	a4,31
   25580:	06a74663          	blt	a4,a0,255ec <__muldf3+0x564>
/home/hdg/Desktop/desktop/toolchain/riscv-gnu-toolchain/build-gcc-newlib-stage2/riscv64-vega-elf/rv32im/ilp32/libgcc/../../../../.././riscv-gcc/libgcc/soft-fp/muldf3.c:47 (discriminator 62)
   25584:	41e58593          	addi	a1,a1,1054
   25588:	00b41733          	sll	a4,s0,a1
   2558c:	00a7d6b3          	srl	a3,a5,a0
   25590:	00b797b3          	sll	a5,a5,a1
   25594:	00d76733          	or	a4,a4,a3
   25598:	00f037b3          	snez	a5,a5
   2559c:	00f767b3          	or	a5,a4,a5
   255a0:	00a45433          	srl	s0,s0,a0
/home/hdg/Desktop/desktop/toolchain/riscv-gnu-toolchain/build-gcc-newlib-stage2/riscv64-vega-elf/rv32im/ilp32/libgcc/../../../../.././riscv-gcc/libgcc/soft-fp/muldf3.c:47 (discriminator 75)
   255a4:	0077f713          	andi	a4,a5,7
   255a8:	02070063          	beqz	a4,255c8 <__muldf3+0x540>
/home/hdg/Desktop/desktop/toolchain/riscv-gnu-toolchain/build-gcc-newlib-stage2/riscv64-vega-elf/rv32im/ilp32/libgcc/../../../../.././riscv-gcc/libgcc/soft-fp/muldf3.c:47 (discriminator 76)
   255ac:	00f7f713          	andi	a4,a5,15
   255b0:	00400693          	li	a3,4
   255b4:	00d70a63          	beq	a4,a3,255c8 <__muldf3+0x540>
/home/hdg/Desktop/desktop/toolchain/riscv-gnu-toolchain/build-gcc-newlib-stage2/riscv64-vega-elf/rv32im/ilp32/libgcc/../../../../.././riscv-gcc/libgcc/soft-fp/muldf3.c:47 (discriminator 78)
   255b8:	00478713          	addi	a4,a5,4
   255bc:	00f737b3          	sltu	a5,a4,a5
   255c0:	00f40433          	add	s0,s0,a5
   255c4:	00070793          	mv	a5,a4
/home/hdg/Desktop/desktop/toolchain/riscv-gnu-toolchain/build-gcc-newlib-stage2/riscv64-vega-elf/rv32im/ilp32/libgcc/../../../../.././riscv-gcc/libgcc/soft-fp/muldf3.c:47 (discriminator 77)
   255c8:	00800737          	lui	a4,0x800
   255cc:	00e47733          	and	a4,s0,a4
   255d0:	06071a63          	bnez	a4,25644 <__muldf3+0x5bc>
/home/hdg/Desktop/desktop/toolchain/riscv-gnu-toolchain/build-gcc-newlib-stage2/riscv64-vega-elf/rv32im/ilp32/libgcc/../../../../.././riscv-gcc/libgcc/soft-fp/muldf3.c:47 (discriminator 93)
   255d4:	01d41713          	slli	a4,s0,0x1d
   255d8:	0037d793          	srli	a5,a5,0x3
   255dc:	00f767b3          	or	a5,a4,a5
   255e0:	00345413          	srli	s0,s0,0x3
/home/hdg/Desktop/desktop/toolchain/riscv-gnu-toolchain/build-gcc-newlib-stage2/riscv64-vega-elf/rv32im/ilp32/libgcc/../../../../.././riscv-gcc/libgcc/soft-fp/muldf3.c:47
   255e4:	00000693          	li	a3,0
   255e8:	eedff06f          	j	254d4 <__muldf3+0x44c>
/home/hdg/Desktop/desktop/toolchain/riscv-gnu-toolchain/build-gcc-newlib-stage2/riscv64-vega-elf/rv32im/ilp32/libgcc/../../../../.././riscv-gcc/libgcc/soft-fp/muldf3.c:47 (discriminator 63)
   255ec:	fe100713          	li	a4,-31
   255f0:	40d70733          	sub	a4,a4,a3
   255f4:	02000813          	li	a6,32
   255f8:	00e45733          	srl	a4,s0,a4
   255fc:	00000693          	li	a3,0
   25600:	01050663          	beq	a0,a6,2560c <__muldf3+0x584>
/home/hdg/Desktop/desktop/toolchain/riscv-gnu-toolchain/build-gcc-newlib-stage2/riscv64-vega-elf/rv32im/ilp32/libgcc/../../../../.././riscv-gcc/libgcc/soft-fp/muldf3.c:47 (discriminator 71)
   25604:	43e58593          	addi	a1,a1,1086
   25608:	00b416b3          	sll	a3,s0,a1
/home/hdg/Desktop/desktop/toolchain/riscv-gnu-toolchain/build-gcc-newlib-stage2/riscv64-vega-elf/rv32im/ilp32/libgcc/../../../../.././riscv-gcc/libgcc/soft-fp/muldf3.c:47 (discriminator 74)
   2560c:	00f6e7b3          	or	a5,a3,a5
   25610:	00f037b3          	snez	a5,a5
   25614:	00f767b3          	or	a5,a4,a5
   25618:	00000413          	li	s0,0
   2561c:	f89ff06f          	j	255a4 <__muldf3+0x51c>
/home/hdg/Desktop/desktop/toolchain/riscv-gnu-toolchain/build-gcc-newlib-stage2/riscv64-vega-elf/rv32im/ilp32/libgcc/../../../../.././riscv-gcc/libgcc/soft-fp/muldf3.c:47
   25620:	00080437          	lui	s0,0x80
   25624:	00000793          	li	a5,0
   25628:	7ff00693          	li	a3,2047
   2562c:	00000613          	li	a2,0
   25630:	ea5ff06f          	j	254d4 <__muldf3+0x44c>
   25634:	00000413          	li	s0,0
   25638:	00000793          	li	a5,0
   2563c:	7ff00693          	li	a3,2047
   25640:	e95ff06f          	j	254d4 <__muldf3+0x44c>
   25644:	00000413          	li	s0,0
   25648:	00000793          	li	a5,0
   2564c:	00100693          	li	a3,1
   25650:	e85ff06f          	j	254d4 <__muldf3+0x44c>

00025654 <__subdf3>:
__subdf3():
/home/hdg/Desktop/desktop/toolchain/riscv-gnu-toolchain/build-gcc-newlib-stage2/riscv64-vega-elf/rv32im/ilp32/libgcc/../../../../.././riscv-gcc/libgcc/soft-fp/subdf3.c:44
   25654:	00100837          	lui	a6,0x100
   25658:	fff80813          	addi	a6,a6,-1 # fffff <__global_pointer$+0xd84bb>
/home/hdg/Desktop/desktop/toolchain/riscv-gnu-toolchain/build-gcc-newlib-stage2/riscv64-vega-elf/rv32im/ilp32/libgcc/../../../../.././riscv-gcc/libgcc/soft-fp/subdf3.c:36
   2565c:	fe010113          	addi	sp,sp,-32
/home/hdg/Desktop/desktop/toolchain/riscv-gnu-toolchain/build-gcc-newlib-stage2/riscv64-vega-elf/rv32im/ilp32/libgcc/../../../../.././riscv-gcc/libgcc/soft-fp/subdf3.c:44
   25660:	00b877b3          	and	a5,a6,a1
   25664:	0145d713          	srli	a4,a1,0x14
/home/hdg/Desktop/desktop/toolchain/riscv-gnu-toolchain/build-gcc-newlib-stage2/riscv64-vega-elf/rv32im/ilp32/libgcc/../../../../.././riscv-gcc/libgcc/soft-fp/subdf3.c:45
   25668:	00d87833          	and	a6,a6,a3
   2566c:	0146d313          	srli	t1,a3,0x14
/home/hdg/Desktop/desktop/toolchain/riscv-gnu-toolchain/build-gcc-newlib-stage2/riscv64-vega-elf/rv32im/ilp32/libgcc/../../../../.././riscv-gcc/libgcc/soft-fp/subdf3.c:36
   25670:	00812c23          	sw	s0,24(sp)
/home/hdg/Desktop/desktop/toolchain/riscv-gnu-toolchain/build-gcc-newlib-stage2/riscv64-vega-elf/rv32im/ilp32/libgcc/../../../../.././riscv-gcc/libgcc/soft-fp/subdf3.c:44
   25674:	00379793          	slli	a5,a5,0x3
   25678:	7ff77413          	andi	s0,a4,2047
   2567c:	01d55713          	srli	a4,a0,0x1d
/home/hdg/Desktop/desktop/toolchain/riscv-gnu-toolchain/build-gcc-newlib-stage2/riscv64-vega-elf/rv32im/ilp32/libgcc/../../../../.././riscv-gcc/libgcc/soft-fp/subdf3.c:36
   25680:	00912a23          	sw	s1,20(sp)
/home/hdg/Desktop/desktop/toolchain/riscv-gnu-toolchain/build-gcc-newlib-stage2/riscv64-vega-elf/rv32im/ilp32/libgcc/../../../../.././riscv-gcc/libgcc/soft-fp/subdf3.c:44
   25684:	00f767b3          	or	a5,a4,a5
   25688:	01f5d493          	srli	s1,a1,0x1f
/home/hdg/Desktop/desktop/toolchain/riscv-gnu-toolchain/build-gcc-newlib-stage2/riscv64-vega-elf/rv32im/ilp32/libgcc/../../../../.././riscv-gcc/libgcc/soft-fp/subdf3.c:45
   2568c:	01d65713          	srli	a4,a2,0x1d
/home/hdg/Desktop/desktop/toolchain/riscv-gnu-toolchain/build-gcc-newlib-stage2/riscv64-vega-elf/rv32im/ilp32/libgcc/../../../../.././riscv-gcc/libgcc/soft-fp/subdf3.c:44
   25690:	00351593          	slli	a1,a0,0x3
/home/hdg/Desktop/desktop/toolchain/riscv-gnu-toolchain/build-gcc-newlib-stage2/riscv64-vega-elf/rv32im/ilp32/libgcc/../../../../.././riscv-gcc/libgcc/soft-fp/subdf3.c:45
   25694:	00381813          	slli	a6,a6,0x3
/home/hdg/Desktop/desktop/toolchain/riscv-gnu-toolchain/build-gcc-newlib-stage2/riscv64-vega-elf/rv32im/ilp32/libgcc/../../../../.././riscv-gcc/libgcc/soft-fp/subdf3.c:36
   25698:	00112e23          	sw	ra,28(sp)
   2569c:	01212823          	sw	s2,16(sp)
   256a0:	01312623          	sw	s3,12(sp)
/home/hdg/Desktop/desktop/toolchain/riscv-gnu-toolchain/build-gcc-newlib-stage2/riscv64-vega-elf/rv32im/ilp32/libgcc/../../../../.././riscv-gcc/libgcc/soft-fp/subdf3.c:45
   256a4:	7ff37313          	andi	t1,t1,2047
/home/hdg/Desktop/desktop/toolchain/riscv-gnu-toolchain/build-gcc-newlib-stage2/riscv64-vega-elf/rv32im/ilp32/libgcc/../../../../.././riscv-gcc/libgcc/soft-fp/subdf3.c:46
   256a8:	7ff00513          	li	a0,2047
/home/hdg/Desktop/desktop/toolchain/riscv-gnu-toolchain/build-gcc-newlib-stage2/riscv64-vega-elf/rv32im/ilp32/libgcc/../../../../.././riscv-gcc/libgcc/soft-fp/subdf3.c:45
   256ac:	01f6d693          	srli	a3,a3,0x1f
   256b0:	01076733          	or	a4,a4,a6
   256b4:	00361613          	slli	a2,a2,0x3
/home/hdg/Desktop/desktop/toolchain/riscv-gnu-toolchain/build-gcc-newlib-stage2/riscv64-vega-elf/rv32im/ilp32/libgcc/../../../../.././riscv-gcc/libgcc/soft-fp/subdf3.c:46
   256b8:	00a31663          	bne	t1,a0,256c4 <__subdf3+0x70>
/home/hdg/Desktop/desktop/toolchain/riscv-gnu-toolchain/build-gcc-newlib-stage2/riscv64-vega-elf/rv32im/ilp32/libgcc/../../../../.././riscv-gcc/libgcc/soft-fp/subdf3.c:46 (discriminator 2)
   256bc:	00c76533          	or	a0,a4,a2
   256c0:	00051463          	bnez	a0,256c8 <__subdf3+0x74>
/home/hdg/Desktop/desktop/toolchain/riscv-gnu-toolchain/build-gcc-newlib-stage2/riscv64-vega-elf/rv32im/ilp32/libgcc/../../../../.././riscv-gcc/libgcc/soft-fp/subdf3.c:46 (discriminator 3)
   256c4:	0016c693          	xori	a3,a3,1
/home/hdg/Desktop/desktop/toolchain/riscv-gnu-toolchain/build-gcc-newlib-stage2/riscv64-vega-elf/rv32im/ilp32/libgcc/../../../../.././riscv-gcc/libgcc/soft-fp/subdf3.c:46 (discriminator 11)
   256c8:	40640833          	sub	a6,s0,t1
   256cc:	2c969863          	bne	a3,s1,2599c <__subdf3+0x348>
/home/hdg/Desktop/desktop/toolchain/riscv-gnu-toolchain/build-gcc-newlib-stage2/riscv64-vega-elf/rv32im/ilp32/libgcc/../../../../.././riscv-gcc/libgcc/soft-fp/subdf3.c:46 (discriminator 12)
   256d0:	13005063          	blez	a6,257f0 <__subdf3+0x19c>
/home/hdg/Desktop/desktop/toolchain/riscv-gnu-toolchain/build-gcc-newlib-stage2/riscv64-vega-elf/rv32im/ilp32/libgcc/../../../../.././riscv-gcc/libgcc/soft-fp/subdf3.c:46 (discriminator 14)
   256d4:	04031063          	bnez	t1,25714 <__subdf3+0xc0>
/home/hdg/Desktop/desktop/toolchain/riscv-gnu-toolchain/build-gcc-newlib-stage2/riscv64-vega-elf/rv32im/ilp32/libgcc/../../../../.././riscv-gcc/libgcc/soft-fp/subdf3.c:46 (discriminator 16)
   256d8:	00c766b3          	or	a3,a4,a2
   256dc:	70068c63          	beqz	a3,25df4 <__subdf3+0x7a0>
/home/hdg/Desktop/desktop/toolchain/riscv-gnu-toolchain/build-gcc-newlib-stage2/riscv64-vega-elf/rv32im/ilp32/libgcc/../../../../.././riscv-gcc/libgcc/soft-fp/subdf3.c:46 (discriminator 19)
   256e0:	fff80513          	addi	a0,a6,-1
   256e4:	02051063          	bnez	a0,25704 <__subdf3+0xb0>
/home/hdg/Desktop/desktop/toolchain/riscv-gnu-toolchain/build-gcc-newlib-stage2/riscv64-vega-elf/rv32im/ilp32/libgcc/../../../../.././riscv-gcc/libgcc/soft-fp/subdf3.c:46 (discriminator 28)
   256e8:	00c58633          	add	a2,a1,a2
   256ec:	00b63533          	sltu	a0,a2,a1
   256f0:	00e787b3          	add	a5,a5,a4
   256f4:	00a787b3          	add	a5,a5,a0
   256f8:	00060593          	mv	a1,a2
/home/hdg/Desktop/desktop/toolchain/riscv-gnu-toolchain/build-gcc-newlib-stage2/riscv64-vega-elf/rv32im/ilp32/libgcc/../../../../.././riscv-gcc/libgcc/soft-fp/subdf3.c:45 (discriminator 85)
   256fc:	00100413          	li	s0,1
/home/hdg/Desktop/desktop/toolchain/riscv-gnu-toolchain/build-gcc-newlib-stage2/riscv64-vega-elf/rv32im/ilp32/libgcc/../../../../.././riscv-gcc/libgcc/soft-fp/subdf3.c:46 (discriminator 85)
   25700:	0700006f          	j	25770 <__subdf3+0x11c>
/home/hdg/Desktop/desktop/toolchain/riscv-gnu-toolchain/build-gcc-newlib-stage2/riscv64-vega-elf/rv32im/ilp32/libgcc/../../../../.././riscv-gcc/libgcc/soft-fp/subdf3.c:46 (discriminator 29)
   25704:	7ff00693          	li	a3,2047
   25708:	02d81063          	bne	a6,a3,25728 <__subdf3+0xd4>
/home/hdg/Desktop/desktop/toolchain/riscv-gnu-toolchain/build-gcc-newlib-stage2/riscv64-vega-elf/rv32im/ilp32/libgcc/../../../../.././riscv-gcc/libgcc/soft-fp/subdf3.c:46
   2570c:	7ff00413          	li	s0,2047
   25710:	2140006f          	j	25924 <__subdf3+0x2d0>
/home/hdg/Desktop/desktop/toolchain/riscv-gnu-toolchain/build-gcc-newlib-stage2/riscv64-vega-elf/rv32im/ilp32/libgcc/../../../../.././riscv-gcc/libgcc/soft-fp/subdf3.c:46 (discriminator 17)
   25714:	7ff00693          	li	a3,2047
   25718:	20d40663          	beq	s0,a3,25924 <__subdf3+0x2d0>
/home/hdg/Desktop/desktop/toolchain/riscv-gnu-toolchain/build-gcc-newlib-stage2/riscv64-vega-elf/rv32im/ilp32/libgcc/../../../../.././riscv-gcc/libgcc/soft-fp/subdf3.c:46 (discriminator 43)
   2571c:	008006b7          	lui	a3,0x800
   25720:	00d76733          	or	a4,a4,a3
   25724:	00080513          	mv	a0,a6
/home/hdg/Desktop/desktop/toolchain/riscv-gnu-toolchain/build-gcc-newlib-stage2/riscv64-vega-elf/rv32im/ilp32/libgcc/../../../../.././riscv-gcc/libgcc/soft-fp/subdf3.c:46 (discriminator 52)
   25728:	03800693          	li	a3,56
   2572c:	0aa6cc63          	blt	a3,a0,257e4 <__subdf3+0x190>
/home/hdg/Desktop/desktop/toolchain/riscv-gnu-toolchain/build-gcc-newlib-stage2/riscv64-vega-elf/rv32im/ilp32/libgcc/../../../../.././riscv-gcc/libgcc/soft-fp/subdf3.c:46 (discriminator 53)
   25730:	01f00693          	li	a3,31
   25734:	06a6ce63          	blt	a3,a0,257b0 <__subdf3+0x15c>
/home/hdg/Desktop/desktop/toolchain/riscv-gnu-toolchain/build-gcc-newlib-stage2/riscv64-vega-elf/rv32im/ilp32/libgcc/../../../../.././riscv-gcc/libgcc/soft-fp/subdf3.c:46 (discriminator 55)
   25738:	02000813          	li	a6,32
   2573c:	40a80833          	sub	a6,a6,a0
   25740:	010716b3          	sll	a3,a4,a6
   25744:	00a658b3          	srl	a7,a2,a0
   25748:	01061633          	sll	a2,a2,a6
   2574c:	0116e6b3          	or	a3,a3,a7
   25750:	00c03633          	snez	a2,a2
   25754:	00c6e633          	or	a2,a3,a2
   25758:	00a75733          	srl	a4,a4,a0
/home/hdg/Desktop/desktop/toolchain/riscv-gnu-toolchain/build-gcc-newlib-stage2/riscv64-vega-elf/rv32im/ilp32/libgcc/../../../../.././riscv-gcc/libgcc/soft-fp/subdf3.c:46 (discriminator 69)
   2575c:	00b60633          	add	a2,a2,a1
   25760:	00b63533          	sltu	a0,a2,a1
   25764:	00f70733          	add	a4,a4,a5
   25768:	00a707b3          	add	a5,a4,a0
   2576c:	00060593          	mv	a1,a2
/home/hdg/Desktop/desktop/toolchain/riscv-gnu-toolchain/build-gcc-newlib-stage2/riscv64-vega-elf/rv32im/ilp32/libgcc/../../../../.././riscv-gcc/libgcc/soft-fp/subdf3.c:46 (discriminator 127)
   25770:	00800737          	lui	a4,0x800
   25774:	00e7f733          	and	a4,a5,a4
   25778:	1a070663          	beqz	a4,25924 <__subdf3+0x2d0>
/home/hdg/Desktop/desktop/toolchain/riscv-gnu-toolchain/build-gcc-newlib-stage2/riscv64-vega-elf/rv32im/ilp32/libgcc/../../../../.././riscv-gcc/libgcc/soft-fp/subdf3.c:46 (discriminator 187)
   2577c:	00140413          	addi	s0,s0,1 # 80001 <__global_pointer$+0x584bd>
   25780:	7ff00713          	li	a4,2047
   25784:	5ce40a63          	beq	s0,a4,25d58 <__subdf3+0x704>
/home/hdg/Desktop/desktop/toolchain/riscv-gnu-toolchain/build-gcc-newlib-stage2/riscv64-vega-elf/rv32im/ilp32/libgcc/../../../../.././riscv-gcc/libgcc/soft-fp/subdf3.c:46
   25788:	ff800737          	lui	a4,0xff800
   2578c:	fff70713          	addi	a4,a4,-1 # ff7fffff <__global_pointer$+0xff7d84bb>
   25790:	00e7f7b3          	and	a5,a5,a4
   25794:	0015f513          	andi	a0,a1,1
   25798:	0015d713          	srli	a4,a1,0x1
   2579c:	00a76533          	or	a0,a4,a0
   257a0:	01f79593          	slli	a1,a5,0x1f
   257a4:	00a5e5b3          	or	a1,a1,a0
   257a8:	0017d793          	srli	a5,a5,0x1
   257ac:	1780006f          	j	25924 <__subdf3+0x2d0>
/home/hdg/Desktop/desktop/toolchain/riscv-gnu-toolchain/build-gcc-newlib-stage2/riscv64-vega-elf/rv32im/ilp32/libgcc/../../../../.././riscv-gcc/libgcc/soft-fp/subdf3.c:46 (discriminator 56)
   257b0:	fe050693          	addi	a3,a0,-32
   257b4:	02000893          	li	a7,32
   257b8:	00d756b3          	srl	a3,a4,a3
   257bc:	00000813          	li	a6,0
   257c0:	01150863          	beq	a0,a7,257d0 <__subdf3+0x17c>
/home/hdg/Desktop/desktop/toolchain/riscv-gnu-toolchain/build-gcc-newlib-stage2/riscv64-vega-elf/rv32im/ilp32/libgcc/../../../../.././riscv-gcc/libgcc/soft-fp/subdf3.c:46 (discriminator 63)
   257c4:	04000813          	li	a6,64
   257c8:	40a80533          	sub	a0,a6,a0
   257cc:	00a71833          	sll	a6,a4,a0
/home/hdg/Desktop/desktop/toolchain/riscv-gnu-toolchain/build-gcc-newlib-stage2/riscv64-vega-elf/rv32im/ilp32/libgcc/../../../../.././riscv-gcc/libgcc/soft-fp/subdf3.c:46 (discriminator 66)
   257d0:	00c86633          	or	a2,a6,a2
   257d4:	00c03633          	snez	a2,a2
   257d8:	00c6e633          	or	a2,a3,a2
/home/hdg/Desktop/desktop/toolchain/riscv-gnu-toolchain/build-gcc-newlib-stage2/riscv64-vega-elf/rv32im/ilp32/libgcc/../../../../.././riscv-gcc/libgcc/soft-fp/subdf3.c:46 (discriminator 54)
   257dc:	00000713          	li	a4,0
   257e0:	f7dff06f          	j	2575c <__subdf3+0x108>
   257e4:	00c76633          	or	a2,a4,a2
   257e8:	00c03633          	snez	a2,a2
   257ec:	ff1ff06f          	j	257dc <__subdf3+0x188>
/home/hdg/Desktop/desktop/toolchain/riscv-gnu-toolchain/build-gcc-newlib-stage2/riscv64-vega-elf/rv32im/ilp32/libgcc/../../../../.././riscv-gcc/libgcc/soft-fp/subdf3.c:46 (discriminator 15)
   257f0:	0e080263          	beqz	a6,258d4 <__subdf3+0x280>
/home/hdg/Desktop/desktop/toolchain/riscv-gnu-toolchain/build-gcc-newlib-stage2/riscv64-vega-elf/rv32im/ilp32/libgcc/../../../../.././riscv-gcc/libgcc/soft-fp/subdf3.c:46 (discriminator 71)
   257f4:	40830533          	sub	a0,t1,s0
   257f8:	02041e63          	bnez	s0,25834 <__subdf3+0x1e0>
/home/hdg/Desktop/desktop/toolchain/riscv-gnu-toolchain/build-gcc-newlib-stage2/riscv64-vega-elf/rv32im/ilp32/libgcc/../../../../.././riscv-gcc/libgcc/soft-fp/subdf3.c:46 (discriminator 73)
   257fc:	00b7e6b3          	or	a3,a5,a1
   25800:	52068c63          	beqz	a3,25d38 <__subdf3+0x6e4>
/home/hdg/Desktop/desktop/toolchain/riscv-gnu-toolchain/build-gcc-newlib-stage2/riscv64-vega-elf/rv32im/ilp32/libgcc/../../../../.././riscv-gcc/libgcc/soft-fp/subdf3.c:46 (discriminator 76)
   25804:	fff50693          	addi	a3,a0,-1
   25808:	00069c63          	bnez	a3,25820 <__subdf3+0x1cc>
/home/hdg/Desktop/desktop/toolchain/riscv-gnu-toolchain/build-gcc-newlib-stage2/riscv64-vega-elf/rv32im/ilp32/libgcc/../../../../.././riscv-gcc/libgcc/soft-fp/subdf3.c:46 (discriminator 85)
   2580c:	00c585b3          	add	a1,a1,a2
   25810:	00e787b3          	add	a5,a5,a4
   25814:	00c5b633          	sltu	a2,a1,a2
   25818:	00c787b3          	add	a5,a5,a2
   2581c:	ee1ff06f          	j	256fc <__subdf3+0xa8>
/home/hdg/Desktop/desktop/toolchain/riscv-gnu-toolchain/build-gcc-newlib-stage2/riscv64-vega-elf/rv32im/ilp32/libgcc/../../../../.././riscv-gcc/libgcc/soft-fp/subdf3.c:46 (discriminator 86)
   25820:	7ff00813          	li	a6,2047
   25824:	03051263          	bne	a0,a6,25848 <__subdf3+0x1f4>
/home/hdg/Desktop/desktop/toolchain/riscv-gnu-toolchain/build-gcc-newlib-stage2/riscv64-vega-elf/rv32im/ilp32/libgcc/../../../../.././riscv-gcc/libgcc/soft-fp/subdf3.c:45
   25828:	00070793          	mv	a5,a4
   2582c:	00060593          	mv	a1,a2
   25830:	eddff06f          	j	2570c <__subdf3+0xb8>
/home/hdg/Desktop/desktop/toolchain/riscv-gnu-toolchain/build-gcc-newlib-stage2/riscv64-vega-elf/rv32im/ilp32/libgcc/../../../../.././riscv-gcc/libgcc/soft-fp/subdf3.c:46 (discriminator 74)
   25834:	7ff00693          	li	a3,2047
   25838:	fed308e3          	beq	t1,a3,25828 <__subdf3+0x1d4>
/home/hdg/Desktop/desktop/toolchain/riscv-gnu-toolchain/build-gcc-newlib-stage2/riscv64-vega-elf/rv32im/ilp32/libgcc/../../../../.././riscv-gcc/libgcc/soft-fp/subdf3.c:46 (discriminator 100)
   2583c:	008006b7          	lui	a3,0x800
   25840:	00d7e7b3          	or	a5,a5,a3
   25844:	00050693          	mv	a3,a0
/home/hdg/Desktop/desktop/toolchain/riscv-gnu-toolchain/build-gcc-newlib-stage2/riscv64-vega-elf/rv32im/ilp32/libgcc/../../../../.././riscv-gcc/libgcc/soft-fp/subdf3.c:46 (discriminator 109)
   25848:	03800513          	li	a0,56
   2584c:	06d54e63          	blt	a0,a3,258c8 <__subdf3+0x274>
/home/hdg/Desktop/desktop/toolchain/riscv-gnu-toolchain/build-gcc-newlib-stage2/riscv64-vega-elf/rv32im/ilp32/libgcc/../../../../.././riscv-gcc/libgcc/soft-fp/subdf3.c:46 (discriminator 110)
   25850:	01f00513          	li	a0,31
   25854:	04d54063          	blt	a0,a3,25894 <__subdf3+0x240>
/home/hdg/Desktop/desktop/toolchain/riscv-gnu-toolchain/build-gcc-newlib-stage2/riscv64-vega-elf/rv32im/ilp32/libgcc/../../../../.././riscv-gcc/libgcc/soft-fp/subdf3.c:46 (discriminator 112)
   25858:	02000813          	li	a6,32
   2585c:	40d80833          	sub	a6,a6,a3
   25860:	01079533          	sll	a0,a5,a6
   25864:	00d5d8b3          	srl	a7,a1,a3
   25868:	010595b3          	sll	a1,a1,a6
   2586c:	01156533          	or	a0,a0,a7
   25870:	00b035b3          	snez	a1,a1
   25874:	00b56533          	or	a0,a0,a1
   25878:	00d7d7b3          	srl	a5,a5,a3
/home/hdg/Desktop/desktop/toolchain/riscv-gnu-toolchain/build-gcc-newlib-stage2/riscv64-vega-elf/rv32im/ilp32/libgcc/../../../../.././riscv-gcc/libgcc/soft-fp/subdf3.c:46 (discriminator 126)
   2587c:	00c505b3          	add	a1,a0,a2
   25880:	00e787b3          	add	a5,a5,a4
   25884:	00c5b633          	sltu	a2,a1,a2
   25888:	00c787b3          	add	a5,a5,a2
/home/hdg/Desktop/desktop/toolchain/riscv-gnu-toolchain/build-gcc-newlib-stage2/riscv64-vega-elf/rv32im/ilp32/libgcc/../../../../.././riscv-gcc/libgcc/soft-fp/subdf3.c:45 (discriminator 126)
   2588c:	00030413          	mv	s0,t1
   25890:	ee1ff06f          	j	25770 <__subdf3+0x11c>
/home/hdg/Desktop/desktop/toolchain/riscv-gnu-toolchain/build-gcc-newlib-stage2/riscv64-vega-elf/rv32im/ilp32/libgcc/../../../../.././riscv-gcc/libgcc/soft-fp/subdf3.c:46 (discriminator 113)
   25894:	fe068513          	addi	a0,a3,-32 # 7fffe0 <__global_pointer$+0x7d849c>
   25898:	02000893          	li	a7,32
   2589c:	00a7d833          	srl	a6,a5,a0
   258a0:	00000513          	li	a0,0
   258a4:	01168863          	beq	a3,a7,258b4 <__subdf3+0x260>
/home/hdg/Desktop/desktop/toolchain/riscv-gnu-toolchain/build-gcc-newlib-stage2/riscv64-vega-elf/rv32im/ilp32/libgcc/../../../../.././riscv-gcc/libgcc/soft-fp/subdf3.c:46 (discriminator 120)
   258a8:	04000513          	li	a0,64
   258ac:	40d50533          	sub	a0,a0,a3
   258b0:	00a79533          	sll	a0,a5,a0
/home/hdg/Desktop/desktop/toolchain/riscv-gnu-toolchain/build-gcc-newlib-stage2/riscv64-vega-elf/rv32im/ilp32/libgcc/../../../../.././riscv-gcc/libgcc/soft-fp/subdf3.c:46 (discriminator 123)
   258b4:	00b56533          	or	a0,a0,a1
   258b8:	00a03533          	snez	a0,a0
   258bc:	00a86533          	or	a0,a6,a0
/home/hdg/Desktop/desktop/toolchain/riscv-gnu-toolchain/build-gcc-newlib-stage2/riscv64-vega-elf/rv32im/ilp32/libgcc/../../../../.././riscv-gcc/libgcc/soft-fp/subdf3.c:46 (discriminator 111)
   258c0:	00000793          	li	a5,0
   258c4:	fb9ff06f          	j	2587c <__subdf3+0x228>
   258c8:	00b7e533          	or	a0,a5,a1
   258cc:	00a03533          	snez	a0,a0
   258d0:	ff1ff06f          	j	258c0 <__subdf3+0x26c>
/home/hdg/Desktop/desktop/toolchain/riscv-gnu-toolchain/build-gcc-newlib-stage2/riscv64-vega-elf/rv32im/ilp32/libgcc/../../../../.././riscv-gcc/libgcc/soft-fp/subdf3.c:46 (discriminator 72)
   258d4:	00140693          	addi	a3,s0,1
   258d8:	7fe6f513          	andi	a0,a3,2046
   258dc:	08051863          	bnez	a0,2596c <__subdf3+0x318>
/home/hdg/Desktop/desktop/toolchain/riscv-gnu-toolchain/build-gcc-newlib-stage2/riscv64-vega-elf/rv32im/ilp32/libgcc/../../../../.././riscv-gcc/libgcc/soft-fp/subdf3.c:46 (discriminator 128)
   258e0:	00b7e6b3          	or	a3,a5,a1
   258e4:	06041463          	bnez	s0,2594c <__subdf3+0x2f8>
/home/hdg/Desktop/desktop/toolchain/riscv-gnu-toolchain/build-gcc-newlib-stage2/riscv64-vega-elf/rv32im/ilp32/libgcc/../../../../.././riscv-gcc/libgcc/soft-fp/subdf3.c:46 (discriminator 130)
   258e8:	46068063          	beqz	a3,25d48 <__subdf3+0x6f4>
/home/hdg/Desktop/desktop/toolchain/riscv-gnu-toolchain/build-gcc-newlib-stage2/riscv64-vega-elf/rv32im/ilp32/libgcc/../../../../.././riscv-gcc/libgcc/soft-fp/subdf3.c:46 (discriminator 133)
   258ec:	00c766b3          	or	a3,a4,a2
   258f0:	02068a63          	beqz	a3,25924 <__subdf3+0x2d0>
/home/hdg/Desktop/desktop/toolchain/riscv-gnu-toolchain/build-gcc-newlib-stage2/riscv64-vega-elf/rv32im/ilp32/libgcc/../../../../.././riscv-gcc/libgcc/soft-fp/subdf3.c:46 (discriminator 139)
   258f4:	00c58633          	add	a2,a1,a2
   258f8:	00e787b3          	add	a5,a5,a4
   258fc:	00b63533          	sltu	a0,a2,a1
   25900:	00a787b3          	add	a5,a5,a0
   25904:	00800737          	lui	a4,0x800
   25908:	00e7f733          	and	a4,a5,a4
   2590c:	00060593          	mv	a1,a2
   25910:	00070a63          	beqz	a4,25924 <__subdf3+0x2d0>
/home/hdg/Desktop/desktop/toolchain/riscv-gnu-toolchain/build-gcc-newlib-stage2/riscv64-vega-elf/rv32im/ilp32/libgcc/../../../../.././riscv-gcc/libgcc/soft-fp/subdf3.c:46 (discriminator 141)
   25914:	ff800737          	lui	a4,0xff800
   25918:	fff70713          	addi	a4,a4,-1 # ff7fffff <__global_pointer$+0xff7d84bb>
   2591c:	00e7f7b3          	and	a5,a5,a4
   25920:	00100413          	li	s0,1
/home/hdg/Desktop/desktop/toolchain/riscv-gnu-toolchain/build-gcc-newlib-stage2/riscv64-vega-elf/rv32im/ilp32/libgcc/../../../../.././riscv-gcc/libgcc/soft-fp/subdf3.c:47 (discriminator 426)
   25924:	0075f713          	andi	a4,a1,7
   25928:	42070c63          	beqz	a4,25d60 <__subdf3+0x70c>
/home/hdg/Desktop/desktop/toolchain/riscv-gnu-toolchain/build-gcc-newlib-stage2/riscv64-vega-elf/rv32im/ilp32/libgcc/../../../../.././riscv-gcc/libgcc/soft-fp/subdf3.c:47 (discriminator 37)
   2592c:	00f5f713          	andi	a4,a1,15
   25930:	00400693          	li	a3,4
   25934:	42d70663          	beq	a4,a3,25d60 <__subdf3+0x70c>
/home/hdg/Desktop/desktop/toolchain/riscv-gnu-toolchain/build-gcc-newlib-stage2/riscv64-vega-elf/rv32im/ilp32/libgcc/../../../../.././riscv-gcc/libgcc/soft-fp/subdf3.c:47 (discriminator 44)
   25938:	00458713          	addi	a4,a1,4
   2593c:	00b73533          	sltu	a0,a4,a1
   25940:	00a787b3          	add	a5,a5,a0
   25944:	00070593          	mv	a1,a4
   25948:	4180006f          	j	25d60 <__subdf3+0x70c>
/home/hdg/Desktop/desktop/toolchain/riscv-gnu-toolchain/build-gcc-newlib-stage2/riscv64-vega-elf/rv32im/ilp32/libgcc/../../../../.././riscv-gcc/libgcc/soft-fp/subdf3.c:46 (discriminator 158)
   2594c:	ec068ee3          	beqz	a3,25828 <__subdf3+0x1d4>
/home/hdg/Desktop/desktop/toolchain/riscv-gnu-toolchain/build-gcc-newlib-stage2/riscv64-vega-elf/rv32im/ilp32/libgcc/../../../../.././riscv-gcc/libgcc/soft-fp/subdf3.c:46 (discriminator 160)
   25950:	00c76633          	or	a2,a4,a2
   25954:	da060ce3          	beqz	a2,2570c <__subdf3+0xb8>
/home/hdg/Desktop/desktop/toolchain/riscv-gnu-toolchain/build-gcc-newlib-stage2/riscv64-vega-elf/rv32im/ilp32/libgcc/../../../../.././riscv-gcc/libgcc/soft-fp/subdf3.c:46
   25958:	00000493          	li	s1,0
   2595c:	004007b7          	lui	a5,0x400
   25960:	00000593          	li	a1,0
   25964:	7ff00413          	li	s0,2047
   25968:	3f80006f          	j	25d60 <__subdf3+0x70c>
/home/hdg/Desktop/desktop/toolchain/riscv-gnu-toolchain/build-gcc-newlib-stage2/riscv64-vega-elf/rv32im/ilp32/libgcc/../../../../.././riscv-gcc/libgcc/soft-fp/subdf3.c:46 (discriminator 129)
   2596c:	7ff00513          	li	a0,2047
   25970:	3ea68263          	beq	a3,a0,25d54 <__subdf3+0x700>
/home/hdg/Desktop/desktop/toolchain/riscv-gnu-toolchain/build-gcc-newlib-stage2/riscv64-vega-elf/rv32im/ilp32/libgcc/../../../../.././riscv-gcc/libgcc/soft-fp/subdf3.c:46
   25974:	00c58633          	add	a2,a1,a2
   25978:	00b63533          	sltu	a0,a2,a1
   2597c:	00e787b3          	add	a5,a5,a4
   25980:	00a787b3          	add	a5,a5,a0
   25984:	01f79513          	slli	a0,a5,0x1f
   25988:	00165613          	srli	a2,a2,0x1
   2598c:	00c565b3          	or	a1,a0,a2
   25990:	0017d793          	srli	a5,a5,0x1
   25994:	00068413          	mv	s0,a3
   25998:	f8dff06f          	j	25924 <__subdf3+0x2d0>
/home/hdg/Desktop/desktop/toolchain/riscv-gnu-toolchain/build-gcc-newlib-stage2/riscv64-vega-elf/rv32im/ilp32/libgcc/../../../../.././riscv-gcc/libgcc/soft-fp/subdf3.c:46 (discriminator 13)
   2599c:	0f005c63          	blez	a6,25a94 <__subdf3+0x440>
/home/hdg/Desktop/desktop/toolchain/riscv-gnu-toolchain/build-gcc-newlib-stage2/riscv64-vega-elf/rv32im/ilp32/libgcc/../../../../.././riscv-gcc/libgcc/soft-fp/subdf3.c:46 (discriminator 205)
   259a0:	08031e63          	bnez	t1,25a3c <__subdf3+0x3e8>
/home/hdg/Desktop/desktop/toolchain/riscv-gnu-toolchain/build-gcc-newlib-stage2/riscv64-vega-elf/rv32im/ilp32/libgcc/../../../../.././riscv-gcc/libgcc/soft-fp/subdf3.c:46 (discriminator 207)
   259a4:	00c766b3          	or	a3,a4,a2
   259a8:	44068663          	beqz	a3,25df4 <__subdf3+0x7a0>
/home/hdg/Desktop/desktop/toolchain/riscv-gnu-toolchain/build-gcc-newlib-stage2/riscv64-vega-elf/rv32im/ilp32/libgcc/../../../../.././riscv-gcc/libgcc/soft-fp/subdf3.c:46 (discriminator 210)
   259ac:	fff80513          	addi	a0,a6,-1
   259b0:	02051063          	bnez	a0,259d0 <__subdf3+0x37c>
/home/hdg/Desktop/desktop/toolchain/riscv-gnu-toolchain/build-gcc-newlib-stage2/riscv64-vega-elf/rv32im/ilp32/libgcc/../../../../.././riscv-gcc/libgcc/soft-fp/subdf3.c:46 (discriminator 219)
   259b4:	40c58633          	sub	a2,a1,a2
   259b8:	00c5b533          	sltu	a0,a1,a2
   259bc:	40e787b3          	sub	a5,a5,a4
   259c0:	40a787b3          	sub	a5,a5,a0
   259c4:	00060593          	mv	a1,a2
/home/hdg/Desktop/desktop/toolchain/riscv-gnu-toolchain/build-gcc-newlib-stage2/riscv64-vega-elf/rv32im/ilp32/libgcc/../../../../.././riscv-gcc/libgcc/soft-fp/subdf3.c:45 (discriminator 276)
   259c8:	00100413          	li	s0,1
/home/hdg/Desktop/desktop/toolchain/riscv-gnu-toolchain/build-gcc-newlib-stage2/riscv64-vega-elf/rv32im/ilp32/libgcc/../../../../.././riscv-gcc/libgcc/soft-fp/subdf3.c:46 (discriminator 276)
   259cc:	0540006f          	j	25a20 <__subdf3+0x3cc>
/home/hdg/Desktop/desktop/toolchain/riscv-gnu-toolchain/build-gcc-newlib-stage2/riscv64-vega-elf/rv32im/ilp32/libgcc/../../../../.././riscv-gcc/libgcc/soft-fp/subdf3.c:46 (discriminator 220)
   259d0:	7ff00693          	li	a3,2047
   259d4:	d2d80ce3          	beq	a6,a3,2570c <__subdf3+0xb8>
/home/hdg/Desktop/desktop/toolchain/riscv-gnu-toolchain/build-gcc-newlib-stage2/riscv64-vega-elf/rv32im/ilp32/libgcc/../../../../.././riscv-gcc/libgcc/soft-fp/subdf3.c:46 (discriminator 243)
   259d8:	03800693          	li	a3,56
   259dc:	0aa6c663          	blt	a3,a0,25a88 <__subdf3+0x434>
/home/hdg/Desktop/desktop/toolchain/riscv-gnu-toolchain/build-gcc-newlib-stage2/riscv64-vega-elf/rv32im/ilp32/libgcc/../../../../.././riscv-gcc/libgcc/soft-fp/subdf3.c:46 (discriminator 244)
   259e0:	01f00693          	li	a3,31
   259e4:	06a6c863          	blt	a3,a0,25a54 <__subdf3+0x400>
/home/hdg/Desktop/desktop/toolchain/riscv-gnu-toolchain/build-gcc-newlib-stage2/riscv64-vega-elf/rv32im/ilp32/libgcc/../../../../.././riscv-gcc/libgcc/soft-fp/subdf3.c:46 (discriminator 246)
   259e8:	02000813          	li	a6,32
   259ec:	40a80833          	sub	a6,a6,a0
   259f0:	010716b3          	sll	a3,a4,a6
   259f4:	00a658b3          	srl	a7,a2,a0
   259f8:	01061633          	sll	a2,a2,a6
   259fc:	0116e6b3          	or	a3,a3,a7
   25a00:	00c03633          	snez	a2,a2
   25a04:	00c6e633          	or	a2,a3,a2
   25a08:	00a75733          	srl	a4,a4,a0
/home/hdg/Desktop/desktop/toolchain/riscv-gnu-toolchain/build-gcc-newlib-stage2/riscv64-vega-elf/rv32im/ilp32/libgcc/../../../../.././riscv-gcc/libgcc/soft-fp/subdf3.c:46 (discriminator 260)
   25a0c:	40c58633          	sub	a2,a1,a2
   25a10:	00c5b533          	sltu	a0,a1,a2
   25a14:	40e78733          	sub	a4,a5,a4
   25a18:	40a707b3          	sub	a5,a4,a0
   25a1c:	00060593          	mv	a1,a2
/home/hdg/Desktop/desktop/toolchain/riscv-gnu-toolchain/build-gcc-newlib-stage2/riscv64-vega-elf/rv32im/ilp32/libgcc/../../../../.././riscv-gcc/libgcc/soft-fp/subdf3.c:46 (discriminator 318)
   25a20:	00800937          	lui	s2,0x800
   25a24:	0127f733          	and	a4,a5,s2
   25a28:	ee070ee3          	beqz	a4,25924 <__subdf3+0x2d0>
/home/hdg/Desktop/desktop/toolchain/riscv-gnu-toolchain/build-gcc-newlib-stage2/riscv64-vega-elf/rv32im/ilp32/libgcc/../../../../.././riscv-gcc/libgcc/soft-fp/subdf3.c:46 (discriminator 378)
   25a2c:	fff90913          	addi	s2,s2,-1 # 7fffff <__global_pointer$+0x7d84bb>
   25a30:	0127f933          	and	s2,a5,s2
   25a34:	00058993          	mv	s3,a1
   25a38:	2140006f          	j	25c4c <__subdf3+0x5f8>
/home/hdg/Desktop/desktop/toolchain/riscv-gnu-toolchain/build-gcc-newlib-stage2/riscv64-vega-elf/rv32im/ilp32/libgcc/../../../../.././riscv-gcc/libgcc/soft-fp/subdf3.c:46 (discriminator 208)
   25a3c:	7ff00693          	li	a3,2047
   25a40:	eed402e3          	beq	s0,a3,25924 <__subdf3+0x2d0>
/home/hdg/Desktop/desktop/toolchain/riscv-gnu-toolchain/build-gcc-newlib-stage2/riscv64-vega-elf/rv32im/ilp32/libgcc/../../../../.././riscv-gcc/libgcc/soft-fp/subdf3.c:46 (discriminator 234)
   25a44:	008006b7          	lui	a3,0x800
   25a48:	00d76733          	or	a4,a4,a3
   25a4c:	00080513          	mv	a0,a6
   25a50:	f89ff06f          	j	259d8 <__subdf3+0x384>
/home/hdg/Desktop/desktop/toolchain/riscv-gnu-toolchain/build-gcc-newlib-stage2/riscv64-vega-elf/rv32im/ilp32/libgcc/../../../../.././riscv-gcc/libgcc/soft-fp/subdf3.c:46 (discriminator 247)
   25a54:	fe050693          	addi	a3,a0,-32
   25a58:	02000893          	li	a7,32
   25a5c:	00d756b3          	srl	a3,a4,a3
   25a60:	00000813          	li	a6,0
   25a64:	01150863          	beq	a0,a7,25a74 <__subdf3+0x420>
/home/hdg/Desktop/desktop/toolchain/riscv-gnu-toolchain/build-gcc-newlib-stage2/riscv64-vega-elf/rv32im/ilp32/libgcc/../../../../.././riscv-gcc/libgcc/soft-fp/subdf3.c:46 (discriminator 254)
   25a68:	04000813          	li	a6,64
   25a6c:	40a80533          	sub	a0,a6,a0
   25a70:	00a71833          	sll	a6,a4,a0
/home/hdg/Desktop/desktop/toolchain/riscv-gnu-toolchain/build-gcc-newlib-stage2/riscv64-vega-elf/rv32im/ilp32/libgcc/../../../../.././riscv-gcc/libgcc/soft-fp/subdf3.c:46 (discriminator 257)
   25a74:	00c86633          	or	a2,a6,a2
   25a78:	00c03633          	snez	a2,a2
   25a7c:	00c6e633          	or	a2,a3,a2
/home/hdg/Desktop/desktop/toolchain/riscv-gnu-toolchain/build-gcc-newlib-stage2/riscv64-vega-elf/rv32im/ilp32/libgcc/../../../../.././riscv-gcc/libgcc/soft-fp/subdf3.c:46 (discriminator 245)
   25a80:	00000713          	li	a4,0
   25a84:	f89ff06f          	j	25a0c <__subdf3+0x3b8>
   25a88:	00c76633          	or	a2,a4,a2
   25a8c:	00c03633          	snez	a2,a2
   25a90:	ff1ff06f          	j	25a80 <__subdf3+0x42c>
/home/hdg/Desktop/desktop/toolchain/riscv-gnu-toolchain/build-gcc-newlib-stage2/riscv64-vega-elf/rv32im/ilp32/libgcc/../../../../.././riscv-gcc/libgcc/soft-fp/subdf3.c:46 (discriminator 206)
   25a94:	0e080863          	beqz	a6,25b84 <__subdf3+0x530>
/home/hdg/Desktop/desktop/toolchain/riscv-gnu-toolchain/build-gcc-newlib-stage2/riscv64-vega-elf/rv32im/ilp32/libgcc/../../../../.././riscv-gcc/libgcc/soft-fp/subdf3.c:46 (discriminator 262)
   25a98:	40830533          	sub	a0,t1,s0
   25a9c:	04041263          	bnez	s0,25ae0 <__subdf3+0x48c>
/home/hdg/Desktop/desktop/toolchain/riscv-gnu-toolchain/build-gcc-newlib-stage2/riscv64-vega-elf/rv32im/ilp32/libgcc/../../../../.././riscv-gcc/libgcc/soft-fp/subdf3.c:46 (discriminator 264)
   25aa0:	00b7e833          	or	a6,a5,a1
   25aa4:	34080c63          	beqz	a6,25dfc <__subdf3+0x7a8>
/home/hdg/Desktop/desktop/toolchain/riscv-gnu-toolchain/build-gcc-newlib-stage2/riscv64-vega-elf/rv32im/ilp32/libgcc/../../../../.././riscv-gcc/libgcc/soft-fp/subdf3.c:46 (discriminator 267)
   25aa8:	fff50813          	addi	a6,a0,-1
   25aac:	00081e63          	bnez	a6,25ac8 <__subdf3+0x474>
/home/hdg/Desktop/desktop/toolchain/riscv-gnu-toolchain/build-gcc-newlib-stage2/riscv64-vega-elf/rv32im/ilp32/libgcc/../../../../.././riscv-gcc/libgcc/soft-fp/subdf3.c:46 (discriminator 276)
   25ab0:	40b605b3          	sub	a1,a2,a1
   25ab4:	40f707b3          	sub	a5,a4,a5
   25ab8:	00b63633          	sltu	a2,a2,a1
   25abc:	40c787b3          	sub	a5,a5,a2
   25ac0:	00068493          	mv	s1,a3
   25ac4:	f05ff06f          	j	259c8 <__subdf3+0x374>
/home/hdg/Desktop/desktop/toolchain/riscv-gnu-toolchain/build-gcc-newlib-stage2/riscv64-vega-elf/rv32im/ilp32/libgcc/../../../../.././riscv-gcc/libgcc/soft-fp/subdf3.c:46 (discriminator 277)
   25ac8:	7ff00893          	li	a7,2047
   25acc:	03151463          	bne	a0,a7,25af4 <__subdf3+0x4a0>
/home/hdg/Desktop/desktop/toolchain/riscv-gnu-toolchain/build-gcc-newlib-stage2/riscv64-vega-elf/rv32im/ilp32/libgcc/../../../../.././riscv-gcc/libgcc/soft-fp/subdf3.c:45
   25ad0:	00070793          	mv	a5,a4
   25ad4:	00060593          	mv	a1,a2
/home/hdg/Desktop/desktop/toolchain/riscv-gnu-toolchain/build-gcc-newlib-stage2/riscv64-vega-elf/rv32im/ilp32/libgcc/../../../../.././riscv-gcc/libgcc/soft-fp/subdf3.c:46
   25ad8:	7ff00413          	li	s0,2047
   25adc:	0d00006f          	j	25bac <__subdf3+0x558>
/home/hdg/Desktop/desktop/toolchain/riscv-gnu-toolchain/build-gcc-newlib-stage2/riscv64-vega-elf/rv32im/ilp32/libgcc/../../../../.././riscv-gcc/libgcc/soft-fp/subdf3.c:46 (discriminator 265)
   25ae0:	7ff00813          	li	a6,2047
   25ae4:	ff0306e3          	beq	t1,a6,25ad0 <__subdf3+0x47c>
/home/hdg/Desktop/desktop/toolchain/riscv-gnu-toolchain/build-gcc-newlib-stage2/riscv64-vega-elf/rv32im/ilp32/libgcc/../../../../.././riscv-gcc/libgcc/soft-fp/subdf3.c:46 (discriminator 291)
   25ae8:	00800837          	lui	a6,0x800
   25aec:	0107e7b3          	or	a5,a5,a6
   25af0:	00050813          	mv	a6,a0
/home/hdg/Desktop/desktop/toolchain/riscv-gnu-toolchain/build-gcc-newlib-stage2/riscv64-vega-elf/rv32im/ilp32/libgcc/../../../../.././riscv-gcc/libgcc/soft-fp/subdf3.c:46 (discriminator 300)
   25af4:	03800513          	li	a0,56
   25af8:	09054063          	blt	a0,a6,25b78 <__subdf3+0x524>
/home/hdg/Desktop/desktop/toolchain/riscv-gnu-toolchain/build-gcc-newlib-stage2/riscv64-vega-elf/rv32im/ilp32/libgcc/../../../../.././riscv-gcc/libgcc/soft-fp/subdf3.c:46 (discriminator 301)
   25afc:	01f00513          	li	a0,31
   25b00:	05054263          	blt	a0,a6,25b44 <__subdf3+0x4f0>
/home/hdg/Desktop/desktop/toolchain/riscv-gnu-toolchain/build-gcc-newlib-stage2/riscv64-vega-elf/rv32im/ilp32/libgcc/../../../../.././riscv-gcc/libgcc/soft-fp/subdf3.c:46 (discriminator 303)
   25b04:	02000893          	li	a7,32
   25b08:	410888b3          	sub	a7,a7,a6
   25b0c:	01179533          	sll	a0,a5,a7
   25b10:	0105de33          	srl	t3,a1,a6
   25b14:	011595b3          	sll	a1,a1,a7
   25b18:	01c56533          	or	a0,a0,t3
   25b1c:	00b035b3          	snez	a1,a1
   25b20:	00b56533          	or	a0,a0,a1
   25b24:	0107d7b3          	srl	a5,a5,a6
/home/hdg/Desktop/desktop/toolchain/riscv-gnu-toolchain/build-gcc-newlib-stage2/riscv64-vega-elf/rv32im/ilp32/libgcc/../../../../.././riscv-gcc/libgcc/soft-fp/subdf3.c:46 (discriminator 317)
   25b28:	40a605b3          	sub	a1,a2,a0
   25b2c:	40f707b3          	sub	a5,a4,a5
   25b30:	00b63633          	sltu	a2,a2,a1
   25b34:	40c787b3          	sub	a5,a5,a2
/home/hdg/Desktop/desktop/toolchain/riscv-gnu-toolchain/build-gcc-newlib-stage2/riscv64-vega-elf/rv32im/ilp32/libgcc/../../../../.././riscv-gcc/libgcc/soft-fp/subdf3.c:45 (discriminator 317)
   25b38:	00030413          	mv	s0,t1
   25b3c:	00068493          	mv	s1,a3
   25b40:	ee1ff06f          	j	25a20 <__subdf3+0x3cc>
/home/hdg/Desktop/desktop/toolchain/riscv-gnu-toolchain/build-gcc-newlib-stage2/riscv64-vega-elf/rv32im/ilp32/libgcc/../../../../.././riscv-gcc/libgcc/soft-fp/subdf3.c:46 (discriminator 304)
   25b44:	fe080513          	addi	a0,a6,-32 # 7fffe0 <__global_pointer$+0x7d849c>
   25b48:	02000e13          	li	t3,32
   25b4c:	00a7d8b3          	srl	a7,a5,a0
   25b50:	00000513          	li	a0,0
   25b54:	01c80863          	beq	a6,t3,25b64 <__subdf3+0x510>
/home/hdg/Desktop/desktop/toolchain/riscv-gnu-toolchain/build-gcc-newlib-stage2/riscv64-vega-elf/rv32im/ilp32/libgcc/../../../../.././riscv-gcc/libgcc/soft-fp/subdf3.c:46 (discriminator 311)
   25b58:	04000513          	li	a0,64
   25b5c:	41050533          	sub	a0,a0,a6
   25b60:	00a79533          	sll	a0,a5,a0
/home/hdg/Desktop/desktop/toolchain/riscv-gnu-toolchain/build-gcc-newlib-stage2/riscv64-vega-elf/rv32im/ilp32/libgcc/../../../../.././riscv-gcc/libgcc/soft-fp/subdf3.c:46 (discriminator 314)
   25b64:	00b56533          	or	a0,a0,a1
   25b68:	00a03533          	snez	a0,a0
   25b6c:	00a8e533          	or	a0,a7,a0
/home/hdg/Desktop/desktop/toolchain/riscv-gnu-toolchain/build-gcc-newlib-stage2/riscv64-vega-elf/rv32im/ilp32/libgcc/../../../../.././riscv-gcc/libgcc/soft-fp/subdf3.c:46 (discriminator 302)
   25b70:	00000793          	li	a5,0
   25b74:	fb5ff06f          	j	25b28 <__subdf3+0x4d4>
   25b78:	00b7e533          	or	a0,a5,a1
   25b7c:	00a03533          	snez	a0,a0
   25b80:	ff1ff06f          	j	25b70 <__subdf3+0x51c>
/home/hdg/Desktop/desktop/toolchain/riscv-gnu-toolchain/build-gcc-newlib-stage2/riscv64-vega-elf/rv32im/ilp32/libgcc/../../../../.././riscv-gcc/libgcc/soft-fp/subdf3.c:46 (discriminator 263)
   25b84:	00140513          	addi	a0,s0,1
   25b88:	7fe57513          	andi	a0,a0,2046
   25b8c:	08051863          	bnez	a0,25c1c <__subdf3+0x5c8>
/home/hdg/Desktop/desktop/toolchain/riscv-gnu-toolchain/build-gcc-newlib-stage2/riscv64-vega-elf/rv32im/ilp32/libgcc/../../../../.././riscv-gcc/libgcc/soft-fp/subdf3.c:46 (discriminator 319)
   25b90:	00b7e833          	or	a6,a5,a1
   25b94:	00c76533          	or	a0,a4,a2
   25b98:	06041263          	bnez	s0,25bfc <__subdf3+0x5a8>
/home/hdg/Desktop/desktop/toolchain/riscv-gnu-toolchain/build-gcc-newlib-stage2/riscv64-vega-elf/rv32im/ilp32/libgcc/../../../../.././riscv-gcc/libgcc/soft-fp/subdf3.c:46 (discriminator 321)
   25b9c:	00081c63          	bnez	a6,25bb4 <__subdf3+0x560>
/home/hdg/Desktop/desktop/toolchain/riscv-gnu-toolchain/build-gcc-newlib-stage2/riscv64-vega-elf/rv32im/ilp32/libgcc/../../../../.././riscv-gcc/libgcc/soft-fp/subdf3.c:46 (discriminator 323)
   25ba0:	26050663          	beqz	a0,25e0c <__subdf3+0x7b8>
/home/hdg/Desktop/desktop/toolchain/riscv-gnu-toolchain/build-gcc-newlib-stage2/riscv64-vega-elf/rv32im/ilp32/libgcc/../../../../.././riscv-gcc/libgcc/soft-fp/subdf3.c:45
   25ba4:	00070793          	mv	a5,a4
   25ba8:	00060593          	mv	a1,a2
   25bac:	00068493          	mv	s1,a3
   25bb0:	d75ff06f          	j	25924 <__subdf3+0x2d0>
/home/hdg/Desktop/desktop/toolchain/riscv-gnu-toolchain/build-gcc-newlib-stage2/riscv64-vega-elf/rv32im/ilp32/libgcc/../../../../.././riscv-gcc/libgcc/soft-fp/subdf3.c:46 (discriminator 324)
   25bb4:	d60508e3          	beqz	a0,25924 <__subdf3+0x2d0>
/home/hdg/Desktop/desktop/toolchain/riscv-gnu-toolchain/build-gcc-newlib-stage2/riscv64-vega-elf/rv32im/ilp32/libgcc/../../../../.././riscv-gcc/libgcc/soft-fp/subdf3.c:46 (discriminator 331)
   25bb8:	40c58833          	sub	a6,a1,a2
   25bbc:	0105b8b3          	sltu	a7,a1,a6
   25bc0:	40e78533          	sub	a0,a5,a4
   25bc4:	41150533          	sub	a0,a0,a7
   25bc8:	008008b7          	lui	a7,0x800
   25bcc:	011578b3          	and	a7,a0,a7
   25bd0:	00088c63          	beqz	a7,25be8 <__subdf3+0x594>
/home/hdg/Desktop/desktop/toolchain/riscv-gnu-toolchain/build-gcc-newlib-stage2/riscv64-vega-elf/rv32im/ilp32/libgcc/../../../../.././riscv-gcc/libgcc/soft-fp/subdf3.c:46 (discriminator 333)
   25bd4:	40b605b3          	sub	a1,a2,a1
   25bd8:	40f707b3          	sub	a5,a4,a5
   25bdc:	00b63633          	sltu	a2,a2,a1
   25be0:	40c787b3          	sub	a5,a5,a2
   25be4:	fc9ff06f          	j	25bac <__subdf3+0x558>
/home/hdg/Desktop/desktop/toolchain/riscv-gnu-toolchain/build-gcc-newlib-stage2/riscv64-vega-elf/rv32im/ilp32/libgcc/../../../../.././riscv-gcc/libgcc/soft-fp/subdf3.c:46 (discriminator 334)
   25be8:	00a865b3          	or	a1,a6,a0
   25bec:	22058863          	beqz	a1,25e1c <__subdf3+0x7c8>
/home/hdg/Desktop/desktop/toolchain/riscv-gnu-toolchain/build-gcc-newlib-stage2/riscv64-vega-elf/rv32im/ilp32/libgcc/../../../../.././riscv-gcc/libgcc/soft-fp/subdf3.c:46
   25bf0:	00050793          	mv	a5,a0
   25bf4:	00080593          	mv	a1,a6
   25bf8:	d2dff06f          	j	25924 <__subdf3+0x2d0>
/home/hdg/Desktop/desktop/toolchain/riscv-gnu-toolchain/build-gcc-newlib-stage2/riscv64-vega-elf/rv32im/ilp32/libgcc/../../../../.././riscv-gcc/libgcc/soft-fp/subdf3.c:46 (discriminator 353)
   25bfc:	00081c63          	bnez	a6,25c14 <__subdf3+0x5c0>
/home/hdg/Desktop/desktop/toolchain/riscv-gnu-toolchain/build-gcc-newlib-stage2/riscv64-vega-elf/rv32im/ilp32/libgcc/../../../../.././riscv-gcc/libgcc/soft-fp/subdf3.c:46 (discriminator 354)
   25c00:	22050263          	beqz	a0,25e24 <__subdf3+0x7d0>
/home/hdg/Desktop/desktop/toolchain/riscv-gnu-toolchain/build-gcc-newlib-stage2/riscv64-vega-elf/rv32im/ilp32/libgcc/../../../../.././riscv-gcc/libgcc/soft-fp/subdf3.c:45
   25c04:	00070793          	mv	a5,a4
   25c08:	00060593          	mv	a1,a2
/home/hdg/Desktop/desktop/toolchain/riscv-gnu-toolchain/build-gcc-newlib-stage2/riscv64-vega-elf/rv32im/ilp32/libgcc/../../../../.././riscv-gcc/libgcc/soft-fp/subdf3.c:46
   25c0c:	00068493          	mv	s1,a3
   25c10:	afdff06f          	j	2570c <__subdf3+0xb8>
/home/hdg/Desktop/desktop/toolchain/riscv-gnu-toolchain/build-gcc-newlib-stage2/riscv64-vega-elf/rv32im/ilp32/libgcc/../../../../.././riscv-gcc/libgcc/soft-fp/subdf3.c:46 (discriminator 355)
   25c14:	ae050ce3          	beqz	a0,2570c <__subdf3+0xb8>
   25c18:	d41ff06f          	j	25958 <__subdf3+0x304>
/home/hdg/Desktop/desktop/toolchain/riscv-gnu-toolchain/build-gcc-newlib-stage2/riscv64-vega-elf/rv32im/ilp32/libgcc/../../../../.././riscv-gcc/libgcc/soft-fp/subdf3.c:46 (discriminator 320)
   25c1c:	40c589b3          	sub	s3,a1,a2
   25c20:	0135b533          	sltu	a0,a1,s3
   25c24:	40e78933          	sub	s2,a5,a4
   25c28:	40a90933          	sub	s2,s2,a0
   25c2c:	00800537          	lui	a0,0x800
   25c30:	00a97533          	and	a0,s2,a0
   25c34:	08050463          	beqz	a0,25cbc <__subdf3+0x668>
/home/hdg/Desktop/desktop/toolchain/riscv-gnu-toolchain/build-gcc-newlib-stage2/riscv64-vega-elf/rv32im/ilp32/libgcc/../../../../.././riscv-gcc/libgcc/soft-fp/subdf3.c:46 (discriminator 371)
   25c38:	40b609b3          	sub	s3,a2,a1
   25c3c:	40f707b3          	sub	a5,a4,a5
   25c40:	01363633          	sltu	a2,a2,s3
   25c44:	40c78933          	sub	s2,a5,a2
   25c48:	00068493          	mv	s1,a3
/home/hdg/Desktop/desktop/toolchain/riscv-gnu-toolchain/build-gcc-newlib-stage2/riscv64-vega-elf/rv32im/ilp32/libgcc/../../../../.././riscv-gcc/libgcc/soft-fp/subdf3.c:46 (discriminator 380)
   25c4c:	08090263          	beqz	s2,25cd0 <__subdf3+0x67c>
/home/hdg/Desktop/desktop/toolchain/riscv-gnu-toolchain/build-gcc-newlib-stage2/riscv64-vega-elf/rv32im/ilp32/libgcc/../../../../.././riscv-gcc/libgcc/soft-fp/subdf3.c:46 (discriminator 383)
   25c50:	00090513          	mv	a0,s2
   25c54:	70d000ef          	jal	ra,26b60 <__clzsi2>
/home/hdg/Desktop/desktop/toolchain/riscv-gnu-toolchain/build-gcc-newlib-stage2/riscv64-vega-elf/rv32im/ilp32/libgcc/../../../../.././riscv-gcc/libgcc/soft-fp/subdf3.c:46 (discriminator 397)
   25c58:	ff850713          	addi	a4,a0,-8 # 7ffff8 <__global_pointer$+0x7d84b4>
   25c5c:	01f00793          	li	a5,31
   25c60:	08e7c063          	blt	a5,a4,25ce0 <__subdf3+0x68c>
/home/hdg/Desktop/desktop/toolchain/riscv-gnu-toolchain/build-gcc-newlib-stage2/riscv64-vega-elf/rv32im/ilp32/libgcc/../../../../.././riscv-gcc/libgcc/soft-fp/subdf3.c:46 (discriminator 403)
   25c64:	02000793          	li	a5,32
   25c68:	40e787b3          	sub	a5,a5,a4
   25c6c:	00e91933          	sll	s2,s2,a4
   25c70:	00f9d7b3          	srl	a5,s3,a5
   25c74:	0127e7b3          	or	a5,a5,s2
   25c78:	00e995b3          	sll	a1,s3,a4
/home/hdg/Desktop/desktop/toolchain/riscv-gnu-toolchain/build-gcc-newlib-stage2/riscv64-vega-elf/rv32im/ilp32/libgcc/../../../../.././riscv-gcc/libgcc/soft-fp/subdf3.c:46 (discriminator 407)
   25c7c:	0a874463          	blt	a4,s0,25d24 <__subdf3+0x6d0>
/home/hdg/Desktop/desktop/toolchain/riscv-gnu-toolchain/build-gcc-newlib-stage2/riscv64-vega-elf/rv32im/ilp32/libgcc/../../../../.././riscv-gcc/libgcc/soft-fp/subdf3.c:46 (discriminator 408)
   25c80:	40870733          	sub	a4,a4,s0
   25c84:	00170693          	addi	a3,a4,1
   25c88:	01f00613          	li	a2,31
   25c8c:	06d64263          	blt	a2,a3,25cf0 <__subdf3+0x69c>
/home/hdg/Desktop/desktop/toolchain/riscv-gnu-toolchain/build-gcc-newlib-stage2/riscv64-vega-elf/rv32im/ilp32/libgcc/../../../../.././riscv-gcc/libgcc/soft-fp/subdf3.c:46 (discriminator 410)
   25c90:	02000713          	li	a4,32
   25c94:	40d70733          	sub	a4,a4,a3
   25c98:	00e79633          	sll	a2,a5,a4
   25c9c:	00d5d533          	srl	a0,a1,a3
   25ca0:	00e595b3          	sll	a1,a1,a4
   25ca4:	00a66633          	or	a2,a2,a0
   25ca8:	00b035b3          	snez	a1,a1
   25cac:	00b665b3          	or	a1,a2,a1
   25cb0:	00d7d7b3          	srl	a5,a5,a3
/home/hdg/Desktop/desktop/toolchain/riscv-gnu-toolchain/build-gcc-newlib-stage2/riscv64-vega-elf/rv32im/ilp32/libgcc/../../../../.././riscv-gcc/libgcc/soft-fp/subdf3.c:46 (discriminator 422)
   25cb4:	00000413          	li	s0,0
   25cb8:	c6dff06f          	j	25924 <__subdf3+0x2d0>
/home/hdg/Desktop/desktop/toolchain/riscv-gnu-toolchain/build-gcc-newlib-stage2/riscv64-vega-elf/rv32im/ilp32/libgcc/../../../../.././riscv-gcc/libgcc/soft-fp/subdf3.c:46 (discriminator 372)
   25cbc:	0129e5b3          	or	a1,s3,s2
   25cc0:	f80596e3          	bnez	a1,25c4c <__subdf3+0x5f8>
   25cc4:	00000793          	li	a5,0
/home/hdg/Desktop/desktop/toolchain/riscv-gnu-toolchain/build-gcc-newlib-stage2/riscv64-vega-elf/rv32im/ilp32/libgcc/../../../../.././riscv-gcc/libgcc/soft-fp/subdf3.c:46
   25cc8:	00000413          	li	s0,0
   25ccc:	1480006f          	j	25e14 <__subdf3+0x7c0>
/home/hdg/Desktop/desktop/toolchain/riscv-gnu-toolchain/build-gcc-newlib-stage2/riscv64-vega-elf/rv32im/ilp32/libgcc/../../../../.././riscv-gcc/libgcc/soft-fp/subdf3.c:46 (discriminator 390)
   25cd0:	00098513          	mv	a0,s3
   25cd4:	68d000ef          	jal	ra,26b60 <__clzsi2>
   25cd8:	02050513          	addi	a0,a0,32
   25cdc:	f7dff06f          	j	25c58 <__subdf3+0x604>
/home/hdg/Desktop/desktop/toolchain/riscv-gnu-toolchain/build-gcc-newlib-stage2/riscv64-vega-elf/rv32im/ilp32/libgcc/../../../../.././riscv-gcc/libgcc/soft-fp/subdf3.c:46 (discriminator 399)
   25ce0:	fd850793          	addi	a5,a0,-40
   25ce4:	00f997b3          	sll	a5,s3,a5
   25ce8:	00000593          	li	a1,0
   25cec:	f91ff06f          	j	25c7c <__subdf3+0x628>
/home/hdg/Desktop/desktop/toolchain/riscv-gnu-toolchain/build-gcc-newlib-stage2/riscv64-vega-elf/rv32im/ilp32/libgcc/../../../../.././riscv-gcc/libgcc/soft-fp/subdf3.c:46 (discriminator 411)
   25cf0:	fe170713          	addi	a4,a4,-31
   25cf4:	02000613          	li	a2,32
   25cf8:	00e7d733          	srl	a4,a5,a4
   25cfc:	00000513          	li	a0,0
   25d00:	00c68863          	beq	a3,a2,25d10 <__subdf3+0x6bc>
/home/hdg/Desktop/desktop/toolchain/riscv-gnu-toolchain/build-gcc-newlib-stage2/riscv64-vega-elf/rv32im/ilp32/libgcc/../../../../.././riscv-gcc/libgcc/soft-fp/subdf3.c:46 (discriminator 419)
   25d04:	04000513          	li	a0,64
   25d08:	40d50533          	sub	a0,a0,a3
   25d0c:	00a79533          	sll	a0,a5,a0
/home/hdg/Desktop/desktop/toolchain/riscv-gnu-toolchain/build-gcc-newlib-stage2/riscv64-vega-elf/rv32im/ilp32/libgcc/../../../../.././riscv-gcc/libgcc/soft-fp/subdf3.c:46 (discriminator 422)
   25d10:	00a5e533          	or	a0,a1,a0
   25d14:	00a03533          	snez	a0,a0
   25d18:	00a765b3          	or	a1,a4,a0
   25d1c:	00000793          	li	a5,0
   25d20:	f95ff06f          	j	25cb4 <__subdf3+0x660>
/home/hdg/Desktop/desktop/toolchain/riscv-gnu-toolchain/build-gcc-newlib-stage2/riscv64-vega-elf/rv32im/ilp32/libgcc/../../../../.././riscv-gcc/libgcc/soft-fp/subdf3.c:46 (discriminator 409)
   25d24:	40e40433          	sub	s0,s0,a4
   25d28:	ff800737          	lui	a4,0xff800
   25d2c:	fff70713          	addi	a4,a4,-1 # ff7fffff <__global_pointer$+0xff7d84bb>
   25d30:	00e7f7b3          	and	a5,a5,a4
   25d34:	bf1ff06f          	j	25924 <__subdf3+0x2d0>
/home/hdg/Desktop/desktop/toolchain/riscv-gnu-toolchain/build-gcc-newlib-stage2/riscv64-vega-elf/rv32im/ilp32/libgcc/../../../../.././riscv-gcc/libgcc/soft-fp/subdf3.c:45
   25d38:	00070793          	mv	a5,a4
   25d3c:	00060593          	mv	a1,a2
/home/hdg/Desktop/desktop/toolchain/riscv-gnu-toolchain/build-gcc-newlib-stage2/riscv64-vega-elf/rv32im/ilp32/libgcc/../../../../.././riscv-gcc/libgcc/soft-fp/subdf3.c:46
   25d40:	00050413          	mv	s0,a0
   25d44:	be1ff06f          	j	25924 <__subdf3+0x2d0>
/home/hdg/Desktop/desktop/toolchain/riscv-gnu-toolchain/build-gcc-newlib-stage2/riscv64-vega-elf/rv32im/ilp32/libgcc/../../../../.././riscv-gcc/libgcc/soft-fp/subdf3.c:45
   25d48:	00070793          	mv	a5,a4
   25d4c:	00060593          	mv	a1,a2
   25d50:	bd5ff06f          	j	25924 <__subdf3+0x2d0>
   25d54:	7ff00413          	li	s0,2047
   25d58:	00000793          	li	a5,0
   25d5c:	00000593          	li	a1,0
/home/hdg/Desktop/desktop/toolchain/riscv-gnu-toolchain/build-gcc-newlib-stage2/riscv64-vega-elf/rv32im/ilp32/libgcc/../../../../.././riscv-gcc/libgcc/soft-fp/subdf3.c:47 (discriminator 47)
   25d60:	00800737          	lui	a4,0x800
   25d64:	00e7f733          	and	a4,a5,a4
   25d68:	00070e63          	beqz	a4,25d84 <__subdf3+0x730>
/home/hdg/Desktop/desktop/toolchain/riscv-gnu-toolchain/build-gcc-newlib-stage2/riscv64-vega-elf/rv32im/ilp32/libgcc/../../../../.././riscv-gcc/libgcc/soft-fp/subdf3.c:47 (discriminator 63)
   25d6c:	00140413          	addi	s0,s0,1
   25d70:	7ff00713          	li	a4,2047
   25d74:	0ce40063          	beq	s0,a4,25e34 <__subdf3+0x7e0>
/home/hdg/Desktop/desktop/toolchain/riscv-gnu-toolchain/build-gcc-newlib-stage2/riscv64-vega-elf/rv32im/ilp32/libgcc/../../../../.././riscv-gcc/libgcc/soft-fp/subdf3.c:47
   25d78:	ff800737          	lui	a4,0xff800
   25d7c:	fff70713          	addi	a4,a4,-1 # ff7fffff <__global_pointer$+0xff7d84bb>
   25d80:	00e7f7b3          	and	a5,a5,a4
/home/hdg/Desktop/desktop/toolchain/riscv-gnu-toolchain/build-gcc-newlib-stage2/riscv64-vega-elf/rv32im/ilp32/libgcc/../../../../.././riscv-gcc/libgcc/soft-fp/subdf3.c:47 (discriminator 79)
   25d84:	01d79713          	slli	a4,a5,0x1d
   25d88:	0035d513          	srli	a0,a1,0x3
   25d8c:	00a76533          	or	a0,a4,a0
   25d90:	7ff00713          	li	a4,2047
   25d94:	0037d793          	srli	a5,a5,0x3
   25d98:	00e41e63          	bne	s0,a4,25db4 <__subdf3+0x760>
/home/hdg/Desktop/desktop/toolchain/riscv-gnu-toolchain/build-gcc-newlib-stage2/riscv64-vega-elf/rv32im/ilp32/libgcc/../../../../.././riscv-gcc/libgcc/soft-fp/subdf3.c:47 (discriminator 80)
   25d9c:	00f56533          	or	a0,a0,a5
   25da0:	00000793          	li	a5,0
   25da4:	00050863          	beqz	a0,25db4 <__subdf3+0x760>
/home/hdg/Desktop/desktop/toolchain/riscv-gnu-toolchain/build-gcc-newlib-stage2/riscv64-vega-elf/rv32im/ilp32/libgcc/../../../../.././riscv-gcc/libgcc/soft-fp/subdf3.c:47
   25da8:	000807b7          	lui	a5,0x80
   25dac:	00000513          	li	a0,0
   25db0:	00000493          	li	s1,0
/home/hdg/Desktop/desktop/toolchain/riscv-gnu-toolchain/build-gcc-newlib-stage2/riscv64-vega-elf/rv32im/ilp32/libgcc/../../../../.././riscv-gcc/libgcc/soft-fp/subdf3.c:47 (discriminator 90)
   25db4:	01441713          	slli	a4,s0,0x14
   25db8:	7ff006b7          	lui	a3,0x7ff00
   25dbc:	00c79793          	slli	a5,a5,0xc
/home/hdg/Desktop/desktop/toolchain/riscv-gnu-toolchain/build-gcc-newlib-stage2/riscv64-vega-elf/rv32im/ilp32/libgcc/../../../../.././riscv-gcc/libgcc/soft-fp/subdf3.c:51 (discriminator 90)
   25dc0:	01c12083          	lw	ra,28(sp)
   25dc4:	01812403          	lw	s0,24(sp)
/home/hdg/Desktop/desktop/toolchain/riscv-gnu-toolchain/build-gcc-newlib-stage2/riscv64-vega-elf/rv32im/ilp32/libgcc/../../../../.././riscv-gcc/libgcc/soft-fp/subdf3.c:47 (discriminator 90)
   25dc8:	00d77733          	and	a4,a4,a3
   25dcc:	00c7d793          	srli	a5,a5,0xc
   25dd0:	01f49493          	slli	s1,s1,0x1f
   25dd4:	00f767b3          	or	a5,a4,a5
   25dd8:	0097e733          	or	a4,a5,s1
/home/hdg/Desktop/desktop/toolchain/riscv-gnu-toolchain/build-gcc-newlib-stage2/riscv64-vega-elf/rv32im/ilp32/libgcc/../../../../.././riscv-gcc/libgcc/soft-fp/subdf3.c:51 (discriminator 90)
   25ddc:	01012903          	lw	s2,16(sp)
   25de0:	01412483          	lw	s1,20(sp)
   25de4:	00c12983          	lw	s3,12(sp)
   25de8:	00070593          	mv	a1,a4
   25dec:	02010113          	addi	sp,sp,32
   25df0:	00008067          	ret
   25df4:	00080413          	mv	s0,a6
   25df8:	b2dff06f          	j	25924 <__subdf3+0x2d0>
/home/hdg/Desktop/desktop/toolchain/riscv-gnu-toolchain/build-gcc-newlib-stage2/riscv64-vega-elf/rv32im/ilp32/libgcc/../../../../.././riscv-gcc/libgcc/soft-fp/subdf3.c:45
   25dfc:	00070793          	mv	a5,a4
   25e00:	00060593          	mv	a1,a2
/home/hdg/Desktop/desktop/toolchain/riscv-gnu-toolchain/build-gcc-newlib-stage2/riscv64-vega-elf/rv32im/ilp32/libgcc/../../../../.././riscv-gcc/libgcc/soft-fp/subdf3.c:46
   25e04:	00050413          	mv	s0,a0
   25e08:	da5ff06f          	j	25bac <__subdf3+0x558>
   25e0c:	00000793          	li	a5,0
   25e10:	00000593          	li	a1,0
   25e14:	00000493          	li	s1,0
   25e18:	f49ff06f          	j	25d60 <__subdf3+0x70c>
   25e1c:	00000793          	li	a5,0
   25e20:	ff5ff06f          	j	25e14 <__subdf3+0x7c0>
   25e24:	00000593          	li	a1,0
   25e28:	00000493          	li	s1,0
   25e2c:	004007b7          	lui	a5,0x400
   25e30:	b35ff06f          	j	25964 <__subdf3+0x310>
   25e34:	00000793          	li	a5,0
   25e38:	00000593          	li	a1,0
   25e3c:	f49ff06f          	j	25d84 <__subdf3+0x730>

00025e40 <__fixdfsi>:
__fixdfsi():
/home/hdg/Desktop/desktop/toolchain/riscv-gnu-toolchain/build-gcc-newlib-stage2/riscv64-vega-elf/rv32im/ilp32/libgcc/../../../../.././riscv-gcc/libgcc/soft-fp/fixdfsi.c:42
   25e40:	0145d713          	srli	a4,a1,0x14
   25e44:	001006b7          	lui	a3,0x100
   25e48:	fff68793          	addi	a5,a3,-1 # fffff <__global_pointer$+0xd84bb>
   25e4c:	7ff77713          	andi	a4,a4,2047
/home/hdg/Desktop/desktop/toolchain/riscv-gnu-toolchain/build-gcc-newlib-stage2/riscv64-vega-elf/rv32im/ilp32/libgcc/../../../../.././riscv-gcc/libgcc/soft-fp/fixdfsi.c:43
   25e50:	3fe00613          	li	a2,1022
/home/hdg/Desktop/desktop/toolchain/riscv-gnu-toolchain/build-gcc-newlib-stage2/riscv64-vega-elf/rv32im/ilp32/libgcc/../../../../.././riscv-gcc/libgcc/soft-fp/fixdfsi.c:42
   25e54:	00b7f7b3          	and	a5,a5,a1
   25e58:	01f5d593          	srli	a1,a1,0x1f
/home/hdg/Desktop/desktop/toolchain/riscv-gnu-toolchain/build-gcc-newlib-stage2/riscv64-vega-elf/rv32im/ilp32/libgcc/../../../../.././riscv-gcc/libgcc/soft-fp/fixdfsi.c:43
   25e5c:	04e65e63          	bge	a2,a4,25eb8 <__fixdfsi+0x78>
/home/hdg/Desktop/desktop/toolchain/riscv-gnu-toolchain/build-gcc-newlib-stage2/riscv64-vega-elf/rv32im/ilp32/libgcc/../../../../.././riscv-gcc/libgcc/soft-fp/fixdfsi.c:43 (discriminator 10)
   25e60:	41d00613          	li	a2,1053
   25e64:	00e65a63          	bge	a2,a4,25e78 <__fixdfsi+0x38>
/home/hdg/Desktop/desktop/toolchain/riscv-gnu-toolchain/build-gcc-newlib-stage2/riscv64-vega-elf/rv32im/ilp32/libgcc/../../../../.././riscv-gcc/libgcc/soft-fp/fixdfsi.c:43 (discriminator 14)
   25e68:	80000537          	lui	a0,0x80000
   25e6c:	fff54513          	not	a0,a0
   25e70:	00a58533          	add	a0,a1,a0
   25e74:	00008067          	ret
/home/hdg/Desktop/desktop/toolchain/riscv-gnu-toolchain/build-gcc-newlib-stage2/riscv64-vega-elf/rv32im/ilp32/libgcc/../../../../.././riscv-gcc/libgcc/soft-fp/fixdfsi.c:43 (discriminator 13)
   25e78:	00d7e7b3          	or	a5,a5,a3
   25e7c:	43300693          	li	a3,1075
   25e80:	40e686b3          	sub	a3,a3,a4
   25e84:	01f00613          	li	a2,31
   25e88:	02d64063          	blt	a2,a3,25ea8 <__fixdfsi+0x68>
/home/hdg/Desktop/desktop/toolchain/riscv-gnu-toolchain/build-gcc-newlib-stage2/riscv64-vega-elf/rv32im/ilp32/libgcc/../../../../.././riscv-gcc/libgcc/soft-fp/fixdfsi.c:43 (discriminator 30)
   25e8c:	bed70713          	addi	a4,a4,-1043
   25e90:	00e797b3          	sll	a5,a5,a4
   25e94:	00d55533          	srl	a0,a0,a3
   25e98:	00a7e533          	or	a0,a5,a0
/home/hdg/Desktop/desktop/toolchain/riscv-gnu-toolchain/build-gcc-newlib-stage2/riscv64-vega-elf/rv32im/ilp32/libgcc/../../../../.././riscv-gcc/libgcc/soft-fp/fixdfsi.c:43 (discriminator 43)
   25e9c:	02058063          	beqz	a1,25ebc <__fixdfsi+0x7c>
/home/hdg/Desktop/desktop/toolchain/riscv-gnu-toolchain/build-gcc-newlib-stage2/riscv64-vega-elf/rv32im/ilp32/libgcc/../../../../.././riscv-gcc/libgcc/soft-fp/fixdfsi.c:43 (discriminator 45)
   25ea0:	40a00533          	neg	a0,a0
   25ea4:	00008067          	ret
/home/hdg/Desktop/desktop/toolchain/riscv-gnu-toolchain/build-gcc-newlib-stage2/riscv64-vega-elf/rv32im/ilp32/libgcc/../../../../.././riscv-gcc/libgcc/soft-fp/fixdfsi.c:43 (discriminator 42)
   25ea8:	41300513          	li	a0,1043
   25eac:	40e50533          	sub	a0,a0,a4
   25eb0:	00a7d533          	srl	a0,a5,a0
   25eb4:	fe9ff06f          	j	25e9c <__fixdfsi+0x5c>
/home/hdg/Desktop/desktop/toolchain/riscv-gnu-toolchain/build-gcc-newlib-stage2/riscv64-vega-elf/rv32im/ilp32/libgcc/../../../../.././riscv-gcc/libgcc/soft-fp/fixdfsi.c:43
   25eb8:	00000513          	li	a0,0
/home/hdg/Desktop/desktop/toolchain/riscv-gnu-toolchain/build-gcc-newlib-stage2/riscv64-vega-elf/rv32im/ilp32/libgcc/../../../../.././riscv-gcc/libgcc/soft-fp/fixdfsi.c:47 (discriminator 59)
   25ebc:	00008067          	ret

00025ec0 <__fixunsdfsi>:
__fixunsdfsi():
/home/hdg/Desktop/desktop/toolchain/riscv-gnu-toolchain/build-gcc-newlib-stage2/riscv64-vega-elf/rv32im/ilp32/libgcc/../../../../.././riscv-gcc/libgcc/soft-fp/fixunsdfsi.c:42
   25ec0:	0145d713          	srli	a4,a1,0x14
   25ec4:	00100837          	lui	a6,0x100
   25ec8:	fff80793          	addi	a5,a6,-1 # fffff <__global_pointer$+0xd84bb>
   25ecc:	7ff77713          	andi	a4,a4,2047
/home/hdg/Desktop/desktop/toolchain/riscv-gnu-toolchain/build-gcc-newlib-stage2/riscv64-vega-elf/rv32im/ilp32/libgcc/../../../../.././riscv-gcc/libgcc/soft-fp/fixunsdfsi.c:43
   25ed0:	3fe00613          	li	a2,1022
/home/hdg/Desktop/desktop/toolchain/riscv-gnu-toolchain/build-gcc-newlib-stage2/riscv64-vega-elf/rv32im/ilp32/libgcc/../../../../.././riscv-gcc/libgcc/soft-fp/fixunsdfsi.c:42
   25ed4:	00b7f7b3          	and	a5,a5,a1
/home/hdg/Desktop/desktop/toolchain/riscv-gnu-toolchain/build-gcc-newlib-stage2/riscv64-vega-elf/rv32im/ilp32/libgcc/../../../../.././riscv-gcc/libgcc/soft-fp/fixunsdfsi.c:36
   25ed8:	00050693          	mv	a3,a0
/home/hdg/Desktop/desktop/toolchain/riscv-gnu-toolchain/build-gcc-newlib-stage2/riscv64-vega-elf/rv32im/ilp32/libgcc/../../../../.././riscv-gcc/libgcc/soft-fp/fixunsdfsi.c:42
   25edc:	01f5d593          	srli	a1,a1,0x1f
/home/hdg/Desktop/desktop/toolchain/riscv-gnu-toolchain/build-gcc-newlib-stage2/riscv64-vega-elf/rv32im/ilp32/libgcc/../../../../.././riscv-gcc/libgcc/soft-fp/fixunsdfsi.c:43
   25ee0:	04e65a63          	bge	a2,a4,25f34 <__fixunsdfsi+0x74>
/home/hdg/Desktop/desktop/toolchain/riscv-gnu-toolchain/build-gcc-newlib-stage2/riscv64-vega-elf/rv32im/ilp32/libgcc/../../../../.././riscv-gcc/libgcc/soft-fp/fixunsdfsi.c:43 (discriminator 10)
   25ee4:	41f00613          	li	a2,1055
   25ee8:	40b60633          	sub	a2,a2,a1
   25eec:	fff58513          	addi	a0,a1,-1
   25ef0:	04c75463          	bge	a4,a2,25f38 <__fixunsdfsi+0x78>
/home/hdg/Desktop/desktop/toolchain/riscv-gnu-toolchain/build-gcc-newlib-stage2/riscv64-vega-elf/rv32im/ilp32/libgcc/../../../../.././riscv-gcc/libgcc/soft-fp/fixunsdfsi.c:43 (discriminator 17)
   25ef4:	00000513          	li	a0,0
   25ef8:	04059063          	bnez	a1,25f38 <__fixunsdfsi+0x78>
/home/hdg/Desktop/desktop/toolchain/riscv-gnu-toolchain/build-gcc-newlib-stage2/riscv64-vega-elf/rv32im/ilp32/libgcc/../../../../.././riscv-gcc/libgcc/soft-fp/fixunsdfsi.c:43 (discriminator 19)
   25efc:	43300513          	li	a0,1075
   25f00:	40e50533          	sub	a0,a0,a4
   25f04:	01f00613          	li	a2,31
   25f08:	0107e7b3          	or	a5,a5,a6
   25f0c:	00a64c63          	blt	a2,a0,25f24 <__fixunsdfsi+0x64>
/home/hdg/Desktop/desktop/toolchain/riscv-gnu-toolchain/build-gcc-newlib-stage2/riscv64-vega-elf/rv32im/ilp32/libgcc/../../../../.././riscv-gcc/libgcc/soft-fp/fixunsdfsi.c:43 (discriminator 34)
   25f10:	bed70713          	addi	a4,a4,-1043
   25f14:	00e797b3          	sll	a5,a5,a4
   25f18:	00a6d533          	srl	a0,a3,a0
   25f1c:	00a7e533          	or	a0,a5,a0
   25f20:	00008067          	ret
/home/hdg/Desktop/desktop/toolchain/riscv-gnu-toolchain/build-gcc-newlib-stage2/riscv64-vega-elf/rv32im/ilp32/libgcc/../../../../.././riscv-gcc/libgcc/soft-fp/fixunsdfsi.c:43 (discriminator 46)
   25f24:	41300513          	li	a0,1043
   25f28:	40e50533          	sub	a0,a0,a4
   25f2c:	00a7d533          	srl	a0,a5,a0
   25f30:	00008067          	ret
/home/hdg/Desktop/desktop/toolchain/riscv-gnu-toolchain/build-gcc-newlib-stage2/riscv64-vega-elf/rv32im/ilp32/libgcc/../../../../.././riscv-gcc/libgcc/soft-fp/fixunsdfsi.c:43
   25f34:	00000513          	li	a0,0
/home/hdg/Desktop/desktop/toolchain/riscv-gnu-toolchain/build-gcc-newlib-stage2/riscv64-vega-elf/rv32im/ilp32/libgcc/../../../../.././riscv-gcc/libgcc/soft-fp/fixunsdfsi.c:47
   25f38:	00008067          	ret

00025f3c <__floatunsidf>:
__floatunsidf():
/home/hdg/Desktop/desktop/toolchain/riscv-gnu-toolchain/build-gcc-newlib-stage2/riscv64-vega-elf/rv32im/ilp32/libgcc/../../../../.././riscv-gcc/libgcc/soft-fp/floatunsidf.c:37
   25f3c:	ff010113          	addi	sp,sp,-16
   25f40:	00812423          	sw	s0,8(sp)
   25f44:	00112623          	sw	ra,12(sp)
   25f48:	00050413          	mv	s0,a0
/home/hdg/Desktop/desktop/toolchain/riscv-gnu-toolchain/build-gcc-newlib-stage2/riscv64-vega-elf/rv32im/ilp32/libgcc/../../../../.././riscv-gcc/libgcc/soft-fp/floatunsidf.c:41
   25f4c:	06050263          	beqz	a0,25fb0 <__floatunsidf+0x74>
/home/hdg/Desktop/desktop/toolchain/riscv-gnu-toolchain/build-gcc-newlib-stage2/riscv64-vega-elf/rv32im/ilp32/libgcc/../../../../.././riscv-gcc/libgcc/soft-fp/floatunsidf.c:41 (discriminator 6)
   25f50:	411000ef          	jal	ra,26b60 <__clzsi2>
   25f54:	41e00713          	li	a4,1054
   25f58:	00a00793          	li	a5,10
   25f5c:	40a70733          	sub	a4,a4,a0
   25f60:	04a7c063          	blt	a5,a0,25fa0 <__floatunsidf+0x64>
/home/hdg/Desktop/desktop/toolchain/riscv-gnu-toolchain/build-gcc-newlib-stage2/riscv64-vega-elf/rv32im/ilp32/libgcc/../../../../.././riscv-gcc/libgcc/soft-fp/floatunsidf.c:41 (discriminator 23)
   25f64:	00b00793          	li	a5,11
   25f68:	40a787b3          	sub	a5,a5,a0
   25f6c:	01550513          	addi	a0,a0,21 # 80000015 <__global_pointer$+0x7ffd84d1>
   25f70:	00f457b3          	srl	a5,s0,a5
   25f74:	00a41433          	sll	s0,s0,a0
/home/hdg/Desktop/desktop/toolchain/riscv-gnu-toolchain/build-gcc-newlib-stage2/riscv64-vega-elf/rv32im/ilp32/libgcc/../../../../.././riscv-gcc/libgcc/soft-fp/floatunsidf.c:45 (discriminator 126)
   25f78:	00c12083          	lw	ra,12(sp)
   25f7c:	00040513          	mv	a0,s0
/home/hdg/Desktop/desktop/toolchain/riscv-gnu-toolchain/build-gcc-newlib-stage2/riscv64-vega-elf/rv32im/ilp32/libgcc/../../../../.././riscv-gcc/libgcc/soft-fp/floatunsidf.c:42 (discriminator 126)
   25f80:	00c79793          	slli	a5,a5,0xc
/home/hdg/Desktop/desktop/toolchain/riscv-gnu-toolchain/build-gcc-newlib-stage2/riscv64-vega-elf/rv32im/ilp32/libgcc/../../../../.././riscv-gcc/libgcc/soft-fp/floatunsidf.c:45 (discriminator 126)
   25f84:	00812403          	lw	s0,8(sp)
/home/hdg/Desktop/desktop/toolchain/riscv-gnu-toolchain/build-gcc-newlib-stage2/riscv64-vega-elf/rv32im/ilp32/libgcc/../../../../.././riscv-gcc/libgcc/soft-fp/floatunsidf.c:42 (discriminator 126)
   25f88:	01471713          	slli	a4,a4,0x14
   25f8c:	00c7d793          	srli	a5,a5,0xc
   25f90:	00f766b3          	or	a3,a4,a5
/home/hdg/Desktop/desktop/toolchain/riscv-gnu-toolchain/build-gcc-newlib-stage2/riscv64-vega-elf/rv32im/ilp32/libgcc/../../../../.././riscv-gcc/libgcc/soft-fp/floatunsidf.c:45 (discriminator 126)
   25f94:	00068593          	mv	a1,a3
   25f98:	01010113          	addi	sp,sp,16
   25f9c:	00008067          	ret
/home/hdg/Desktop/desktop/toolchain/riscv-gnu-toolchain/build-gcc-newlib-stage2/riscv64-vega-elf/rv32im/ilp32/libgcc/../../../../.././riscv-gcc/libgcc/soft-fp/floatunsidf.c:41 (discriminator 24)
   25fa0:	ff550793          	addi	a5,a0,-11
   25fa4:	00f417b3          	sll	a5,s0,a5
   25fa8:	00000413          	li	s0,0
   25fac:	fcdff06f          	j	25f78 <__floatunsidf+0x3c>
/home/hdg/Desktop/desktop/toolchain/riscv-gnu-toolchain/build-gcc-newlib-stage2/riscv64-vega-elf/rv32im/ilp32/libgcc/../../../../.././riscv-gcc/libgcc/soft-fp/floatunsidf.c:41
   25fb0:	00000793          	li	a5,0
   25fb4:	00000713          	li	a4,0
   25fb8:	fc1ff06f          	j	25f78 <__floatunsidf+0x3c>

00025fbc <__addsf3>:
__addsf3():
/home/hdg/Desktop/desktop/toolchain/riscv-gnu-toolchain/build-gcc-newlib-stage2/riscv64-vega-elf/rv32im/ilp32/libgcc/../../../../.././riscv-gcc/libgcc/soft-fp/addsf3.c:44
   25fbc:	00800737          	lui	a4,0x800
/home/hdg/Desktop/desktop/toolchain/riscv-gnu-toolchain/build-gcc-newlib-stage2/riscv64-vega-elf/rv32im/ilp32/libgcc/../../../../.././riscv-gcc/libgcc/soft-fp/addsf3.c:36
   25fc0:	ff010113          	addi	sp,sp,-16
/home/hdg/Desktop/desktop/toolchain/riscv-gnu-toolchain/build-gcc-newlib-stage2/riscv64-vega-elf/rv32im/ilp32/libgcc/../../../../.././riscv-gcc/libgcc/soft-fp/addsf3.c:44
   25fc4:	fff70713          	addi	a4,a4,-1 # 7fffff <__global_pointer$+0x7d84bb>
   25fc8:	00a777b3          	and	a5,a4,a0
/home/hdg/Desktop/desktop/toolchain/riscv-gnu-toolchain/build-gcc-newlib-stage2/riscv64-vega-elf/rv32im/ilp32/libgcc/../../../../.././riscv-gcc/libgcc/soft-fp/addsf3.c:36
   25fcc:	00812423          	sw	s0,8(sp)
   25fd0:	00912223          	sw	s1,4(sp)
/home/hdg/Desktop/desktop/toolchain/riscv-gnu-toolchain/build-gcc-newlib-stage2/riscv64-vega-elf/rv32im/ilp32/libgcc/../../../../.././riscv-gcc/libgcc/soft-fp/addsf3.c:44
   25fd4:	01755413          	srli	s0,a0,0x17
   25fd8:	01f55493          	srli	s1,a0,0x1f
/home/hdg/Desktop/desktop/toolchain/riscv-gnu-toolchain/build-gcc-newlib-stage2/riscv64-vega-elf/rv32im/ilp32/libgcc/../../../../.././riscv-gcc/libgcc/soft-fp/addsf3.c:45
   25fdc:	0175d513          	srli	a0,a1,0x17
   25fe0:	00b77733          	and	a4,a4,a1
/home/hdg/Desktop/desktop/toolchain/riscv-gnu-toolchain/build-gcc-newlib-stage2/riscv64-vega-elf/rv32im/ilp32/libgcc/../../../../.././riscv-gcc/libgcc/soft-fp/addsf3.c:44
   25fe4:	0ff47413          	andi	s0,s0,255
/home/hdg/Desktop/desktop/toolchain/riscv-gnu-toolchain/build-gcc-newlib-stage2/riscv64-vega-elf/rv32im/ilp32/libgcc/../../../../.././riscv-gcc/libgcc/soft-fp/addsf3.c:45
   25fe8:	0ff57513          	andi	a0,a0,255
/home/hdg/Desktop/desktop/toolchain/riscv-gnu-toolchain/build-gcc-newlib-stage2/riscv64-vega-elf/rv32im/ilp32/libgcc/../../../../.././riscv-gcc/libgcc/soft-fp/addsf3.c:36
   25fec:	00112623          	sw	ra,12(sp)
   25ff0:	01212023          	sw	s2,0(sp)
/home/hdg/Desktop/desktop/toolchain/riscv-gnu-toolchain/build-gcc-newlib-stage2/riscv64-vega-elf/rv32im/ilp32/libgcc/../../../../.././riscv-gcc/libgcc/soft-fp/addsf3.c:45
   25ff4:	01f5d593          	srli	a1,a1,0x1f
/home/hdg/Desktop/desktop/toolchain/riscv-gnu-toolchain/build-gcc-newlib-stage2/riscv64-vega-elf/rv32im/ilp32/libgcc/../../../../.././riscv-gcc/libgcc/soft-fp/addsf3.c:44
   25ff8:	00379793          	slli	a5,a5,0x3
/home/hdg/Desktop/desktop/toolchain/riscv-gnu-toolchain/build-gcc-newlib-stage2/riscv64-vega-elf/rv32im/ilp32/libgcc/../../../../.././riscv-gcc/libgcc/soft-fp/addsf3.c:45
   25ffc:	00371713          	slli	a4,a4,0x3
/home/hdg/Desktop/desktop/toolchain/riscv-gnu-toolchain/build-gcc-newlib-stage2/riscv64-vega-elf/rv32im/ilp32/libgcc/../../../../.././riscv-gcc/libgcc/soft-fp/addsf3.c:46
   26000:	40a406b3          	sub	a3,s0,a0
   26004:	18b49a63          	bne	s1,a1,26198 <__addsf3+0x1dc>
/home/hdg/Desktop/desktop/toolchain/riscv-gnu-toolchain/build-gcc-newlib-stage2/riscv64-vega-elf/rv32im/ilp32/libgcc/../../../../.././riscv-gcc/libgcc/soft-fp/addsf3.c:46 (discriminator 7)
   26008:	0ad05063          	blez	a3,260a8 <__addsf3+0xec>
/home/hdg/Desktop/desktop/toolchain/riscv-gnu-toolchain/build-gcc-newlib-stage2/riscv64-vega-elf/rv32im/ilp32/libgcc/../../../../.././riscv-gcc/libgcc/soft-fp/addsf3.c:46 (discriminator 9)
   2600c:	02051663          	bnez	a0,26038 <__addsf3+0x7c>
/home/hdg/Desktop/desktop/toolchain/riscv-gnu-toolchain/build-gcc-newlib-stage2/riscv64-vega-elf/rv32im/ilp32/libgcc/../../../../.././riscv-gcc/libgcc/soft-fp/addsf3.c:46 (discriminator 11)
   26010:	18070063          	beqz	a4,26190 <__addsf3+0x1d4>
/home/hdg/Desktop/desktop/toolchain/riscv-gnu-toolchain/build-gcc-newlib-stage2/riscv64-vega-elf/rv32im/ilp32/libgcc/../../../../.././riscv-gcc/libgcc/soft-fp/addsf3.c:46 (discriminator 14)
   26014:	fff68613          	addi	a2,a3,-1
   26018:	00061863          	bnez	a2,26028 <__addsf3+0x6c>
/home/hdg/Desktop/desktop/toolchain/riscv-gnu-toolchain/build-gcc-newlib-stage2/riscv64-vega-elf/rv32im/ilp32/libgcc/../../../../.././riscv-gcc/libgcc/soft-fp/addsf3.c:46 (discriminator 75)
   2601c:	00e787b3          	add	a5,a5,a4
/home/hdg/Desktop/desktop/toolchain/riscv-gnu-toolchain/build-gcc-newlib-stage2/riscv64-vega-elf/rv32im/ilp32/libgcc/../../../../.././riscv-gcc/libgcc/soft-fp/addsf3.c:45 (discriminator 75)
   26020:	00100413          	li	s0,1
/home/hdg/Desktop/desktop/toolchain/riscv-gnu-toolchain/build-gcc-newlib-stage2/riscv64-vega-elf/rv32im/ilp32/libgcc/../../../../.././riscv-gcc/libgcc/soft-fp/addsf3.c:46 (discriminator 75)
   26024:	0500006f          	j	26074 <__addsf3+0xb8>
/home/hdg/Desktop/desktop/toolchain/riscv-gnu-toolchain/build-gcc-newlib-stage2/riscv64-vega-elf/rv32im/ilp32/libgcc/../../../../.././riscv-gcc/libgcc/soft-fp/addsf3.c:46 (discriminator 24)
   26028:	0ff00593          	li	a1,255
   2602c:	02b69063          	bne	a3,a1,2604c <__addsf3+0x90>
/home/hdg/Desktop/desktop/toolchain/riscv-gnu-toolchain/build-gcc-newlib-stage2/riscv64-vega-elf/rv32im/ilp32/libgcc/../../../../.././riscv-gcc/libgcc/soft-fp/addsf3.c:46
   26030:	0ff00413          	li	s0,255
   26034:	1180006f          	j	2614c <__addsf3+0x190>
/home/hdg/Desktop/desktop/toolchain/riscv-gnu-toolchain/build-gcc-newlib-stage2/riscv64-vega-elf/rv32im/ilp32/libgcc/../../../../.././riscv-gcc/libgcc/soft-fp/addsf3.c:46 (discriminator 12)
   26038:	0ff00613          	li	a2,255
   2603c:	10c40863          	beq	s0,a2,2614c <__addsf3+0x190>
/home/hdg/Desktop/desktop/toolchain/riscv-gnu-toolchain/build-gcc-newlib-stage2/riscv64-vega-elf/rv32im/ilp32/libgcc/../../../../.././riscv-gcc/libgcc/soft-fp/addsf3.c:46 (discriminator 38)
   26040:	04000637          	lui	a2,0x4000
   26044:	00c76733          	or	a4,a4,a2
   26048:	00068613          	mv	a2,a3
/home/hdg/Desktop/desktop/toolchain/riscv-gnu-toolchain/build-gcc-newlib-stage2/riscv64-vega-elf/rv32im/ilp32/libgcc/../../../../.././riscv-gcc/libgcc/soft-fp/addsf3.c:46 (discriminator 47)
   2604c:	01b00593          	li	a1,27
   26050:	00100693          	li	a3,1
   26054:	00c5ce63          	blt	a1,a2,26070 <__addsf3+0xb4>
/home/hdg/Desktop/desktop/toolchain/riscv-gnu-toolchain/build-gcc-newlib-stage2/riscv64-vega-elf/rv32im/ilp32/libgcc/../../../../.././riscv-gcc/libgcc/soft-fp/addsf3.c:46 (discriminator 48)
   26058:	02000693          	li	a3,32
   2605c:	40c686b3          	sub	a3,a3,a2
   26060:	00c755b3          	srl	a1,a4,a2
   26064:	00d71733          	sll	a4,a4,a3
   26068:	00e03733          	snez	a4,a4
   2606c:	00e5e6b3          	or	a3,a1,a4
/home/hdg/Desktop/desktop/toolchain/riscv-gnu-toolchain/build-gcc-newlib-stage2/riscv64-vega-elf/rv32im/ilp32/libgcc/../../../../.././riscv-gcc/libgcc/soft-fp/addsf3.c:46 (discriminator 59)
   26070:	00d787b3          	add	a5,a5,a3
/home/hdg/Desktop/desktop/toolchain/riscv-gnu-toolchain/build-gcc-newlib-stage2/riscv64-vega-elf/rv32im/ilp32/libgcc/../../../../.././riscv-gcc/libgcc/soft-fp/addsf3.c:46 (discriminator 112)
   26074:	04000737          	lui	a4,0x4000
   26078:	00e7f733          	and	a4,a5,a4
   2607c:	0c070863          	beqz	a4,2614c <__addsf3+0x190>
/home/hdg/Desktop/desktop/toolchain/riscv-gnu-toolchain/build-gcc-newlib-stage2/riscv64-vega-elf/rv32im/ilp32/libgcc/../../../../.././riscv-gcc/libgcc/soft-fp/addsf3.c:46 (discriminator 171)
   26080:	00140413          	addi	s0,s0,1
   26084:	0ff00713          	li	a4,255
   26088:	30e40263          	beq	s0,a4,2638c <__addsf3+0x3d0>
/home/hdg/Desktop/desktop/toolchain/riscv-gnu-toolchain/build-gcc-newlib-stage2/riscv64-vega-elf/rv32im/ilp32/libgcc/../../../../.././riscv-gcc/libgcc/soft-fp/addsf3.c:46
   2608c:	7e000737          	lui	a4,0x7e000
   26090:	0017f693          	andi	a3,a5,1
   26094:	fff70713          	addi	a4,a4,-1 # 7dffffff <__global_pointer$+0x7dfd84bb>
   26098:	0017d793          	srli	a5,a5,0x1
   2609c:	00e7f7b3          	and	a5,a5,a4
   260a0:	00d7e7b3          	or	a5,a5,a3
   260a4:	0a80006f          	j	2614c <__addsf3+0x190>
/home/hdg/Desktop/desktop/toolchain/riscv-gnu-toolchain/build-gcc-newlib-stage2/riscv64-vega-elf/rv32im/ilp32/libgcc/../../../../.././riscv-gcc/libgcc/soft-fp/addsf3.c:46 (discriminator 10)
   260a8:	06068663          	beqz	a3,26114 <__addsf3+0x158>
/home/hdg/Desktop/desktop/toolchain/riscv-gnu-toolchain/build-gcc-newlib-stage2/riscv64-vega-elf/rv32im/ilp32/libgcc/../../../../.././riscv-gcc/libgcc/soft-fp/addsf3.c:46 (discriminator 61)
   260ac:	408506b3          	sub	a3,a0,s0
   260b0:	02041063          	bnez	s0,260d0 <__addsf3+0x114>
/home/hdg/Desktop/desktop/toolchain/riscv-gnu-toolchain/build-gcc-newlib-stage2/riscv64-vega-elf/rv32im/ilp32/libgcc/../../../../.././riscv-gcc/libgcc/soft-fp/addsf3.c:46 (discriminator 63)
   260b4:	2c078263          	beqz	a5,26378 <__addsf3+0x3bc>
/home/hdg/Desktop/desktop/toolchain/riscv-gnu-toolchain/build-gcc-newlib-stage2/riscv64-vega-elf/rv32im/ilp32/libgcc/../../../../.././riscv-gcc/libgcc/soft-fp/addsf3.c:46 (discriminator 66)
   260b8:	fff68613          	addi	a2,a3,-1
   260bc:	f60600e3          	beqz	a2,2601c <__addsf3+0x60>
/home/hdg/Desktop/desktop/toolchain/riscv-gnu-toolchain/build-gcc-newlib-stage2/riscv64-vega-elf/rv32im/ilp32/libgcc/../../../../.././riscv-gcc/libgcc/soft-fp/addsf3.c:46 (discriminator 76)
   260c0:	0ff00593          	li	a1,255
   260c4:	02b69063          	bne	a3,a1,260e4 <__addsf3+0x128>
/home/hdg/Desktop/desktop/toolchain/riscv-gnu-toolchain/build-gcc-newlib-stage2/riscv64-vega-elf/rv32im/ilp32/libgcc/../../../../.././riscv-gcc/libgcc/soft-fp/addsf3.c:45
   260c8:	00070793          	mv	a5,a4
   260cc:	f65ff06f          	j	26030 <__addsf3+0x74>
/home/hdg/Desktop/desktop/toolchain/riscv-gnu-toolchain/build-gcc-newlib-stage2/riscv64-vega-elf/rv32im/ilp32/libgcc/../../../../.././riscv-gcc/libgcc/soft-fp/addsf3.c:46 (discriminator 64)
   260d0:	0ff00613          	li	a2,255
   260d4:	fec50ae3          	beq	a0,a2,260c8 <__addsf3+0x10c>
/home/hdg/Desktop/desktop/toolchain/riscv-gnu-toolchain/build-gcc-newlib-stage2/riscv64-vega-elf/rv32im/ilp32/libgcc/../../../../.././riscv-gcc/libgcc/soft-fp/addsf3.c:46 (discriminator 90)
   260d8:	04000637          	lui	a2,0x4000
   260dc:	00c7e7b3          	or	a5,a5,a2
   260e0:	00068613          	mv	a2,a3
/home/hdg/Desktop/desktop/toolchain/riscv-gnu-toolchain/build-gcc-newlib-stage2/riscv64-vega-elf/rv32im/ilp32/libgcc/../../../../.././riscv-gcc/libgcc/soft-fp/addsf3.c:46 (discriminator 99)
   260e4:	01b00593          	li	a1,27
   260e8:	00100693          	li	a3,1
   260ec:	00c5ce63          	blt	a1,a2,26108 <__addsf3+0x14c>
/home/hdg/Desktop/desktop/toolchain/riscv-gnu-toolchain/build-gcc-newlib-stage2/riscv64-vega-elf/rv32im/ilp32/libgcc/../../../../.././riscv-gcc/libgcc/soft-fp/addsf3.c:46 (discriminator 100)
   260f0:	02000693          	li	a3,32
   260f4:	40c686b3          	sub	a3,a3,a2
   260f8:	00c7d5b3          	srl	a1,a5,a2
   260fc:	00d797b3          	sll	a5,a5,a3
   26100:	00f037b3          	snez	a5,a5
   26104:	00f5e6b3          	or	a3,a1,a5
/home/hdg/Desktop/desktop/toolchain/riscv-gnu-toolchain/build-gcc-newlib-stage2/riscv64-vega-elf/rv32im/ilp32/libgcc/../../../../.././riscv-gcc/libgcc/soft-fp/addsf3.c:46 (discriminator 111)
   26108:	00e687b3          	add	a5,a3,a4
/home/hdg/Desktop/desktop/toolchain/riscv-gnu-toolchain/build-gcc-newlib-stage2/riscv64-vega-elf/rv32im/ilp32/libgcc/../../../../.././riscv-gcc/libgcc/soft-fp/addsf3.c:45 (discriminator 111)
   2610c:	00050413          	mv	s0,a0
   26110:	f65ff06f          	j	26074 <__addsf3+0xb8>
/home/hdg/Desktop/desktop/toolchain/riscv-gnu-toolchain/build-gcc-newlib-stage2/riscv64-vega-elf/rv32im/ilp32/libgcc/../../../../.././riscv-gcc/libgcc/soft-fp/addsf3.c:46 (discriminator 62)
   26114:	00140693          	addi	a3,s0,1
   26118:	0fe6f613          	andi	a2,a3,254
   2611c:	06061263          	bnez	a2,26180 <__addsf3+0x1c4>
/home/hdg/Desktop/desktop/toolchain/riscv-gnu-toolchain/build-gcc-newlib-stage2/riscv64-vega-elf/rv32im/ilp32/libgcc/../../../../.././riscv-gcc/libgcc/soft-fp/addsf3.c:46 (discriminator 113)
   26120:	04041463          	bnez	s0,26168 <__addsf3+0x1ac>
/home/hdg/Desktop/desktop/toolchain/riscv-gnu-toolchain/build-gcc-newlib-stage2/riscv64-vega-elf/rv32im/ilp32/libgcc/../../../../.././riscv-gcc/libgcc/soft-fp/addsf3.c:46 (discriminator 115)
   26124:	24078e63          	beqz	a5,26380 <__addsf3+0x3c4>
/home/hdg/Desktop/desktop/toolchain/riscv-gnu-toolchain/build-gcc-newlib-stage2/riscv64-vega-elf/rv32im/ilp32/libgcc/../../../../.././riscv-gcc/libgcc/soft-fp/addsf3.c:46 (discriminator 118)
   26128:	02070263          	beqz	a4,2614c <__addsf3+0x190>
/home/hdg/Desktop/desktop/toolchain/riscv-gnu-toolchain/build-gcc-newlib-stage2/riscv64-vega-elf/rv32im/ilp32/libgcc/../../../../.././riscv-gcc/libgcc/soft-fp/addsf3.c:46 (discriminator 124)
   2612c:	00e787b3          	add	a5,a5,a4
   26130:	04000737          	lui	a4,0x4000
   26134:	00e7f733          	and	a4,a5,a4
   26138:	00070a63          	beqz	a4,2614c <__addsf3+0x190>
/home/hdg/Desktop/desktop/toolchain/riscv-gnu-toolchain/build-gcc-newlib-stage2/riscv64-vega-elf/rv32im/ilp32/libgcc/../../../../.././riscv-gcc/libgcc/soft-fp/addsf3.c:46 (discriminator 126)
   2613c:	fc000737          	lui	a4,0xfc000
   26140:	fff70713          	addi	a4,a4,-1 # fbffffff <__global_pointer$+0xfbfd84bb>
   26144:	00e7f7b3          	and	a5,a5,a4
   26148:	00100413          	li	s0,1
/home/hdg/Desktop/desktop/toolchain/riscv-gnu-toolchain/build-gcc-newlib-stage2/riscv64-vega-elf/rv32im/ilp32/libgcc/../../../../.././riscv-gcc/libgcc/soft-fp/addsf3.c:47 (discriminator 377)
   2614c:	0077f713          	andi	a4,a5,7
   26150:	24070063          	beqz	a4,26390 <__addsf3+0x3d4>
/home/hdg/Desktop/desktop/toolchain/riscv-gnu-toolchain/build-gcc-newlib-stage2/riscv64-vega-elf/rv32im/ilp32/libgcc/../../../../.././riscv-gcc/libgcc/soft-fp/addsf3.c:47 (discriminator 37)
   26154:	00f7f713          	andi	a4,a5,15
   26158:	00400693          	li	a3,4
   2615c:	22d70a63          	beq	a4,a3,26390 <__addsf3+0x3d4>
/home/hdg/Desktop/desktop/toolchain/riscv-gnu-toolchain/build-gcc-newlib-stage2/riscv64-vega-elf/rv32im/ilp32/libgcc/../../../../.././riscv-gcc/libgcc/soft-fp/addsf3.c:47 (discriminator 44)
   26160:	00478793          	addi	a5,a5,4 # 400004 <__global_pointer$+0x3d84c0>
   26164:	22c0006f          	j	26390 <__addsf3+0x3d4>
/home/hdg/Desktop/desktop/toolchain/riscv-gnu-toolchain/build-gcc-newlib-stage2/riscv64-vega-elf/rv32im/ilp32/libgcc/../../../../.././riscv-gcc/libgcc/soft-fp/addsf3.c:46 (discriminator 143)
   26168:	f60780e3          	beqz	a5,260c8 <__addsf3+0x10c>
/home/hdg/Desktop/desktop/toolchain/riscv-gnu-toolchain/build-gcc-newlib-stage2/riscv64-vega-elf/rv32im/ilp32/libgcc/../../../../.././riscv-gcc/libgcc/soft-fp/addsf3.c:46 (discriminator 329)
   2616c:	ec0702e3          	beqz	a4,26030 <__addsf3+0x74>
/home/hdg/Desktop/desktop/toolchain/riscv-gnu-toolchain/build-gcc-newlib-stage2/riscv64-vega-elf/rv32im/ilp32/libgcc/../../../../.././riscv-gcc/libgcc/soft-fp/addsf3.c:46
   26170:	00000493          	li	s1,0
   26174:	020007b7          	lui	a5,0x2000
   26178:	0ff00413          	li	s0,255
   2617c:	2140006f          	j	26390 <__addsf3+0x3d4>
/home/hdg/Desktop/desktop/toolchain/riscv-gnu-toolchain/build-gcc-newlib-stage2/riscv64-vega-elf/rv32im/ilp32/libgcc/../../../../.././riscv-gcc/libgcc/soft-fp/addsf3.c:46 (discriminator 114)
   26180:	0ff00613          	li	a2,255
   26184:	20c68263          	beq	a3,a2,26388 <__addsf3+0x3cc>
/home/hdg/Desktop/desktop/toolchain/riscv-gnu-toolchain/build-gcc-newlib-stage2/riscv64-vega-elf/rv32im/ilp32/libgcc/../../../../.././riscv-gcc/libgcc/soft-fp/addsf3.c:46
   26188:	00e787b3          	add	a5,a5,a4
   2618c:	0017d793          	srli	a5,a5,0x1
   26190:	00068413          	mv	s0,a3
   26194:	fb9ff06f          	j	2614c <__addsf3+0x190>
/home/hdg/Desktop/desktop/toolchain/riscv-gnu-toolchain/build-gcc-newlib-stage2/riscv64-vega-elf/rv32im/ilp32/libgcc/../../../../.././riscv-gcc/libgcc/soft-fp/addsf3.c:46 (discriminator 8)
   26198:	08d05063          	blez	a3,26218 <__addsf3+0x25c>
/home/hdg/Desktop/desktop/toolchain/riscv-gnu-toolchain/build-gcc-newlib-stage2/riscv64-vega-elf/rv32im/ilp32/libgcc/../../../../.././riscv-gcc/libgcc/soft-fp/addsf3.c:46 (discriminator 189)
   2619c:	06051263          	bnez	a0,26200 <__addsf3+0x244>
/home/hdg/Desktop/desktop/toolchain/riscv-gnu-toolchain/build-gcc-newlib-stage2/riscv64-vega-elf/rv32im/ilp32/libgcc/../../../../.././riscv-gcc/libgcc/soft-fp/addsf3.c:46 (discriminator 191)
   261a0:	fe0708e3          	beqz	a4,26190 <__addsf3+0x1d4>
/home/hdg/Desktop/desktop/toolchain/riscv-gnu-toolchain/build-gcc-newlib-stage2/riscv64-vega-elf/rv32im/ilp32/libgcc/../../../../.././riscv-gcc/libgcc/soft-fp/addsf3.c:46 (discriminator 194)
   261a4:	fff68613          	addi	a2,a3,-1
   261a8:	00061863          	bnez	a2,261b8 <__addsf3+0x1fc>
/home/hdg/Desktop/desktop/toolchain/riscv-gnu-toolchain/build-gcc-newlib-stage2/riscv64-vega-elf/rv32im/ilp32/libgcc/../../../../.././riscv-gcc/libgcc/soft-fp/addsf3.c:46 (discriminator 203)
   261ac:	40e787b3          	sub	a5,a5,a4
/home/hdg/Desktop/desktop/toolchain/riscv-gnu-toolchain/build-gcc-newlib-stage2/riscv64-vega-elf/rv32im/ilp32/libgcc/../../../../.././riscv-gcc/libgcc/soft-fp/addsf3.c:45 (discriminator 255)
   261b0:	00100413          	li	s0,1
/home/hdg/Desktop/desktop/toolchain/riscv-gnu-toolchain/build-gcc-newlib-stage2/riscv64-vega-elf/rv32im/ilp32/libgcc/../../../../.././riscv-gcc/libgcc/soft-fp/addsf3.c:46 (discriminator 255)
   261b4:	0340006f          	j	261e8 <__addsf3+0x22c>
/home/hdg/Desktop/desktop/toolchain/riscv-gnu-toolchain/build-gcc-newlib-stage2/riscv64-vega-elf/rv32im/ilp32/libgcc/../../../../.././riscv-gcc/libgcc/soft-fp/addsf3.c:46 (discriminator 204)
   261b8:	0ff00593          	li	a1,255
   261bc:	e6b68ae3          	beq	a3,a1,26030 <__addsf3+0x74>
/home/hdg/Desktop/desktop/toolchain/riscv-gnu-toolchain/build-gcc-newlib-stage2/riscv64-vega-elf/rv32im/ilp32/libgcc/../../../../.././riscv-gcc/libgcc/soft-fp/addsf3.c:46 (discriminator 227)
   261c0:	01b00593          	li	a1,27
   261c4:	00100693          	li	a3,1
   261c8:	00c5ce63          	blt	a1,a2,261e4 <__addsf3+0x228>
/home/hdg/Desktop/desktop/toolchain/riscv-gnu-toolchain/build-gcc-newlib-stage2/riscv64-vega-elf/rv32im/ilp32/libgcc/../../../../.././riscv-gcc/libgcc/soft-fp/addsf3.c:46 (discriminator 228)
   261cc:	02000693          	li	a3,32
   261d0:	40c686b3          	sub	a3,a3,a2
   261d4:	00c755b3          	srl	a1,a4,a2
   261d8:	00d71733          	sll	a4,a4,a3
   261dc:	00e03733          	snez	a4,a4
   261e0:	00e5e6b3          	or	a3,a1,a4
/home/hdg/Desktop/desktop/toolchain/riscv-gnu-toolchain/build-gcc-newlib-stage2/riscv64-vega-elf/rv32im/ilp32/libgcc/../../../../.././riscv-gcc/libgcc/soft-fp/addsf3.c:46 (discriminator 239)
   261e4:	40d787b3          	sub	a5,a5,a3
/home/hdg/Desktop/desktop/toolchain/riscv-gnu-toolchain/build-gcc-newlib-stage2/riscv64-vega-elf/rv32im/ilp32/libgcc/../../../../.././riscv-gcc/libgcc/soft-fp/addsf3.c:46 (discriminator 292)
   261e8:	04000937          	lui	s2,0x4000
   261ec:	0127f733          	and	a4,a5,s2
   261f0:	f4070ee3          	beqz	a4,2614c <__addsf3+0x190>
/home/hdg/Desktop/desktop/toolchain/riscv-gnu-toolchain/build-gcc-newlib-stage2/riscv64-vega-elf/rv32im/ilp32/libgcc/../../../../.././riscv-gcc/libgcc/soft-fp/addsf3.c:46 (discriminator 351)
   261f4:	fff90913          	addi	s2,s2,-1 # 3ffffff <__global_pointer$+0x3fd84bb>
   261f8:	0127f933          	and	s2,a5,s2
   261fc:	1180006f          	j	26314 <__addsf3+0x358>
/home/hdg/Desktop/desktop/toolchain/riscv-gnu-toolchain/build-gcc-newlib-stage2/riscv64-vega-elf/rv32im/ilp32/libgcc/../../../../.././riscv-gcc/libgcc/soft-fp/addsf3.c:46 (discriminator 192)
   26200:	0ff00613          	li	a2,255
   26204:	f4c404e3          	beq	s0,a2,2614c <__addsf3+0x190>
/home/hdg/Desktop/desktop/toolchain/riscv-gnu-toolchain/build-gcc-newlib-stage2/riscv64-vega-elf/rv32im/ilp32/libgcc/../../../../.././riscv-gcc/libgcc/soft-fp/addsf3.c:46 (discriminator 218)
   26208:	04000637          	lui	a2,0x4000
   2620c:	00c76733          	or	a4,a4,a2
   26210:	00068613          	mv	a2,a3
   26214:	fadff06f          	j	261c0 <__addsf3+0x204>
/home/hdg/Desktop/desktop/toolchain/riscv-gnu-toolchain/build-gcc-newlib-stage2/riscv64-vega-elf/rv32im/ilp32/libgcc/../../../../.././riscv-gcc/libgcc/soft-fp/addsf3.c:46 (discriminator 190)
   26218:	08068063          	beqz	a3,26298 <__addsf3+0x2dc>
/home/hdg/Desktop/desktop/toolchain/riscv-gnu-toolchain/build-gcc-newlib-stage2/riscv64-vega-elf/rv32im/ilp32/libgcc/../../../../.././riscv-gcc/libgcc/soft-fp/addsf3.c:46 (discriminator 241)
   2621c:	408506b3          	sub	a3,a0,s0
   26220:	02041863          	bnez	s0,26250 <__addsf3+0x294>
/home/hdg/Desktop/desktop/toolchain/riscv-gnu-toolchain/build-gcc-newlib-stage2/riscv64-vega-elf/rv32im/ilp32/libgcc/../../../../.././riscv-gcc/libgcc/soft-fp/addsf3.c:46 (discriminator 243)
   26224:	1e078063          	beqz	a5,26404 <__addsf3+0x448>
/home/hdg/Desktop/desktop/toolchain/riscv-gnu-toolchain/build-gcc-newlib-stage2/riscv64-vega-elf/rv32im/ilp32/libgcc/../../../../.././riscv-gcc/libgcc/soft-fp/addsf3.c:46 (discriminator 246)
   26228:	fff68613          	addi	a2,a3,-1
   2622c:	00061863          	bnez	a2,2623c <__addsf3+0x280>
/home/hdg/Desktop/desktop/toolchain/riscv-gnu-toolchain/build-gcc-newlib-stage2/riscv64-vega-elf/rv32im/ilp32/libgcc/../../../../.././riscv-gcc/libgcc/soft-fp/addsf3.c:46 (discriminator 255)
   26230:	40f707b3          	sub	a5,a4,a5
   26234:	00058493          	mv	s1,a1
   26238:	f79ff06f          	j	261b0 <__addsf3+0x1f4>
/home/hdg/Desktop/desktop/toolchain/riscv-gnu-toolchain/build-gcc-newlib-stage2/riscv64-vega-elf/rv32im/ilp32/libgcc/../../../../.././riscv-gcc/libgcc/soft-fp/addsf3.c:46 (discriminator 256)
   2623c:	0ff00813          	li	a6,255
   26240:	03069263          	bne	a3,a6,26264 <__addsf3+0x2a8>
/home/hdg/Desktop/desktop/toolchain/riscv-gnu-toolchain/build-gcc-newlib-stage2/riscv64-vega-elf/rv32im/ilp32/libgcc/../../../../.././riscv-gcc/libgcc/soft-fp/addsf3.c:45
   26244:	00070793          	mv	a5,a4
/home/hdg/Desktop/desktop/toolchain/riscv-gnu-toolchain/build-gcc-newlib-stage2/riscv64-vega-elf/rv32im/ilp32/libgcc/../../../../.././riscv-gcc/libgcc/soft-fp/addsf3.c:46
   26248:	0ff00413          	li	s0,255
   2624c:	06c0006f          	j	262b8 <__addsf3+0x2fc>
/home/hdg/Desktop/desktop/toolchain/riscv-gnu-toolchain/build-gcc-newlib-stage2/riscv64-vega-elf/rv32im/ilp32/libgcc/../../../../.././riscv-gcc/libgcc/soft-fp/addsf3.c:46 (discriminator 244)
   26250:	0ff00613          	li	a2,255
   26254:	fec508e3          	beq	a0,a2,26244 <__addsf3+0x288>
/home/hdg/Desktop/desktop/toolchain/riscv-gnu-toolchain/build-gcc-newlib-stage2/riscv64-vega-elf/rv32im/ilp32/libgcc/../../../../.././riscv-gcc/libgcc/soft-fp/addsf3.c:46 (discriminator 270)
   26258:	04000637          	lui	a2,0x4000
   2625c:	00c7e7b3          	or	a5,a5,a2
   26260:	00068613          	mv	a2,a3
/home/hdg/Desktop/desktop/toolchain/riscv-gnu-toolchain/build-gcc-newlib-stage2/riscv64-vega-elf/rv32im/ilp32/libgcc/../../../../.././riscv-gcc/libgcc/soft-fp/addsf3.c:46 (discriminator 279)
   26264:	01b00813          	li	a6,27
   26268:	00100693          	li	a3,1
   2626c:	00c84e63          	blt	a6,a2,26288 <__addsf3+0x2cc>
/home/hdg/Desktop/desktop/toolchain/riscv-gnu-toolchain/build-gcc-newlib-stage2/riscv64-vega-elf/rv32im/ilp32/libgcc/../../../../.././riscv-gcc/libgcc/soft-fp/addsf3.c:46 (discriminator 280)
   26270:	02000693          	li	a3,32
   26274:	40c686b3          	sub	a3,a3,a2
   26278:	00c7d833          	srl	a6,a5,a2
   2627c:	00d797b3          	sll	a5,a5,a3
   26280:	00f037b3          	snez	a5,a5
   26284:	00f866b3          	or	a3,a6,a5
/home/hdg/Desktop/desktop/toolchain/riscv-gnu-toolchain/build-gcc-newlib-stage2/riscv64-vega-elf/rv32im/ilp32/libgcc/../../../../.././riscv-gcc/libgcc/soft-fp/addsf3.c:46 (discriminator 291)
   26288:	40d707b3          	sub	a5,a4,a3
/home/hdg/Desktop/desktop/toolchain/riscv-gnu-toolchain/build-gcc-newlib-stage2/riscv64-vega-elf/rv32im/ilp32/libgcc/../../../../.././riscv-gcc/libgcc/soft-fp/addsf3.c:45 (discriminator 291)
   2628c:	00050413          	mv	s0,a0
   26290:	00058493          	mv	s1,a1
   26294:	f55ff06f          	j	261e8 <__addsf3+0x22c>
/home/hdg/Desktop/desktop/toolchain/riscv-gnu-toolchain/build-gcc-newlib-stage2/riscv64-vega-elf/rv32im/ilp32/libgcc/../../../../.././riscv-gcc/libgcc/soft-fp/addsf3.c:46 (discriminator 242)
   26298:	00140693          	addi	a3,s0,1
   2629c:	0fe6f693          	andi	a3,a3,254
   262a0:	04069e63          	bnez	a3,262fc <__addsf3+0x340>
/home/hdg/Desktop/desktop/toolchain/riscv-gnu-toolchain/build-gcc-newlib-stage2/riscv64-vega-elf/rv32im/ilp32/libgcc/../../../../.././riscv-gcc/libgcc/soft-fp/addsf3.c:46 (discriminator 293)
   262a4:	04041263          	bnez	s0,262e8 <__addsf3+0x32c>
/home/hdg/Desktop/desktop/toolchain/riscv-gnu-toolchain/build-gcc-newlib-stage2/riscv64-vega-elf/rv32im/ilp32/libgcc/../../../../.././riscv-gcc/libgcc/soft-fp/addsf3.c:46 (discriminator 295)
   262a8:	00079c63          	bnez	a5,262c0 <__addsf3+0x304>
/home/hdg/Desktop/desktop/toolchain/riscv-gnu-toolchain/build-gcc-newlib-stage2/riscv64-vega-elf/rv32im/ilp32/libgcc/../../../../.././riscv-gcc/libgcc/soft-fp/addsf3.c:46 (discriminator 297)
   262ac:	00000493          	li	s1,0
   262b0:	0e070063          	beqz	a4,26390 <__addsf3+0x3d4>
/home/hdg/Desktop/desktop/toolchain/riscv-gnu-toolchain/build-gcc-newlib-stage2/riscv64-vega-elf/rv32im/ilp32/libgcc/../../../../.././riscv-gcc/libgcc/soft-fp/addsf3.c:46
   262b4:	00070793          	mv	a5,a4
   262b8:	00058493          	mv	s1,a1
   262bc:	e91ff06f          	j	2614c <__addsf3+0x190>
/home/hdg/Desktop/desktop/toolchain/riscv-gnu-toolchain/build-gcc-newlib-stage2/riscv64-vega-elf/rv32im/ilp32/libgcc/../../../../.././riscv-gcc/libgcc/soft-fp/addsf3.c:46 (discriminator 298)
   262c0:	e80706e3          	beqz	a4,2614c <__addsf3+0x190>
/home/hdg/Desktop/desktop/toolchain/riscv-gnu-toolchain/build-gcc-newlib-stage2/riscv64-vega-elf/rv32im/ilp32/libgcc/../../../../.././riscv-gcc/libgcc/soft-fp/addsf3.c:46 (discriminator 305)
   262c4:	40e786b3          	sub	a3,a5,a4
   262c8:	04000637          	lui	a2,0x4000
   262cc:	00c6f633          	and	a2,a3,a2
   262d0:	40f707b3          	sub	a5,a4,a5
   262d4:	fe0612e3          	bnez	a2,262b8 <__addsf3+0x2fc>
/home/hdg/Desktop/desktop/toolchain/riscv-gnu-toolchain/build-gcc-newlib-stage2/riscv64-vega-elf/rv32im/ilp32/libgcc/../../../../.././riscv-gcc/libgcc/soft-fp/addsf3.c:46 (discriminator 308)
   262d8:	00000793          	li	a5,0
   262dc:	08068063          	beqz	a3,2635c <__addsf3+0x3a0>
   262e0:	00068793          	mv	a5,a3
   262e4:	e69ff06f          	j	2614c <__addsf3+0x190>
/home/hdg/Desktop/desktop/toolchain/riscv-gnu-toolchain/build-gcc-newlib-stage2/riscv64-vega-elf/rv32im/ilp32/libgcc/../../../../.././riscv-gcc/libgcc/soft-fp/addsf3.c:46 (discriminator 327)
   262e8:	e80792e3          	bnez	a5,2616c <__addsf3+0x1b0>
/home/hdg/Desktop/desktop/toolchain/riscv-gnu-toolchain/build-gcc-newlib-stage2/riscv64-vega-elf/rv32im/ilp32/libgcc/../../../../.././riscv-gcc/libgcc/soft-fp/addsf3.c:46 (discriminator 328)
   262ec:	e80702e3          	beqz	a4,26170 <__addsf3+0x1b4>
/home/hdg/Desktop/desktop/toolchain/riscv-gnu-toolchain/build-gcc-newlib-stage2/riscv64-vega-elf/rv32im/ilp32/libgcc/../../../../.././riscv-gcc/libgcc/soft-fp/addsf3.c:46
   262f0:	00070793          	mv	a5,a4
   262f4:	00058493          	mv	s1,a1
   262f8:	d39ff06f          	j	26030 <__addsf3+0x74>
/home/hdg/Desktop/desktop/toolchain/riscv-gnu-toolchain/build-gcc-newlib-stage2/riscv64-vega-elf/rv32im/ilp32/libgcc/../../../../.././riscv-gcc/libgcc/soft-fp/addsf3.c:46 (discriminator 294)
   262fc:	40e78933          	sub	s2,a5,a4
   26300:	040006b7          	lui	a3,0x4000
   26304:	00d976b3          	and	a3,s2,a3
   26308:	04068463          	beqz	a3,26350 <__addsf3+0x394>
/home/hdg/Desktop/desktop/toolchain/riscv-gnu-toolchain/build-gcc-newlib-stage2/riscv64-vega-elf/rv32im/ilp32/libgcc/../../../../.././riscv-gcc/libgcc/soft-fp/addsf3.c:46 (discriminator 344)
   2630c:	40f70933          	sub	s2,a4,a5
   26310:	00058493          	mv	s1,a1
/home/hdg/Desktop/desktop/toolchain/riscv-gnu-toolchain/build-gcc-newlib-stage2/riscv64-vega-elf/rv32im/ilp32/libgcc/../../../../.././riscv-gcc/libgcc/soft-fp/addsf3.c:46 (discriminator 354)
   26314:	00090513          	mv	a0,s2
   26318:	049000ef          	jal	ra,26b60 <__clzsi2>
   2631c:	ffb50513          	addi	a0,a0,-5
   26320:	00a91933          	sll	s2,s2,a0
   26324:	04854063          	blt	a0,s0,26364 <__addsf3+0x3a8>
/home/hdg/Desktop/desktop/toolchain/riscv-gnu-toolchain/build-gcc-newlib-stage2/riscv64-vega-elf/rv32im/ilp32/libgcc/../../../../.././riscv-gcc/libgcc/soft-fp/addsf3.c:46 (discriminator 367)
   26328:	40850533          	sub	a0,a0,s0
   2632c:	00150513          	addi	a0,a0,1
   26330:	02000413          	li	s0,32
   26334:	00a957b3          	srl	a5,s2,a0
   26338:	40a40533          	sub	a0,s0,a0
   2633c:	00a91933          	sll	s2,s2,a0
   26340:	01203933          	snez	s2,s2
   26344:	0127e7b3          	or	a5,a5,s2
   26348:	00000413          	li	s0,0
   2634c:	e01ff06f          	j	2614c <__addsf3+0x190>
/home/hdg/Desktop/desktop/toolchain/riscv-gnu-toolchain/build-gcc-newlib-stage2/riscv64-vega-elf/rv32im/ilp32/libgcc/../../../../.././riscv-gcc/libgcc/soft-fp/addsf3.c:46 (discriminator 345)
   26350:	fc0912e3          	bnez	s2,26314 <__addsf3+0x358>
/home/hdg/Desktop/desktop/toolchain/riscv-gnu-toolchain/build-gcc-newlib-stage2/riscv64-vega-elf/rv32im/ilp32/libgcc/../../../../.././riscv-gcc/libgcc/soft-fp/addsf3.c:46
   26354:	00000793          	li	a5,0
   26358:	00000413          	li	s0,0
   2635c:	00000493          	li	s1,0
   26360:	0300006f          	j	26390 <__addsf3+0x3d4>
/home/hdg/Desktop/desktop/toolchain/riscv-gnu-toolchain/build-gcc-newlib-stage2/riscv64-vega-elf/rv32im/ilp32/libgcc/../../../../.././riscv-gcc/libgcc/soft-fp/addsf3.c:46 (discriminator 368)
   26364:	fc0007b7          	lui	a5,0xfc000
   26368:	fff78793          	addi	a5,a5,-1 # fbffffff <__global_pointer$+0xfbfd84bb>
   2636c:	40a40433          	sub	s0,s0,a0
   26370:	00f977b3          	and	a5,s2,a5
   26374:	dd9ff06f          	j	2614c <__addsf3+0x190>
/home/hdg/Desktop/desktop/toolchain/riscv-gnu-toolchain/build-gcc-newlib-stage2/riscv64-vega-elf/rv32im/ilp32/libgcc/../../../../.././riscv-gcc/libgcc/soft-fp/addsf3.c:45
   26378:	00070793          	mv	a5,a4
   2637c:	e15ff06f          	j	26190 <__addsf3+0x1d4>
   26380:	00070793          	mv	a5,a4
   26384:	dc9ff06f          	j	2614c <__addsf3+0x190>
   26388:	0ff00413          	li	s0,255
   2638c:	00000793          	li	a5,0
/home/hdg/Desktop/desktop/toolchain/riscv-gnu-toolchain/build-gcc-newlib-stage2/riscv64-vega-elf/rv32im/ilp32/libgcc/../../../../.././riscv-gcc/libgcc/soft-fp/addsf3.c:47 (discriminator 47)
   26390:	04000737          	lui	a4,0x4000
   26394:	00e7f733          	and	a4,a5,a4
   26398:	00070e63          	beqz	a4,263b4 <__addsf3+0x3f8>
/home/hdg/Desktop/desktop/toolchain/riscv-gnu-toolchain/build-gcc-newlib-stage2/riscv64-vega-elf/rv32im/ilp32/libgcc/../../../../.././riscv-gcc/libgcc/soft-fp/addsf3.c:47 (discriminator 63)
   2639c:	00140413          	addi	s0,s0,1
   263a0:	0ff00713          	li	a4,255
   263a4:	06e40663          	beq	s0,a4,26410 <__addsf3+0x454>
/home/hdg/Desktop/desktop/toolchain/riscv-gnu-toolchain/build-gcc-newlib-stage2/riscv64-vega-elf/rv32im/ilp32/libgcc/../../../../.././riscv-gcc/libgcc/soft-fp/addsf3.c:47
   263a8:	fc000737          	lui	a4,0xfc000
   263ac:	fff70713          	addi	a4,a4,-1 # fbffffff <__global_pointer$+0xfbfd84bb>
   263b0:	00e7f7b3          	and	a5,a5,a4
/home/hdg/Desktop/desktop/toolchain/riscv-gnu-toolchain/build-gcc-newlib-stage2/riscv64-vega-elf/rv32im/ilp32/libgcc/../../../../.././riscv-gcc/libgcc/soft-fp/addsf3.c:47 (discriminator 79)
   263b4:	0ff00713          	li	a4,255
   263b8:	0037d793          	srli	a5,a5,0x3
   263bc:	00e41863          	bne	s0,a4,263cc <__addsf3+0x410>
/home/hdg/Desktop/desktop/toolchain/riscv-gnu-toolchain/build-gcc-newlib-stage2/riscv64-vega-elf/rv32im/ilp32/libgcc/../../../../.././riscv-gcc/libgcc/soft-fp/addsf3.c:47 (discriminator 80)
   263c0:	00078663          	beqz	a5,263cc <__addsf3+0x410>
/home/hdg/Desktop/desktop/toolchain/riscv-gnu-toolchain/build-gcc-newlib-stage2/riscv64-vega-elf/rv32im/ilp32/libgcc/../../../../.././riscv-gcc/libgcc/soft-fp/addsf3.c:47
   263c4:	004007b7          	lui	a5,0x400
   263c8:	00000493          	li	s1,0
/home/hdg/Desktop/desktop/toolchain/riscv-gnu-toolchain/build-gcc-newlib-stage2/riscv64-vega-elf/rv32im/ilp32/libgcc/../../../../.././riscv-gcc/libgcc/soft-fp/addsf3.c:47 (discriminator 90)
   263cc:	7f800537          	lui	a0,0x7f800
   263d0:	01741413          	slli	s0,s0,0x17
   263d4:	00979793          	slli	a5,a5,0x9
   263d8:	00a47433          	and	s0,s0,a0
   263dc:	0097d793          	srli	a5,a5,0x9
/home/hdg/Desktop/desktop/toolchain/riscv-gnu-toolchain/build-gcc-newlib-stage2/riscv64-vega-elf/rv32im/ilp32/libgcc/../../../../.././riscv-gcc/libgcc/soft-fp/addsf3.c:51 (discriminator 90)
   263e0:	00c12083          	lw	ra,12(sp)
/home/hdg/Desktop/desktop/toolchain/riscv-gnu-toolchain/build-gcc-newlib-stage2/riscv64-vega-elf/rv32im/ilp32/libgcc/../../../../.././riscv-gcc/libgcc/soft-fp/addsf3.c:47 (discriminator 90)
   263e4:	00f467b3          	or	a5,s0,a5
/home/hdg/Desktop/desktop/toolchain/riscv-gnu-toolchain/build-gcc-newlib-stage2/riscv64-vega-elf/rv32im/ilp32/libgcc/../../../../.././riscv-gcc/libgcc/soft-fp/addsf3.c:51 (discriminator 90)
   263e8:	00812403          	lw	s0,8(sp)
/home/hdg/Desktop/desktop/toolchain/riscv-gnu-toolchain/build-gcc-newlib-stage2/riscv64-vega-elf/rv32im/ilp32/libgcc/../../../../.././riscv-gcc/libgcc/soft-fp/addsf3.c:47 (discriminator 90)
   263ec:	01f49513          	slli	a0,s1,0x1f
/home/hdg/Desktop/desktop/toolchain/riscv-gnu-toolchain/build-gcc-newlib-stage2/riscv64-vega-elf/rv32im/ilp32/libgcc/../../../../.././riscv-gcc/libgcc/soft-fp/addsf3.c:51 (discriminator 90)
   263f0:	00012903          	lw	s2,0(sp)
   263f4:	00412483          	lw	s1,4(sp)
   263f8:	00a7e533          	or	a0,a5,a0
   263fc:	01010113          	addi	sp,sp,16
   26400:	00008067          	ret
/home/hdg/Desktop/desktop/toolchain/riscv-gnu-toolchain/build-gcc-newlib-stage2/riscv64-vega-elf/rv32im/ilp32/libgcc/../../../../.././riscv-gcc/libgcc/soft-fp/addsf3.c:45
   26404:	00070793          	mv	a5,a4
/home/hdg/Desktop/desktop/toolchain/riscv-gnu-toolchain/build-gcc-newlib-stage2/riscv64-vega-elf/rv32im/ilp32/libgcc/../../../../.././riscv-gcc/libgcc/soft-fp/addsf3.c:46
   26408:	00068413          	mv	s0,a3
   2640c:	eadff06f          	j	262b8 <__addsf3+0x2fc>
   26410:	00000793          	li	a5,0
   26414:	fa1ff06f          	j	263b4 <__addsf3+0x3f8>

00026418 <__divsf3>:
__divsf3():
/home/hdg/Desktop/desktop/toolchain/riscv-gnu-toolchain/build-gcc-newlib-stage2/riscv64-vega-elf/rv32im/ilp32/libgcc/../../../../.././riscv-gcc/libgcc/soft-fp/divsf3.c:36
   26418:	fe010113          	addi	sp,sp,-32
   2641c:	00912a23          	sw	s1,20(sp)
   26420:	01755493          	srli	s1,a0,0x17
   26424:	01212823          	sw	s2,16(sp)
   26428:	01312623          	sw	s3,12(sp)
   2642c:	01412423          	sw	s4,8(sp)
/home/hdg/Desktop/desktop/toolchain/riscv-gnu-toolchain/build-gcc-newlib-stage2/riscv64-vega-elf/rv32im/ilp32/libgcc/../../../../.././riscv-gcc/libgcc/soft-fp/divsf3.c:44
   26430:	00951993          	slli	s3,a0,0x9
/home/hdg/Desktop/desktop/toolchain/riscv-gnu-toolchain/build-gcc-newlib-stage2/riscv64-vega-elf/rv32im/ilp32/libgcc/../../../../.././riscv-gcc/libgcc/soft-fp/divsf3.c:36
   26434:	00112e23          	sw	ra,28(sp)
   26438:	00812c23          	sw	s0,24(sp)
   2643c:	01512223          	sw	s5,4(sp)
   26440:	0ff4f493          	andi	s1,s1,255
   26444:	00058a13          	mv	s4,a1
/home/hdg/Desktop/desktop/toolchain/riscv-gnu-toolchain/build-gcc-newlib-stage2/riscv64-vega-elf/rv32im/ilp32/libgcc/../../../../.././riscv-gcc/libgcc/soft-fp/divsf3.c:44
   26448:	0099d993          	srli	s3,s3,0x9
   2644c:	01f55913          	srli	s2,a0,0x1f
   26450:	08048663          	beqz	s1,264dc <__divsf3+0xc4>
   26454:	0ff00793          	li	a5,255
   26458:	0af48263          	beq	s1,a5,264fc <__divsf3+0xe4>
/home/hdg/Desktop/desktop/toolchain/riscv-gnu-toolchain/build-gcc-newlib-stage2/riscv64-vega-elf/rv32im/ilp32/libgcc/../../../../.././riscv-gcc/libgcc/soft-fp/divsf3.c:44 (discriminator 1)
   2645c:	00399993          	slli	s3,s3,0x3
   26460:	040007b7          	lui	a5,0x4000
   26464:	00f9e9b3          	or	s3,s3,a5
   26468:	f8148493          	addi	s1,s1,-127 # 7ff81 <__global_pointer$+0x5843d>
/home/hdg/Desktop/desktop/toolchain/riscv-gnu-toolchain/build-gcc-newlib-stage2/riscv64-vega-elf/rv32im/ilp32/libgcc/../../../../.././riscv-gcc/libgcc/soft-fp/divsf3.c:44 (discriminator 15)
   2646c:	00000a93          	li	s5,0
/home/hdg/Desktop/desktop/toolchain/riscv-gnu-toolchain/build-gcc-newlib-stage2/riscv64-vega-elf/rv32im/ilp32/libgcc/../../../../.././riscv-gcc/libgcc/soft-fp/divsf3.c:45 (discriminator 8)
   26470:	017a5513          	srli	a0,s4,0x17
   26474:	009a1413          	slli	s0,s4,0x9
   26478:	0ff57513          	andi	a0,a0,255
   2647c:	00945413          	srli	s0,s0,0x9
   26480:	01fa5a13          	srli	s4,s4,0x1f
   26484:	08050c63          	beqz	a0,2651c <__divsf3+0x104>
/home/hdg/Desktop/desktop/toolchain/riscv-gnu-toolchain/build-gcc-newlib-stage2/riscv64-vega-elf/rv32im/ilp32/libgcc/../../../../.././riscv-gcc/libgcc/soft-fp/divsf3.c:45
   26488:	0ff00793          	li	a5,255
   2648c:	0af50863          	beq	a0,a5,2653c <__divsf3+0x124>
/home/hdg/Desktop/desktop/toolchain/riscv-gnu-toolchain/build-gcc-newlib-stage2/riscv64-vega-elf/rv32im/ilp32/libgcc/../../../../.././riscv-gcc/libgcc/soft-fp/divsf3.c:45 (discriminator 1)
   26490:	00341413          	slli	s0,s0,0x3
   26494:	040007b7          	lui	a5,0x4000
   26498:	00f46433          	or	s0,s0,a5
   2649c:	f8150513          	addi	a0,a0,-127 # 7f7fff81 <__global_pointer$+0x7f7d843d>
/home/hdg/Desktop/desktop/toolchain/riscv-gnu-toolchain/build-gcc-newlib-stage2/riscv64-vega-elf/rv32im/ilp32/libgcc/../../../../.././riscv-gcc/libgcc/soft-fp/divsf3.c:45 (discriminator 15)
   264a0:	00000793          	li	a5,0
/home/hdg/Desktop/desktop/toolchain/riscv-gnu-toolchain/build-gcc-newlib-stage2/riscv64-vega-elf/rv32im/ilp32/libgcc/../../../../.././riscv-gcc/libgcc/soft-fp/divsf3.c:46 (discriminator 8)
   264a4:	002a9693          	slli	a3,s5,0x2
   264a8:	00f6e6b3          	or	a3,a3,a5
   264ac:	fff68693          	addi	a3,a3,-1 # 3ffffff <__global_pointer$+0x3fd84bb>
   264b0:	00e00713          	li	a4,14
   264b4:	01494633          	xor	a2,s2,s4
   264b8:	40a48533          	sub	a0,s1,a0
   264bc:	0ad76063          	bltu	a4,a3,2655c <__divsf3+0x144>
   264c0:	00001597          	auipc	a1,0x1
   264c4:	cd058593          	addi	a1,a1,-816 # 27190 <main+0x5e4>
   264c8:	00269693          	slli	a3,a3,0x2
   264cc:	00b686b3          	add	a3,a3,a1
   264d0:	0006a703          	lw	a4,0(a3)
   264d4:	00b70733          	add	a4,a4,a1
   264d8:	00070067          	jr	a4
/home/hdg/Desktop/desktop/toolchain/riscv-gnu-toolchain/build-gcc-newlib-stage2/riscv64-vega-elf/rv32im/ilp32/libgcc/../../../../.././riscv-gcc/libgcc/soft-fp/divsf3.c:44 (discriminator 2)
   264dc:	02098a63          	beqz	s3,26510 <__divsf3+0xf8>
/home/hdg/Desktop/desktop/toolchain/riscv-gnu-toolchain/build-gcc-newlib-stage2/riscv64-vega-elf/rv32im/ilp32/libgcc/../../../../.././riscv-gcc/libgcc/soft-fp/divsf3.c:44 (discriminator 15)
   264e0:	00098513          	mv	a0,s3
   264e4:	67c000ef          	jal	ra,26b60 <__clzsi2>
   264e8:	ffb50793          	addi	a5,a0,-5
   264ec:	f8a00493          	li	s1,-118
   264f0:	00f999b3          	sll	s3,s3,a5
   264f4:	40a484b3          	sub	s1,s1,a0
   264f8:	f75ff06f          	j	2646c <__divsf3+0x54>
/home/hdg/Desktop/desktop/toolchain/riscv-gnu-toolchain/build-gcc-newlib-stage2/riscv64-vega-elf/rv32im/ilp32/libgcc/../../../../.././riscv-gcc/libgcc/soft-fp/divsf3.c:44 (discriminator 3)
   264fc:	0ff00493          	li	s1,255
   26500:	00200a93          	li	s5,2
   26504:	f60986e3          	beqz	s3,26470 <__divsf3+0x58>
/home/hdg/Desktop/desktop/toolchain/riscv-gnu-toolchain/build-gcc-newlib-stage2/riscv64-vega-elf/rv32im/ilp32/libgcc/../../../../.././riscv-gcc/libgcc/soft-fp/divsf3.c:44
   26508:	00300a93          	li	s5,3
   2650c:	f65ff06f          	j	26470 <__divsf3+0x58>
   26510:	00000493          	li	s1,0
   26514:	00100a93          	li	s5,1
   26518:	f59ff06f          	j	26470 <__divsf3+0x58>
/home/hdg/Desktop/desktop/toolchain/riscv-gnu-toolchain/build-gcc-newlib-stage2/riscv64-vega-elf/rv32im/ilp32/libgcc/../../../../.././riscv-gcc/libgcc/soft-fp/divsf3.c:45 (discriminator 2)
   2651c:	02040a63          	beqz	s0,26550 <__divsf3+0x138>
/home/hdg/Desktop/desktop/toolchain/riscv-gnu-toolchain/build-gcc-newlib-stage2/riscv64-vega-elf/rv32im/ilp32/libgcc/../../../../.././riscv-gcc/libgcc/soft-fp/divsf3.c:45 (discriminator 15)
   26520:	00040513          	mv	a0,s0
   26524:	63c000ef          	jal	ra,26b60 <__clzsi2>
   26528:	ffb50793          	addi	a5,a0,-5
   2652c:	00f41433          	sll	s0,s0,a5
   26530:	f8a00793          	li	a5,-118
   26534:	40a78533          	sub	a0,a5,a0
   26538:	f69ff06f          	j	264a0 <__divsf3+0x88>
/home/hdg/Desktop/desktop/toolchain/riscv-gnu-toolchain/build-gcc-newlib-stage2/riscv64-vega-elf/rv32im/ilp32/libgcc/../../../../.././riscv-gcc/libgcc/soft-fp/divsf3.c:45 (discriminator 3)
   2653c:	0ff00513          	li	a0,255
   26540:	00200793          	li	a5,2
   26544:	f60400e3          	beqz	s0,264a4 <__divsf3+0x8c>
/home/hdg/Desktop/desktop/toolchain/riscv-gnu-toolchain/build-gcc-newlib-stage2/riscv64-vega-elf/rv32im/ilp32/libgcc/../../../../.././riscv-gcc/libgcc/soft-fp/divsf3.c:45
   26548:	00300793          	li	a5,3
   2654c:	f59ff06f          	j	264a4 <__divsf3+0x8c>
   26550:	00000513          	li	a0,0
   26554:	00100793          	li	a5,1
   26558:	f4dff06f          	j	264a4 <__divsf3+0x8c>
/home/hdg/Desktop/desktop/toolchain/riscv-gnu-toolchain/build-gcc-newlib-stage2/riscv64-vega-elf/rv32im/ilp32/libgcc/../../../../.././riscv-gcc/libgcc/soft-fp/divsf3.c:46 (discriminator 2)
   2655c:	00541813          	slli	a6,s0,0x5
   26560:	1289f463          	bgeu	s3,s0,26688 <__divsf3+0x270>
/home/hdg/Desktop/desktop/toolchain/riscv-gnu-toolchain/build-gcc-newlib-stage2/riscv64-vega-elf/rv32im/ilp32/libgcc/../../../../.././riscv-gcc/libgcc/soft-fp/divsf3.c:46 (discriminator 10)
   26564:	fff50513          	addi	a0,a0,-1
   26568:	00000693          	li	a3,0
/home/hdg/Desktop/desktop/toolchain/riscv-gnu-toolchain/build-gcc-newlib-stage2/riscv64-vega-elf/rv32im/ilp32/libgcc/../../../../.././riscv-gcc/libgcc/soft-fp/divsf3.c:46 (discriminator 13)
   2656c:	01085413          	srli	s0,a6,0x10
   26570:	0289d333          	divu	t1,s3,s0
   26574:	000107b7          	lui	a5,0x10
   26578:	fff78793          	addi	a5,a5,-1 # ffff <_tbss_end+0xffff>
   2657c:	00f877b3          	and	a5,a6,a5
   26580:	0106d693          	srli	a3,a3,0x10
   26584:	0289f733          	remu	a4,s3,s0
   26588:	00030593          	mv	a1,t1
   2658c:	026788b3          	mul	a7,a5,t1
   26590:	01071713          	slli	a4,a4,0x10
   26594:	00e6e733          	or	a4,a3,a4
   26598:	01177e63          	bgeu	a4,a7,265b4 <__divsf3+0x19c>
/home/hdg/Desktop/desktop/toolchain/riscv-gnu-toolchain/build-gcc-newlib-stage2/riscv64-vega-elf/rv32im/ilp32/libgcc/../../../../.././riscv-gcc/libgcc/soft-fp/divsf3.c:46 (discriminator 14)
   2659c:	01070733          	add	a4,a4,a6
   265a0:	fff30593          	addi	a1,t1,-1 # ffff <_tbss_end+0xffff>
   265a4:	01076863          	bltu	a4,a6,265b4 <__divsf3+0x19c>
/home/hdg/Desktop/desktop/toolchain/riscv-gnu-toolchain/build-gcc-newlib-stage2/riscv64-vega-elf/rv32im/ilp32/libgcc/../../../../.././riscv-gcc/libgcc/soft-fp/divsf3.c:46 (discriminator 16)
   265a8:	01177663          	bgeu	a4,a7,265b4 <__divsf3+0x19c>
/home/hdg/Desktop/desktop/toolchain/riscv-gnu-toolchain/build-gcc-newlib-stage2/riscv64-vega-elf/rv32im/ilp32/libgcc/../../../../.././riscv-gcc/libgcc/soft-fp/divsf3.c:46 (discriminator 18)
   265ac:	ffe30593          	addi	a1,t1,-2
   265b0:	01070733          	add	a4,a4,a6
/home/hdg/Desktop/desktop/toolchain/riscv-gnu-toolchain/build-gcc-newlib-stage2/riscv64-vega-elf/rv32im/ilp32/libgcc/../../../../.././riscv-gcc/libgcc/soft-fp/divsf3.c:46 (discriminator 20)
   265b4:	41170733          	sub	a4,a4,a7
   265b8:	028758b3          	divu	a7,a4,s0
   265bc:	02877733          	remu	a4,a4,s0
   265c0:	031786b3          	mul	a3,a5,a7
   265c4:	01071793          	slli	a5,a4,0x10
   265c8:	00088713          	mv	a4,a7
   265cc:	00d7fe63          	bgeu	a5,a3,265e8 <__divsf3+0x1d0>
/home/hdg/Desktop/desktop/toolchain/riscv-gnu-toolchain/build-gcc-newlib-stage2/riscv64-vega-elf/rv32im/ilp32/libgcc/../../../../.././riscv-gcc/libgcc/soft-fp/divsf3.c:46 (discriminator 21)
   265d0:	010787b3          	add	a5,a5,a6
   265d4:	fff88713          	addi	a4,a7,-1 # 7fffff <__global_pointer$+0x7d84bb>
   265d8:	0107e863          	bltu	a5,a6,265e8 <__divsf3+0x1d0>
/home/hdg/Desktop/desktop/toolchain/riscv-gnu-toolchain/build-gcc-newlib-stage2/riscv64-vega-elf/rv32im/ilp32/libgcc/../../../../.././riscv-gcc/libgcc/soft-fp/divsf3.c:46 (discriminator 23)
   265dc:	00d7f663          	bgeu	a5,a3,265e8 <__divsf3+0x1d0>
/home/hdg/Desktop/desktop/toolchain/riscv-gnu-toolchain/build-gcc-newlib-stage2/riscv64-vega-elf/rv32im/ilp32/libgcc/../../../../.././riscv-gcc/libgcc/soft-fp/divsf3.c:46 (discriminator 25)
   265e0:	ffe88713          	addi	a4,a7,-2
   265e4:	010787b3          	add	a5,a5,a6
/home/hdg/Desktop/desktop/toolchain/riscv-gnu-toolchain/build-gcc-newlib-stage2/riscv64-vega-elf/rv32im/ilp32/libgcc/../../../../.././riscv-gcc/libgcc/soft-fp/divsf3.c:46 (discriminator 27)
   265e8:	01059413          	slli	s0,a1,0x10
   265ec:	40d787b3          	sub	a5,a5,a3
   265f0:	00e46433          	or	s0,s0,a4
   265f4:	00f037b3          	snez	a5,a5
   265f8:	00f46433          	or	s0,s0,a5
/home/hdg/Desktop/desktop/toolchain/riscv-gnu-toolchain/build-gcc-newlib-stage2/riscv64-vega-elf/rv32im/ilp32/libgcc/../../../../.././riscv-gcc/libgcc/soft-fp/divsf3.c:47 (discriminator 2)
   265fc:	07f50713          	addi	a4,a0,127
   26600:	0ce05e63          	blez	a4,266dc <__divsf3+0x2c4>
/home/hdg/Desktop/desktop/toolchain/riscv-gnu-toolchain/build-gcc-newlib-stage2/riscv64-vega-elf/rv32im/ilp32/libgcc/../../../../.././riscv-gcc/libgcc/soft-fp/divsf3.c:47 (discriminator 6)
   26604:	00747793          	andi	a5,s0,7
   26608:	00078a63          	beqz	a5,2661c <__divsf3+0x204>
/home/hdg/Desktop/desktop/toolchain/riscv-gnu-toolchain/build-gcc-newlib-stage2/riscv64-vega-elf/rv32im/ilp32/libgcc/../../../../.././riscv-gcc/libgcc/soft-fp/divsf3.c:47 (discriminator 8)
   2660c:	00f47793          	andi	a5,s0,15
   26610:	00400693          	li	a3,4
   26614:	00d78463          	beq	a5,a3,2661c <__divsf3+0x204>
/home/hdg/Desktop/desktop/toolchain/riscv-gnu-toolchain/build-gcc-newlib-stage2/riscv64-vega-elf/rv32im/ilp32/libgcc/../../../../.././riscv-gcc/libgcc/soft-fp/divsf3.c:47 (discriminator 10)
   26618:	00440413          	addi	s0,s0,4
/home/hdg/Desktop/desktop/toolchain/riscv-gnu-toolchain/build-gcc-newlib-stage2/riscv64-vega-elf/rv32im/ilp32/libgcc/../../../../.././riscv-gcc/libgcc/soft-fp/divsf3.c:47 (discriminator 9)
   2661c:	080007b7          	lui	a5,0x8000
   26620:	00f477b3          	and	a5,s0,a5
   26624:	00078a63          	beqz	a5,26638 <__divsf3+0x220>
/home/hdg/Desktop/desktop/toolchain/riscv-gnu-toolchain/build-gcc-newlib-stage2/riscv64-vega-elf/rv32im/ilp32/libgcc/../../../../.././riscv-gcc/libgcc/soft-fp/divsf3.c:47 (discriminator 24)
   26628:	f80007b7          	lui	a5,0xf8000
   2662c:	fff78793          	addi	a5,a5,-1 # f7ffffff <__global_pointer$+0xf7fd84bb>
   26630:	00f47433          	and	s0,s0,a5
   26634:	08050713          	addi	a4,a0,128
/home/hdg/Desktop/desktop/toolchain/riscv-gnu-toolchain/build-gcc-newlib-stage2/riscv64-vega-elf/rv32im/ilp32/libgcc/../../../../.././riscv-gcc/libgcc/soft-fp/divsf3.c:47 (discriminator 26)
   26638:	0fe00793          	li	a5,254
   2663c:	00345413          	srli	s0,s0,0x3
   26640:	06e7cc63          	blt	a5,a4,266b8 <__divsf3+0x2a0>
/home/hdg/Desktop/desktop/toolchain/riscv-gnu-toolchain/build-gcc-newlib-stage2/riscv64-vega-elf/rv32im/ilp32/libgcc/../../../../.././riscv-gcc/libgcc/soft-fp/divsf3.c:47 (discriminator 111)
   26644:	01771793          	slli	a5,a4,0x17
   26648:	00941413          	slli	s0,s0,0x9
   2664c:	7f800737          	lui	a4,0x7f800
   26650:	00e7f7b3          	and	a5,a5,a4
   26654:	00945413          	srli	s0,s0,0x9
   26658:	0087e433          	or	s0,a5,s0
   2665c:	01f61513          	slli	a0,a2,0x1f
/home/hdg/Desktop/desktop/toolchain/riscv-gnu-toolchain/build-gcc-newlib-stage2/riscv64-vega-elf/rv32im/ilp32/libgcc/../../../../.././riscv-gcc/libgcc/soft-fp/divsf3.c:51 (discriminator 111)
   26660:	01c12083          	lw	ra,28(sp)
   26664:	00a46533          	or	a0,s0,a0
   26668:	01812403          	lw	s0,24(sp)
   2666c:	01412483          	lw	s1,20(sp)
   26670:	01012903          	lw	s2,16(sp)
   26674:	00c12983          	lw	s3,12(sp)
   26678:	00812a03          	lw	s4,8(sp)
   2667c:	00412a83          	lw	s5,4(sp)
   26680:	02010113          	addi	sp,sp,32
   26684:	00008067          	ret
/home/hdg/Desktop/desktop/toolchain/riscv-gnu-toolchain/build-gcc-newlib-stage2/riscv64-vega-elf/rv32im/ilp32/libgcc/../../../../.././riscv-gcc/libgcc/soft-fp/divsf3.c:46 (discriminator 11)
   26688:	01f99693          	slli	a3,s3,0x1f
   2668c:	0019d993          	srli	s3,s3,0x1
   26690:	eddff06f          	j	2656c <__divsf3+0x154>
/home/hdg/Desktop/desktop/toolchain/riscv-gnu-toolchain/build-gcc-newlib-stage2/riscv64-vega-elf/rv32im/ilp32/libgcc/../../../../.././riscv-gcc/libgcc/soft-fp/divsf3.c:44 (discriminator 8)
   26694:	00090613          	mv	a2,s2
/home/hdg/Desktop/desktop/toolchain/riscv-gnu-toolchain/build-gcc-newlib-stage2/riscv64-vega-elf/rv32im/ilp32/libgcc/../../../../.././riscv-gcc/libgcc/soft-fp/divsf3.c:46 (discriminator 8)
   26698:	00098413          	mv	s0,s3
   2669c:	000a8793          	mv	a5,s5
/home/hdg/Desktop/desktop/toolchain/riscv-gnu-toolchain/build-gcc-newlib-stage2/riscv64-vega-elf/rv32im/ilp32/libgcc/../../../../.././riscv-gcc/libgcc/soft-fp/divsf3.c:47 (discriminator 35)
   266a0:	00300713          	li	a4,3
   266a4:	08e78863          	beq	a5,a4,26734 <__divsf3+0x31c>
/home/hdg/Desktop/desktop/toolchain/riscv-gnu-toolchain/build-gcc-newlib-stage2/riscv64-vega-elf/rv32im/ilp32/libgcc/../../../../.././riscv-gcc/libgcc/soft-fp/divsf3.c:47
   266a8:	00100713          	li	a4,1
   266ac:	08e78c63          	beq	a5,a4,26744 <__divsf3+0x32c>
   266b0:	00200713          	li	a4,2
   266b4:	f4e794e3          	bne	a5,a4,265fc <__divsf3+0x1e4>
   266b8:	00000413          	li	s0,0
   266bc:	0ff00713          	li	a4,255
   266c0:	f85ff06f          	j	26644 <__divsf3+0x22c>
/home/hdg/Desktop/desktop/toolchain/riscv-gnu-toolchain/build-gcc-newlib-stage2/riscv64-vega-elf/rv32im/ilp32/libgcc/../../../../.././riscv-gcc/libgcc/soft-fp/divsf3.c:45 (discriminator 5)
   266c4:	000a0613          	mv	a2,s4
/home/hdg/Desktop/desktop/toolchain/riscv-gnu-toolchain/build-gcc-newlib-stage2/riscv64-vega-elf/rv32im/ilp32/libgcc/../../../../.././riscv-gcc/libgcc/soft-fp/divsf3.c:46 (discriminator 5)
   266c8:	fd9ff06f          	j	266a0 <__divsf3+0x288>
/home/hdg/Desktop/desktop/toolchain/riscv-gnu-toolchain/build-gcc-newlib-stage2/riscv64-vega-elf/rv32im/ilp32/libgcc/../../../../.././riscv-gcc/libgcc/soft-fp/divsf3.c:46
   266cc:	00400437          	lui	s0,0x400
   266d0:	00000613          	li	a2,0
   266d4:	00300793          	li	a5,3
   266d8:	fc9ff06f          	j	266a0 <__divsf3+0x288>
/home/hdg/Desktop/desktop/toolchain/riscv-gnu-toolchain/build-gcc-newlib-stage2/riscv64-vega-elf/rv32im/ilp32/libgcc/../../../../.././riscv-gcc/libgcc/soft-fp/divsf3.c:47 (discriminator 59)
   266dc:	00100793          	li	a5,1
   266e0:	40e787b3          	sub	a5,a5,a4
   266e4:	01b00713          	li	a4,27
   266e8:	04f74e63          	blt	a4,a5,26744 <__divsf3+0x32c>
/home/hdg/Desktop/desktop/toolchain/riscv-gnu-toolchain/build-gcc-newlib-stage2/riscv64-vega-elf/rv32im/ilp32/libgcc/../../../../.././riscv-gcc/libgcc/soft-fp/divsf3.c:47 (discriminator 60)
   266ec:	09e50513          	addi	a0,a0,158
   266f0:	00f457b3          	srl	a5,s0,a5
   266f4:	00a41433          	sll	s0,s0,a0
   266f8:	00803433          	snez	s0,s0
   266fc:	0087e433          	or	s0,a5,s0
   26700:	00747793          	andi	a5,s0,7
   26704:	00078a63          	beqz	a5,26718 <__divsf3+0x300>
/home/hdg/Desktop/desktop/toolchain/riscv-gnu-toolchain/build-gcc-newlib-stage2/riscv64-vega-elf/rv32im/ilp32/libgcc/../../../../.././riscv-gcc/libgcc/soft-fp/divsf3.c:47 (discriminator 68)
   26708:	00f47793          	andi	a5,s0,15
   2670c:	00400713          	li	a4,4
   26710:	00e78463          	beq	a5,a4,26718 <__divsf3+0x300>
/home/hdg/Desktop/desktop/toolchain/riscv-gnu-toolchain/build-gcc-newlib-stage2/riscv64-vega-elf/rv32im/ilp32/libgcc/../../../../.././riscv-gcc/libgcc/soft-fp/divsf3.c:47 (discriminator 70)
   26714:	00440413          	addi	s0,s0,4 # 400004 <__global_pointer$+0x3d84c0>
/home/hdg/Desktop/desktop/toolchain/riscv-gnu-toolchain/build-gcc-newlib-stage2/riscv64-vega-elf/rv32im/ilp32/libgcc/../../../../.././riscv-gcc/libgcc/soft-fp/divsf3.c:47 (discriminator 69)
   26718:	040007b7          	lui	a5,0x4000
   2671c:	00f477b3          	and	a5,s0,a5
   26720:	00345413          	srli	s0,s0,0x3
   26724:	02078263          	beqz	a5,26748 <__divsf3+0x330>
/home/hdg/Desktop/desktop/toolchain/riscv-gnu-toolchain/build-gcc-newlib-stage2/riscv64-vega-elf/rv32im/ilp32/libgcc/../../../../.././riscv-gcc/libgcc/soft-fp/divsf3.c:47
   26728:	00000413          	li	s0,0
   2672c:	00100713          	li	a4,1
   26730:	f15ff06f          	j	26644 <__divsf3+0x22c>
   26734:	00400437          	lui	s0,0x400
   26738:	0ff00713          	li	a4,255
   2673c:	00000613          	li	a2,0
   26740:	f05ff06f          	j	26644 <__divsf3+0x22c>
   26744:	00000413          	li	s0,0
   26748:	00000713          	li	a4,0
   2674c:	ef9ff06f          	j	26644 <__divsf3+0x22c>

00026750 <__mulsf3>:
__mulsf3():
/home/hdg/Desktop/desktop/toolchain/riscv-gnu-toolchain/build-gcc-newlib-stage2/riscv64-vega-elf/rv32im/ilp32/libgcc/../../../../.././riscv-gcc/libgcc/soft-fp/mulsf3.c:36
   26750:	fe010113          	addi	sp,sp,-32
   26754:	01212823          	sw	s2,16(sp)
   26758:	01755913          	srli	s2,a0,0x17
   2675c:	00912a23          	sw	s1,20(sp)
   26760:	01312623          	sw	s3,12(sp)
   26764:	01412423          	sw	s4,8(sp)
/home/hdg/Desktop/desktop/toolchain/riscv-gnu-toolchain/build-gcc-newlib-stage2/riscv64-vega-elf/rv32im/ilp32/libgcc/../../../../.././riscv-gcc/libgcc/soft-fp/mulsf3.c:44
   26768:	00951493          	slli	s1,a0,0x9
/home/hdg/Desktop/desktop/toolchain/riscv-gnu-toolchain/build-gcc-newlib-stage2/riscv64-vega-elf/rv32im/ilp32/libgcc/../../../../.././riscv-gcc/libgcc/soft-fp/mulsf3.c:36
   2676c:	00112e23          	sw	ra,28(sp)
   26770:	00812c23          	sw	s0,24(sp)
   26774:	01512223          	sw	s5,4(sp)
   26778:	0ff97913          	andi	s2,s2,255
   2677c:	00058a13          	mv	s4,a1
/home/hdg/Desktop/desktop/toolchain/riscv-gnu-toolchain/build-gcc-newlib-stage2/riscv64-vega-elf/rv32im/ilp32/libgcc/../../../../.././riscv-gcc/libgcc/soft-fp/mulsf3.c:44
   26780:	0094d493          	srli	s1,s1,0x9
   26784:	01f55993          	srli	s3,a0,0x1f
   26788:	08090863          	beqz	s2,26818 <__mulsf3+0xc8>
   2678c:	0ff00793          	li	a5,255
   26790:	0af90463          	beq	s2,a5,26838 <__mulsf3+0xe8>
/home/hdg/Desktop/desktop/toolchain/riscv-gnu-toolchain/build-gcc-newlib-stage2/riscv64-vega-elf/rv32im/ilp32/libgcc/../../../../.././riscv-gcc/libgcc/soft-fp/mulsf3.c:44 (discriminator 1)
   26794:	00349493          	slli	s1,s1,0x3
   26798:	040007b7          	lui	a5,0x4000
   2679c:	00f4e4b3          	or	s1,s1,a5
   267a0:	f8190913          	addi	s2,s2,-127
/home/hdg/Desktop/desktop/toolchain/riscv-gnu-toolchain/build-gcc-newlib-stage2/riscv64-vega-elf/rv32im/ilp32/libgcc/../../../../.././riscv-gcc/libgcc/soft-fp/mulsf3.c:44 (discriminator 15)
   267a4:	00000a93          	li	s5,0
/home/hdg/Desktop/desktop/toolchain/riscv-gnu-toolchain/build-gcc-newlib-stage2/riscv64-vega-elf/rv32im/ilp32/libgcc/../../../../.././riscv-gcc/libgcc/soft-fp/mulsf3.c:45 (discriminator 8)
   267a8:	017a5513          	srli	a0,s4,0x17
   267ac:	009a1413          	slli	s0,s4,0x9
   267b0:	0ff57513          	andi	a0,a0,255
   267b4:	00945413          	srli	s0,s0,0x9
   267b8:	01fa5a13          	srli	s4,s4,0x1f
   267bc:	08050e63          	beqz	a0,26858 <__mulsf3+0x108>
/home/hdg/Desktop/desktop/toolchain/riscv-gnu-toolchain/build-gcc-newlib-stage2/riscv64-vega-elf/rv32im/ilp32/libgcc/../../../../.././riscv-gcc/libgcc/soft-fp/mulsf3.c:45
   267c0:	0ff00793          	li	a5,255
   267c4:	0af50a63          	beq	a0,a5,26878 <__mulsf3+0x128>
/home/hdg/Desktop/desktop/toolchain/riscv-gnu-toolchain/build-gcc-newlib-stage2/riscv64-vega-elf/rv32im/ilp32/libgcc/../../../../.././riscv-gcc/libgcc/soft-fp/mulsf3.c:45 (discriminator 1)
   267c8:	00341413          	slli	s0,s0,0x3
   267cc:	040007b7          	lui	a5,0x4000
   267d0:	00f46433          	or	s0,s0,a5
   267d4:	f8150513          	addi	a0,a0,-127
/home/hdg/Desktop/desktop/toolchain/riscv-gnu-toolchain/build-gcc-newlib-stage2/riscv64-vega-elf/rv32im/ilp32/libgcc/../../../../.././riscv-gcc/libgcc/soft-fp/mulsf3.c:45 (discriminator 15)
   267d8:	00000793          	li	a5,0
/home/hdg/Desktop/desktop/toolchain/riscv-gnu-toolchain/build-gcc-newlib-stage2/riscv64-vega-elf/rv32im/ilp32/libgcc/../../../../.././riscv-gcc/libgcc/soft-fp/mulsf3.c:46 (discriminator 8)
   267dc:	002a9713          	slli	a4,s5,0x2
   267e0:	00f76733          	or	a4,a4,a5
   267e4:	00a90533          	add	a0,s2,a0
   267e8:	fff70713          	addi	a4,a4,-1 # 7f7fffff <__global_pointer$+0x7f7d84bb>
   267ec:	00e00593          	li	a1,14
   267f0:	0149c6b3          	xor	a3,s3,s4
   267f4:	00150613          	addi	a2,a0,1
   267f8:	0ae5e063          	bltu	a1,a4,26898 <__mulsf3+0x148>
   267fc:	00001597          	auipc	a1,0x1
   26800:	9d058593          	addi	a1,a1,-1584 # 271cc <main+0x620>
   26804:	00271713          	slli	a4,a4,0x2
   26808:	00b70733          	add	a4,a4,a1
   2680c:	00072703          	lw	a4,0(a4)
   26810:	00b70733          	add	a4,a4,a1
   26814:	00070067          	jr	a4
/home/hdg/Desktop/desktop/toolchain/riscv-gnu-toolchain/build-gcc-newlib-stage2/riscv64-vega-elf/rv32im/ilp32/libgcc/../../../../.././riscv-gcc/libgcc/soft-fp/mulsf3.c:44 (discriminator 2)
   26818:	02048a63          	beqz	s1,2684c <__mulsf3+0xfc>
/home/hdg/Desktop/desktop/toolchain/riscv-gnu-toolchain/build-gcc-newlib-stage2/riscv64-vega-elf/rv32im/ilp32/libgcc/../../../../.././riscv-gcc/libgcc/soft-fp/mulsf3.c:44 (discriminator 15)
   2681c:	00048513          	mv	a0,s1
   26820:	340000ef          	jal	ra,26b60 <__clzsi2>
   26824:	ffb50793          	addi	a5,a0,-5
   26828:	f8a00913          	li	s2,-118
   2682c:	00f494b3          	sll	s1,s1,a5
   26830:	40a90933          	sub	s2,s2,a0
   26834:	f71ff06f          	j	267a4 <__mulsf3+0x54>
/home/hdg/Desktop/desktop/toolchain/riscv-gnu-toolchain/build-gcc-newlib-stage2/riscv64-vega-elf/rv32im/ilp32/libgcc/../../../../.././riscv-gcc/libgcc/soft-fp/mulsf3.c:44 (discriminator 3)
   26838:	0ff00913          	li	s2,255
   2683c:	00200a93          	li	s5,2
   26840:	f60484e3          	beqz	s1,267a8 <__mulsf3+0x58>
/home/hdg/Desktop/desktop/toolchain/riscv-gnu-toolchain/build-gcc-newlib-stage2/riscv64-vega-elf/rv32im/ilp32/libgcc/../../../../.././riscv-gcc/libgcc/soft-fp/mulsf3.c:44
   26844:	00300a93          	li	s5,3
   26848:	f61ff06f          	j	267a8 <__mulsf3+0x58>
   2684c:	00000913          	li	s2,0
   26850:	00100a93          	li	s5,1
   26854:	f55ff06f          	j	267a8 <__mulsf3+0x58>
/home/hdg/Desktop/desktop/toolchain/riscv-gnu-toolchain/build-gcc-newlib-stage2/riscv64-vega-elf/rv32im/ilp32/libgcc/../../../../.././riscv-gcc/libgcc/soft-fp/mulsf3.c:45 (discriminator 2)
   26858:	02040a63          	beqz	s0,2688c <__mulsf3+0x13c>
/home/hdg/Desktop/desktop/toolchain/riscv-gnu-toolchain/build-gcc-newlib-stage2/riscv64-vega-elf/rv32im/ilp32/libgcc/../../../../.././riscv-gcc/libgcc/soft-fp/mulsf3.c:45 (discriminator 15)
   2685c:	00040513          	mv	a0,s0
   26860:	300000ef          	jal	ra,26b60 <__clzsi2>
   26864:	ffb50793          	addi	a5,a0,-5
   26868:	00f41433          	sll	s0,s0,a5
   2686c:	f8a00793          	li	a5,-118
   26870:	40a78533          	sub	a0,a5,a0
   26874:	f65ff06f          	j	267d8 <__mulsf3+0x88>
/home/hdg/Desktop/desktop/toolchain/riscv-gnu-toolchain/build-gcc-newlib-stage2/riscv64-vega-elf/rv32im/ilp32/libgcc/../../../../.././riscv-gcc/libgcc/soft-fp/mulsf3.c:45 (discriminator 3)
   26878:	0ff00513          	li	a0,255
   2687c:	00200793          	li	a5,2
   26880:	f4040ee3          	beqz	s0,267dc <__mulsf3+0x8c>
/home/hdg/Desktop/desktop/toolchain/riscv-gnu-toolchain/build-gcc-newlib-stage2/riscv64-vega-elf/rv32im/ilp32/libgcc/../../../../.././riscv-gcc/libgcc/soft-fp/mulsf3.c:45
   26884:	00300793          	li	a5,3
   26888:	f55ff06f          	j	267dc <__mulsf3+0x8c>
   2688c:	00000513          	li	a0,0
   26890:	00100793          	li	a5,1
   26894:	f49ff06f          	j	267dc <__mulsf3+0x8c>
/home/hdg/Desktop/desktop/toolchain/riscv-gnu-toolchain/build-gcc-newlib-stage2/riscv64-vega-elf/rv32im/ilp32/libgcc/../../../../.././riscv-gcc/libgcc/soft-fp/mulsf3.c:46 (discriminator 2)
   26898:	000107b7          	lui	a5,0x10
   2689c:	fff78313          	addi	t1,a5,-1 # ffff <_tbss_end+0xffff>
   268a0:	0104d713          	srli	a4,s1,0x10
   268a4:	01045593          	srli	a1,s0,0x10
   268a8:	0064f4b3          	and	s1,s1,t1
   268ac:	00647433          	and	s0,s0,t1
   268b0:	029408b3          	mul	a7,s0,s1
   268b4:	02870833          	mul	a6,a4,s0
   268b8:	02b70433          	mul	s0,a4,a1
   268bc:	029585b3          	mul	a1,a1,s1
   268c0:	0108d493          	srli	s1,a7,0x10
   268c4:	010585b3          	add	a1,a1,a6
   268c8:	00b484b3          	add	s1,s1,a1
   268cc:	0104f463          	bgeu	s1,a6,268d4 <__mulsf3+0x184>
/home/hdg/Desktop/desktop/toolchain/riscv-gnu-toolchain/build-gcc-newlib-stage2/riscv64-vega-elf/rv32im/ilp32/libgcc/../../../../.././riscv-gcc/libgcc/soft-fp/mulsf3.c:46 (discriminator 9)
   268d0:	00f40433          	add	s0,s0,a5
/home/hdg/Desktop/desktop/toolchain/riscv-gnu-toolchain/build-gcc-newlib-stage2/riscv64-vega-elf/rv32im/ilp32/libgcc/../../../../.././riscv-gcc/libgcc/soft-fp/mulsf3.c:46 (discriminator 11)
   268d4:	0064f7b3          	and	a5,s1,t1
   268d8:	01079793          	slli	a5,a5,0x10
   268dc:	0068f8b3          	and	a7,a7,t1
   268e0:	011787b3          	add	a5,a5,a7
   268e4:	00679713          	slli	a4,a5,0x6
   268e8:	0104d493          	srli	s1,s1,0x10
   268ec:	00e03733          	snez	a4,a4
   268f0:	01a7d793          	srli	a5,a5,0x1a
   268f4:	00848433          	add	s0,s1,s0
   268f8:	00f767b3          	or	a5,a4,a5
   268fc:	00641413          	slli	s0,s0,0x6
   26900:	00f46433          	or	s0,s0,a5
   26904:	080007b7          	lui	a5,0x8000
   26908:	00f477b3          	and	a5,s0,a5
   2690c:	08078e63          	beqz	a5,269a8 <__mulsf3+0x258>
/home/hdg/Desktop/desktop/toolchain/riscv-gnu-toolchain/build-gcc-newlib-stage2/riscv64-vega-elf/rv32im/ilp32/libgcc/../../../../.././riscv-gcc/libgcc/soft-fp/mulsf3.c:46 (discriminator 12)
   26910:	00145793          	srli	a5,s0,0x1
   26914:	00147413          	andi	s0,s0,1
   26918:	0087e433          	or	s0,a5,s0
/home/hdg/Desktop/desktop/toolchain/riscv-gnu-toolchain/build-gcc-newlib-stage2/riscv64-vega-elf/rv32im/ilp32/libgcc/../../../../.././riscv-gcc/libgcc/soft-fp/mulsf3.c:47 (discriminator 2)
   2691c:	07f60713          	addi	a4,a2,127 # 400007f <__global_pointer$+0x3fd853b>
   26920:	08e05863          	blez	a4,269b0 <__mulsf3+0x260>
/home/hdg/Desktop/desktop/toolchain/riscv-gnu-toolchain/build-gcc-newlib-stage2/riscv64-vega-elf/rv32im/ilp32/libgcc/../../../../.././riscv-gcc/libgcc/soft-fp/mulsf3.c:47 (discriminator 6)
   26924:	00747793          	andi	a5,s0,7
   26928:	00078a63          	beqz	a5,2693c <__mulsf3+0x1ec>
/home/hdg/Desktop/desktop/toolchain/riscv-gnu-toolchain/build-gcc-newlib-stage2/riscv64-vega-elf/rv32im/ilp32/libgcc/../../../../.././riscv-gcc/libgcc/soft-fp/mulsf3.c:47 (discriminator 8)
   2692c:	00f47793          	andi	a5,s0,15
   26930:	00400593          	li	a1,4
   26934:	00b78463          	beq	a5,a1,2693c <__mulsf3+0x1ec>
/home/hdg/Desktop/desktop/toolchain/riscv-gnu-toolchain/build-gcc-newlib-stage2/riscv64-vega-elf/rv32im/ilp32/libgcc/../../../../.././riscv-gcc/libgcc/soft-fp/mulsf3.c:47 (discriminator 10)
   26938:	00440413          	addi	s0,s0,4 # 400004 <__global_pointer$+0x3d84c0>
/home/hdg/Desktop/desktop/toolchain/riscv-gnu-toolchain/build-gcc-newlib-stage2/riscv64-vega-elf/rv32im/ilp32/libgcc/../../../../.././riscv-gcc/libgcc/soft-fp/mulsf3.c:47 (discriminator 9)
   2693c:	080007b7          	lui	a5,0x8000
   26940:	00f477b3          	and	a5,s0,a5
   26944:	00078a63          	beqz	a5,26958 <__mulsf3+0x208>
/home/hdg/Desktop/desktop/toolchain/riscv-gnu-toolchain/build-gcc-newlib-stage2/riscv64-vega-elf/rv32im/ilp32/libgcc/../../../../.././riscv-gcc/libgcc/soft-fp/mulsf3.c:47 (discriminator 24)
   26948:	f80007b7          	lui	a5,0xf8000
   2694c:	fff78793          	addi	a5,a5,-1 # f7ffffff <__global_pointer$+0xf7fd84bb>
   26950:	00f47433          	and	s0,s0,a5
   26954:	08060713          	addi	a4,a2,128
/home/hdg/Desktop/desktop/toolchain/riscv-gnu-toolchain/build-gcc-newlib-stage2/riscv64-vega-elf/rv32im/ilp32/libgcc/../../../../.././riscv-gcc/libgcc/soft-fp/mulsf3.c:47 (discriminator 26)
   26958:	0fe00793          	li	a5,254
   2695c:	00345413          	srli	s0,s0,0x3
   26960:	0ae7da63          	bge	a5,a4,26a14 <__mulsf3+0x2c4>
   26964:	00000413          	li	s0,0
   26968:	0ff00713          	li	a4,255
   2696c:	0a80006f          	j	26a14 <__mulsf3+0x2c4>
/home/hdg/Desktop/desktop/toolchain/riscv-gnu-toolchain/build-gcc-newlib-stage2/riscv64-vega-elf/rv32im/ilp32/libgcc/../../../../.././riscv-gcc/libgcc/soft-fp/mulsf3.c:44 (discriminator 7)
   26970:	00098693          	mv	a3,s3
/home/hdg/Desktop/desktop/toolchain/riscv-gnu-toolchain/build-gcc-newlib-stage2/riscv64-vega-elf/rv32im/ilp32/libgcc/../../../../.././riscv-gcc/libgcc/soft-fp/mulsf3.c:46 (discriminator 7)
   26974:	00048413          	mv	s0,s1
   26978:	000a8793          	mv	a5,s5
/home/hdg/Desktop/desktop/toolchain/riscv-gnu-toolchain/build-gcc-newlib-stage2/riscv64-vega-elf/rv32im/ilp32/libgcc/../../../../.././riscv-gcc/libgcc/soft-fp/mulsf3.c:47 (discriminator 21)
   2697c:	00200713          	li	a4,2
   26980:	fee782e3          	beq	a5,a4,26964 <__mulsf3+0x214>
/home/hdg/Desktop/desktop/toolchain/riscv-gnu-toolchain/build-gcc-newlib-stage2/riscv64-vega-elf/rv32im/ilp32/libgcc/../../../../.././riscv-gcc/libgcc/soft-fp/mulsf3.c:47
   26984:	00300713          	li	a4,3
   26988:	08e78063          	beq	a5,a4,26a08 <__mulsf3+0x2b8>
   2698c:	00100713          	li	a4,1
   26990:	f8e796e3          	bne	a5,a4,2691c <__mulsf3+0x1cc>
   26994:	00000413          	li	s0,0
   26998:	00000713          	li	a4,0
   2699c:	0780006f          	j	26a14 <__mulsf3+0x2c4>
/home/hdg/Desktop/desktop/toolchain/riscv-gnu-toolchain/build-gcc-newlib-stage2/riscv64-vega-elf/rv32im/ilp32/libgcc/../../../../.././riscv-gcc/libgcc/soft-fp/mulsf3.c:45 (discriminator 4)
   269a0:	000a0693          	mv	a3,s4
/home/hdg/Desktop/desktop/toolchain/riscv-gnu-toolchain/build-gcc-newlib-stage2/riscv64-vega-elf/rv32im/ilp32/libgcc/../../../../.././riscv-gcc/libgcc/soft-fp/mulsf3.c:46 (discriminator 4)
   269a4:	fd9ff06f          	j	2697c <__mulsf3+0x22c>
/home/hdg/Desktop/desktop/toolchain/riscv-gnu-toolchain/build-gcc-newlib-stage2/riscv64-vega-elf/rv32im/ilp32/libgcc/../../../../.././riscv-gcc/libgcc/soft-fp/mulsf3.c:46
   269a8:	00050613          	mv	a2,a0
   269ac:	f71ff06f          	j	2691c <__mulsf3+0x1cc>
/home/hdg/Desktop/desktop/toolchain/riscv-gnu-toolchain/build-gcc-newlib-stage2/riscv64-vega-elf/rv32im/ilp32/libgcc/../../../../.././riscv-gcc/libgcc/soft-fp/mulsf3.c:47 (discriminator 59)
   269b0:	00100793          	li	a5,1
   269b4:	40e787b3          	sub	a5,a5,a4
   269b8:	01b00713          	li	a4,27
   269bc:	fcf74ce3          	blt	a4,a5,26994 <__mulsf3+0x244>
/home/hdg/Desktop/desktop/toolchain/riscv-gnu-toolchain/build-gcc-newlib-stage2/riscv64-vega-elf/rv32im/ilp32/libgcc/../../../../.././riscv-gcc/libgcc/soft-fp/mulsf3.c:47 (discriminator 60)
   269c0:	09e60613          	addi	a2,a2,158
   269c4:	00f457b3          	srl	a5,s0,a5
   269c8:	00c41433          	sll	s0,s0,a2
   269cc:	00803433          	snez	s0,s0
   269d0:	0087e433          	or	s0,a5,s0
   269d4:	00747793          	andi	a5,s0,7
   269d8:	00078a63          	beqz	a5,269ec <__mulsf3+0x29c>
/home/hdg/Desktop/desktop/toolchain/riscv-gnu-toolchain/build-gcc-newlib-stage2/riscv64-vega-elf/rv32im/ilp32/libgcc/../../../../.././riscv-gcc/libgcc/soft-fp/mulsf3.c:47 (discriminator 68)
   269dc:	00f47793          	andi	a5,s0,15
   269e0:	00400713          	li	a4,4
   269e4:	00e78463          	beq	a5,a4,269ec <__mulsf3+0x29c>
/home/hdg/Desktop/desktop/toolchain/riscv-gnu-toolchain/build-gcc-newlib-stage2/riscv64-vega-elf/rv32im/ilp32/libgcc/../../../../.././riscv-gcc/libgcc/soft-fp/mulsf3.c:47 (discriminator 70)
   269e8:	00440413          	addi	s0,s0,4
/home/hdg/Desktop/desktop/toolchain/riscv-gnu-toolchain/build-gcc-newlib-stage2/riscv64-vega-elf/rv32im/ilp32/libgcc/../../../../.././riscv-gcc/libgcc/soft-fp/mulsf3.c:47 (discriminator 69)
   269ec:	040007b7          	lui	a5,0x4000
   269f0:	00f477b3          	and	a5,s0,a5
   269f4:	00345413          	srli	s0,s0,0x3
   269f8:	fa0780e3          	beqz	a5,26998 <__mulsf3+0x248>
/home/hdg/Desktop/desktop/toolchain/riscv-gnu-toolchain/build-gcc-newlib-stage2/riscv64-vega-elf/rv32im/ilp32/libgcc/../../../../.././riscv-gcc/libgcc/soft-fp/mulsf3.c:47
   269fc:	00000413          	li	s0,0
   26a00:	00100713          	li	a4,1
   26a04:	0100006f          	j	26a14 <__mulsf3+0x2c4>
   26a08:	00400437          	lui	s0,0x400
   26a0c:	0ff00713          	li	a4,255
   26a10:	00000693          	li	a3,0
/home/hdg/Desktop/desktop/toolchain/riscv-gnu-toolchain/build-gcc-newlib-stage2/riscv64-vega-elf/rv32im/ilp32/libgcc/../../../../.././riscv-gcc/libgcc/soft-fp/mulsf3.c:47 (discriminator 111)
   26a14:	01771793          	slli	a5,a4,0x17
   26a18:	00941413          	slli	s0,s0,0x9
   26a1c:	7f800737          	lui	a4,0x7f800
   26a20:	00e7f7b3          	and	a5,a5,a4
   26a24:	00945413          	srli	s0,s0,0x9
   26a28:	0087e433          	or	s0,a5,s0
   26a2c:	01f69513          	slli	a0,a3,0x1f
/home/hdg/Desktop/desktop/toolchain/riscv-gnu-toolchain/build-gcc-newlib-stage2/riscv64-vega-elf/rv32im/ilp32/libgcc/../../../../.././riscv-gcc/libgcc/soft-fp/mulsf3.c:51 (discriminator 111)
   26a30:	01c12083          	lw	ra,28(sp)
   26a34:	00a46533          	or	a0,s0,a0
   26a38:	01812403          	lw	s0,24(sp)
   26a3c:	01412483          	lw	s1,20(sp)
   26a40:	01012903          	lw	s2,16(sp)
   26a44:	00c12983          	lw	s3,12(sp)
   26a48:	00812a03          	lw	s4,8(sp)
   26a4c:	00412a83          	lw	s5,4(sp)
   26a50:	02010113          	addi	sp,sp,32
   26a54:	00008067          	ret

00026a58 <__floatsisf>:
__floatsisf():
/home/hdg/Desktop/desktop/toolchain/riscv-gnu-toolchain/build-gcc-newlib-stage2/riscv64-vega-elf/rv32im/ilp32/libgcc/../../../../.././riscv-gcc/libgcc/soft-fp/floatsisf.c:36
   26a58:	ff010113          	addi	sp,sp,-16
   26a5c:	00112623          	sw	ra,12(sp)
   26a60:	00812423          	sw	s0,8(sp)
   26a64:	00912223          	sw	s1,4(sp)
/home/hdg/Desktop/desktop/toolchain/riscv-gnu-toolchain/build-gcc-newlib-stage2/riscv64-vega-elf/rv32im/ilp32/libgcc/../../../../.././riscv-gcc/libgcc/soft-fp/floatsisf.c:42
   26a68:	0e050663          	beqz	a0,26b54 <__floatsisf+0xfc>
/home/hdg/Desktop/desktop/toolchain/riscv-gnu-toolchain/build-gcc-newlib-stage2/riscv64-vega-elf/rv32im/ilp32/libgcc/../../../../.././riscv-gcc/libgcc/soft-fp/floatsisf.c:42 (discriminator 1)
   26a6c:	41f55793          	srai	a5,a0,0x1f
   26a70:	00a7c433          	xor	s0,a5,a0
   26a74:	40f40433          	sub	s0,s0,a5
   26a78:	01f55493          	srli	s1,a0,0x1f
   26a7c:	00040513          	mv	a0,s0
   26a80:	0e0000ef          	jal	ra,26b60 <__clzsi2>
   26a84:	09e00793          	li	a5,158
   26a88:	00050713          	mv	a4,a0
   26a8c:	40a78533          	sub	a0,a5,a0
   26a90:	09600793          	li	a5,150
   26a94:	04a7c063          	blt	a5,a0,26ad4 <__floatsisf+0x7c>
/home/hdg/Desktop/desktop/toolchain/riscv-gnu-toolchain/build-gcc-newlib-stage2/riscv64-vega-elf/rv32im/ilp32/libgcc/../../../../.././riscv-gcc/libgcc/soft-fp/floatsisf.c:42 (discriminator 28)
   26a98:	00800793          	li	a5,8
   26a9c:	00e7d663          	bge	a5,a4,26aa8 <__floatsisf+0x50>
/home/hdg/Desktop/desktop/toolchain/riscv-gnu-toolchain/build-gcc-newlib-stage2/riscv64-vega-elf/rv32im/ilp32/libgcc/../../../../.././riscv-gcc/libgcc/soft-fp/floatsisf.c:42 (discriminator 35)
   26aa0:	ff870713          	addi	a4,a4,-8 # 7f7ffff8 <__global_pointer$+0x7f7d84b4>
   26aa4:	00e41433          	sll	s0,s0,a4
/home/hdg/Desktop/desktop/toolchain/riscv-gnu-toolchain/build-gcc-newlib-stage2/riscv64-vega-elf/rv32im/ilp32/libgcc/../../../../.././riscv-gcc/libgcc/soft-fp/floatsisf.c:43 (discriminator 140)
   26aa8:	00941413          	slli	s0,s0,0x9
   26aac:	01751513          	slli	a0,a0,0x17
   26ab0:	00945413          	srli	s0,s0,0x9
   26ab4:	00856433          	or	s0,a0,s0
   26ab8:	01f49513          	slli	a0,s1,0x1f
/home/hdg/Desktop/desktop/toolchain/riscv-gnu-toolchain/build-gcc-newlib-stage2/riscv64-vega-elf/rv32im/ilp32/libgcc/../../../../.././riscv-gcc/libgcc/soft-fp/floatsisf.c:47 (discriminator 140)
   26abc:	00c12083          	lw	ra,12(sp)
   26ac0:	00a46533          	or	a0,s0,a0
   26ac4:	00812403          	lw	s0,8(sp)
   26ac8:	00412483          	lw	s1,4(sp)
   26acc:	01010113          	addi	sp,sp,16
   26ad0:	00008067          	ret
/home/hdg/Desktop/desktop/toolchain/riscv-gnu-toolchain/build-gcc-newlib-stage2/riscv64-vega-elf/rv32im/ilp32/libgcc/../../../../.././riscv-gcc/libgcc/soft-fp/floatsisf.c:42 (discriminator 29)
   26ad4:	09900793          	li	a5,153
   26ad8:	02a7d063          	bge	a5,a0,26af8 <__floatsisf+0xa0>
/home/hdg/Desktop/desktop/toolchain/riscv-gnu-toolchain/build-gcc-newlib-stage2/riscv64-vega-elf/rv32im/ilp32/libgcc/../../../../.././riscv-gcc/libgcc/soft-fp/floatsisf.c:42 (discriminator 38)
   26adc:	00500793          	li	a5,5
   26ae0:	40e787b3          	sub	a5,a5,a4
   26ae4:	01b70693          	addi	a3,a4,27
   26ae8:	00f457b3          	srl	a5,s0,a5
   26aec:	00d41433          	sll	s0,s0,a3
   26af0:	00803433          	snez	s0,s0
   26af4:	0087e433          	or	s0,a5,s0
/home/hdg/Desktop/desktop/toolchain/riscv-gnu-toolchain/build-gcc-newlib-stage2/riscv64-vega-elf/rv32im/ilp32/libgcc/../../../../.././riscv-gcc/libgcc/soft-fp/floatsisf.c:42 (discriminator 40)
   26af8:	00500793          	li	a5,5
   26afc:	00e7d663          	bge	a5,a4,26b08 <__floatsisf+0xb0>
/home/hdg/Desktop/desktop/toolchain/riscv-gnu-toolchain/build-gcc-newlib-stage2/riscv64-vega-elf/rv32im/ilp32/libgcc/../../../../.././riscv-gcc/libgcc/soft-fp/floatsisf.c:42 (discriminator 46)
   26b00:	ffb70793          	addi	a5,a4,-5
   26b04:	00f41433          	sll	s0,s0,a5
/home/hdg/Desktop/desktop/toolchain/riscv-gnu-toolchain/build-gcc-newlib-stage2/riscv64-vega-elf/rv32im/ilp32/libgcc/../../../../.././riscv-gcc/libgcc/soft-fp/floatsisf.c:42 (discriminator 48)
   26b08:	fc0006b7          	lui	a3,0xfc000
   26b0c:	fff68693          	addi	a3,a3,-1 # fbffffff <__global_pointer$+0xfbfd84bb>
   26b10:	00747793          	andi	a5,s0,7
   26b14:	00d476b3          	and	a3,s0,a3
   26b18:	00078a63          	beqz	a5,26b2c <__floatsisf+0xd4>
/home/hdg/Desktop/desktop/toolchain/riscv-gnu-toolchain/build-gcc-newlib-stage2/riscv64-vega-elf/rv32im/ilp32/libgcc/../../../../.././riscv-gcc/libgcc/soft-fp/floatsisf.c:42 (discriminator 89)
   26b1c:	00f47413          	andi	s0,s0,15
   26b20:	00400793          	li	a5,4
   26b24:	00f40463          	beq	s0,a5,26b2c <__floatsisf+0xd4>
/home/hdg/Desktop/desktop/toolchain/riscv-gnu-toolchain/build-gcc-newlib-stage2/riscv64-vega-elf/rv32im/ilp32/libgcc/../../../../.././riscv-gcc/libgcc/soft-fp/floatsisf.c:42 (discriminator 93)
   26b28:	00468693          	addi	a3,a3,4
/home/hdg/Desktop/desktop/toolchain/riscv-gnu-toolchain/build-gcc-newlib-stage2/riscv64-vega-elf/rv32im/ilp32/libgcc/../../../../.././riscv-gcc/libgcc/soft-fp/floatsisf.c:42 (discriminator 96)
   26b2c:	040007b7          	lui	a5,0x4000
   26b30:	00f6f7b3          	and	a5,a3,a5
   26b34:	00078c63          	beqz	a5,26b4c <__floatsisf+0xf4>
/home/hdg/Desktop/desktop/toolchain/riscv-gnu-toolchain/build-gcc-newlib-stage2/riscv64-vega-elf/rv32im/ilp32/libgcc/../../../../.././riscv-gcc/libgcc/soft-fp/floatsisf.c:42 (discriminator 112)
   26b38:	fc0007b7          	lui	a5,0xfc000
   26b3c:	fff78793          	addi	a5,a5,-1 # fbffffff <__global_pointer$+0xfbfd84bb>
   26b40:	00f6f6b3          	and	a3,a3,a5
   26b44:	09f00793          	li	a5,159
   26b48:	40e78533          	sub	a0,a5,a4
/home/hdg/Desktop/desktop/toolchain/riscv-gnu-toolchain/build-gcc-newlib-stage2/riscv64-vega-elf/rv32im/ilp32/libgcc/../../../../.././riscv-gcc/libgcc/soft-fp/floatsisf.c:42 (discriminator 128)
   26b4c:	0036d413          	srli	s0,a3,0x3
   26b50:	f59ff06f          	j	26aa8 <__floatsisf+0x50>
/home/hdg/Desktop/desktop/toolchain/riscv-gnu-toolchain/build-gcc-newlib-stage2/riscv64-vega-elf/rv32im/ilp32/libgcc/../../../../.././riscv-gcc/libgcc/soft-fp/floatsisf.c:42
   26b54:	00000493          	li	s1,0
   26b58:	00000413          	li	s0,0
   26b5c:	f4dff06f          	j	26aa8 <__floatsisf+0x50>

00026b60 <__clzsi2>:
__clzsi2():
/home/hdg/Desktop/desktop/toolchain/riscv-gnu-toolchain/build-gcc-newlib-stage2/riscv64-vega-elf/rv32im/ilp32/libgcc/../../../../.././riscv-gcc/libgcc/libgcc2.c:710
   26b60:	000107b7          	lui	a5,0x10
   26b64:	02f57a63          	bgeu	a0,a5,26b98 <__clzsi2+0x38>
/home/hdg/Desktop/desktop/toolchain/riscv-gnu-toolchain/build-gcc-newlib-stage2/riscv64-vega-elf/rv32im/ilp32/libgcc/../../../../.././riscv-gcc/libgcc/libgcc2.c:710 (discriminator 3)
   26b68:	0ff00793          	li	a5,255
   26b6c:	00a7b7b3          	sltu	a5,a5,a0
   26b70:	00379793          	slli	a5,a5,0x3
/home/hdg/Desktop/desktop/toolchain/riscv-gnu-toolchain/build-gcc-newlib-stage2/riscv64-vega-elf/rv32im/ilp32/libgcc/../../../../.././riscv-gcc/libgcc/libgcc2.c:710 (discriminator 14)
   26b74:	02000713          	li	a4,32
   26b78:	40f70733          	sub	a4,a4,a5
   26b7c:	00f55533          	srl	a0,a0,a5
   26b80:	00000797          	auipc	a5,0x0
   26b84:	68878793          	addi	a5,a5,1672 # 27208 <__clz_tab>
   26b88:	00a78533          	add	a0,a5,a0
   26b8c:	00054503          	lbu	a0,0(a0)
/home/hdg/Desktop/desktop/toolchain/riscv-gnu-toolchain/build-gcc-newlib-stage2/riscv64-vega-elf/rv32im/ilp32/libgcc/../../../../.././riscv-gcc/libgcc/libgcc2.c:713 (discriminator 14)
   26b90:	40a70533          	sub	a0,a4,a0
   26b94:	00008067          	ret
/home/hdg/Desktop/desktop/toolchain/riscv-gnu-toolchain/build-gcc-newlib-stage2/riscv64-vega-elf/rv32im/ilp32/libgcc/../../../../.././riscv-gcc/libgcc/libgcc2.c:710 (discriminator 4)
   26b98:	01000737          	lui	a4,0x1000
   26b9c:	01000793          	li	a5,16
   26ba0:	fce56ae3          	bltu	a0,a4,26b74 <__clzsi2+0x14>
/home/hdg/Desktop/desktop/toolchain/riscv-gnu-toolchain/build-gcc-newlib-stage2/riscv64-vega-elf/rv32im/ilp32/libgcc/../../../../.././riscv-gcc/libgcc/libgcc2.c:710
   26ba4:	01800793          	li	a5,24
   26ba8:	fcdff06f          	j	26b74 <__clzsi2+0x14>

Disassembly of section .text.main:

00026bac <main>:
main():
   26bac:	fe010113          	addi	sp,sp,-32
   26bb0:	00112e23          	sw	ra,28(sp)
   26bb4:	00812c23          	sw	s0,24(sp)
   26bb8:	02010413          	addi	s0,sp,32
   26bbc:	fe042623          	sw	zero,-20(s0) # 3fffec <__global_pointer$+0x3d84a8>
   26bc0:	026267b7          	lui	a5,0x2626
   26bc4:	a0078613          	addi	a2,a5,-1536 # 2625a00 <__global_pointer$+0x25fdebc>
   26bc8:	0001c7b7          	lui	a5,0x1c
   26bcc:	20078593          	addi	a1,a5,512 # 1c200 <_tbss_end+0x1c200>
   26bd0:	00000513          	li	a0,0
   26bd4:	ee4f90ef          	jal	ra,202b8 <uart_set_baud_rate>
   26bd8:	00000517          	auipc	a0,0x0
   26bdc:	22850513          	addi	a0,a0,552 # 26e00 <main+0x254>
   26be0:	8dcfc0ef          	jal	ra,22cbc <printf>
   26be4:	fe042623          	sw	zero,-20(s0)
   26be8:	fe440793          	addi	a5,s0,-28
   26bec:	00600613          	li	a2,6
   26bf0:	00000593          	li	a1,0
   26bf4:	00078513          	mv	a0,a5
   26bf8:	ff5fc0ef          	jal	ra,23bec <memset>
   26bfc:	fe340793          	addi	a5,s0,-29
   26c00:	00078593          	mv	a1,a5
   26c04:	00000513          	li	a0,0
   26c08:	a69f90ef          	jal	ra,20670 <uart_getchar>
   26c0c:	00050793          	mv	a5,a0
   26c10:	fef405a3          	sb	a5,-21(s0)
   26c14:	fe344783          	lbu	a5,-29(s0)
   26c18:	00078a63          	beqz	a5,26c2c <main+0x80>
   26c1c:	00000517          	auipc	a0,0x0
   26c20:	20050513          	addi	a0,a0,512 # 26e1c <main+0x270>
   26c24:	898fc0ef          	jal	ra,22cbc <printf>
   26c28:	1c40006f          	j	26dec <main+0x240>
   26c2c:	feb44703          	lbu	a4,-21(s0)
   26c30:	00a00793          	li	a5,10
   26c34:	00f70863          	beq	a4,a5,26c44 <main+0x98>
   26c38:	feb44703          	lbu	a4,-21(s0)
   26c3c:	00d00793          	li	a5,13
   26c40:	02f71c63          	bne	a4,a5,26c78 <main+0xcc>
   26c44:	fec42783          	lw	a5,-20(s0)
   26c48:	ff040713          	addi	a4,s0,-16
   26c4c:	00f707b3          	add	a5,a4,a5
   26c50:	fe078a23          	sb	zero,-12(a5)
   26c54:	00000013          	nop
   26c58:	fe440793          	addi	a5,s0,-28
   26c5c:	00000597          	auipc	a1,0x0
   26c60:	1e058593          	addi	a1,a1,480 # 26e3c <main+0x290>
   26c64:	00078513          	mv	a0,a5
   26c68:	95cfd0ef          	jal	ra,23dc4 <strcmp>
   26c6c:	00050793          	mv	a5,a0
   26c70:	16079663          	bnez	a5,26ddc <main+0x230>
   26c74:	0480006f          	j	26cbc <main+0x110>
   26c78:	fec42703          	lw	a4,-20(s0)
   26c7c:	00400793          	li	a5,4
   26c80:	f6e7eee3          	bltu	a5,a4,26bfc <main+0x50>
   26c84:	fec42783          	lw	a5,-20(s0)
   26c88:	00178713          	addi	a4,a5,1
   26c8c:	fee42623          	sw	a4,-20(s0)
   26c90:	ff040713          	addi	a4,s0,-16
   26c94:	00f707b3          	add	a5,a4,a5
   26c98:	feb44703          	lbu	a4,-21(s0)
   26c9c:	fee78a23          	sb	a4,-12(a5)
   26ca0:	fe340713          	addi	a4,s0,-29
   26ca4:	feb44783          	lbu	a5,-21(s0)
   26ca8:	00070613          	mv	a2,a4
   26cac:	00078593          	mv	a1,a5
   26cb0:	00000513          	li	a0,0
   26cb4:	831f90ef          	jal	ra,204e4 <uart_putchar>
   26cb8:	f45ff06f          	j	26bfc <main+0x50>
   26cbc:	00000517          	auipc	a0,0x0
   26cc0:	18450513          	addi	a0,a0,388 # 26e40 <main+0x294>
   26cc4:	ff9fb0ef          	jal	ra,22cbc <printf>
   26cc8:	00100513          	li	a0,1
   26ccc:	df1f90ef          	jal	ra,20abc <pinSet>
   26cd0:	00000517          	auipc	a0,0x0
   26cd4:	17c50513          	addi	a0,a0,380 # 26e4c <main+0x2a0>
   26cd8:	fe5fb0ef          	jal	ra,22cbc <printf>
   26cdc:	fe042623          	sw	zero,-20(s0)
   26ce0:	fe440793          	addi	a5,s0,-28
   26ce4:	00600613          	li	a2,6
   26ce8:	00000593          	li	a1,0
   26cec:	00078513          	mv	a0,a5
   26cf0:	efdfc0ef          	jal	ra,23bec <memset>
   26cf4:	fe340793          	addi	a5,s0,-29
   26cf8:	00078593          	mv	a1,a5
   26cfc:	00000513          	li	a0,0
   26d00:	971f90ef          	jal	ra,20670 <uart_getchar>
   26d04:	00050793          	mv	a5,a0
   26d08:	fef40523          	sb	a5,-22(s0)
   26d0c:	fe344783          	lbu	a5,-29(s0)
   26d10:	00078a63          	beqz	a5,26d24 <main+0x178>
   26d14:	00000517          	auipc	a0,0x0
   26d18:	10850513          	addi	a0,a0,264 # 26e1c <main+0x270>
   26d1c:	fa1fb0ef          	jal	ra,22cbc <printf>
   26d20:	0cc0006f          	j	26dec <main+0x240>
   26d24:	fea44703          	lbu	a4,-22(s0)
   26d28:	00a00793          	li	a5,10
   26d2c:	00f70863          	beq	a4,a5,26d3c <main+0x190>
   26d30:	fea44703          	lbu	a4,-22(s0)
   26d34:	00d00793          	li	a5,13
   26d38:	02f71c63          	bne	a4,a5,26d70 <main+0x1c4>
   26d3c:	fec42783          	lw	a5,-20(s0)
   26d40:	ff040713          	addi	a4,s0,-16
   26d44:	00f707b3          	add	a5,a4,a5
   26d48:	fe078a23          	sb	zero,-12(a5)
   26d4c:	00000013          	nop
   26d50:	fe440793          	addi	a5,s0,-28
   26d54:	00000597          	auipc	a1,0x0
   26d58:	13058593          	addi	a1,a1,304 # 26e84 <main+0x2d8>
   26d5c:	00078513          	mv	a0,a5
   26d60:	864fd0ef          	jal	ra,23dc4 <strcmp>
   26d64:	00050793          	mv	a5,a0
   26d68:	06079263          	bnez	a5,26dcc <main+0x220>
   26d6c:	0480006f          	j	26db4 <main+0x208>
   26d70:	fec42703          	lw	a4,-20(s0)
   26d74:	00400793          	li	a5,4
   26d78:	f6e7eee3          	bltu	a5,a4,26cf4 <main+0x148>
   26d7c:	fec42783          	lw	a5,-20(s0)
   26d80:	00178713          	addi	a4,a5,1
   26d84:	fee42623          	sw	a4,-20(s0)
   26d88:	ff040713          	addi	a4,s0,-16
   26d8c:	00f707b3          	add	a5,a4,a5
   26d90:	fea44703          	lbu	a4,-22(s0)
   26d94:	fee78a23          	sb	a4,-12(a5)
   26d98:	fe340713          	addi	a4,s0,-29
   26d9c:	fea44783          	lbu	a5,-22(s0)
   26da0:	00070613          	mv	a2,a4
   26da4:	00078593          	mv	a1,a5
   26da8:	00000513          	li	a0,0
   26dac:	f38f90ef          	jal	ra,204e4 <uart_putchar>
   26db0:	f45ff06f          	j	26cf4 <main+0x148>
   26db4:	00000517          	auipc	a0,0x0
   26db8:	0d450513          	addi	a0,a0,212 # 26e88 <main+0x2dc>
   26dbc:	f01fb0ef          	jal	ra,22cbc <printf>
   26dc0:	00100513          	li	a0,1
   26dc4:	d45f90ef          	jal	ra,20b08 <pinClear>
   26dc8:	0200006f          	j	26de8 <main+0x23c>
   26dcc:	00000517          	auipc	a0,0x0
   26dd0:	0c850513          	addi	a0,a0,200 # 26e94 <main+0x2e8>
   26dd4:	ee9fb0ef          	jal	ra,22cbc <printf>
   26dd8:	ef9ff06f          	j	26cd0 <main+0x124>
   26ddc:	00000517          	auipc	a0,0x0
   26de0:	0ec50513          	addi	a0,a0,236 # 26ec8 <main+0x31c>
   26de4:	ed9fb0ef          	jal	ra,22cbc <printf>
   26de8:	df1ff06f          	j	26bd8 <main+0x2c>
   26dec:	01c12083          	lw	ra,28(sp)
   26df0:	01812403          	lw	s0,24(sp)
   26df4:	02010113          	addi	sp,sp,32
   26df8:	00008067          	ret
